ARM GAS  C:\Users\saman\AppData\Local\Temp\ccOAgYwr.s 			page 1


   1              		.syntax unified
   2              		.cpu cortex-m3
   3              		.fpu softvfp
   4              		.eabi_attribute 20, 1
   5              		.eabi_attribute 21, 1
   6              		.eabi_attribute 23, 3
   7              		.eabi_attribute 24, 1
   8              		.eabi_attribute 25, 1
   9              		.eabi_attribute 26, 1
  10              		.eabi_attribute 30, 1
  11              		.eabi_attribute 34, 1
  12              		.eabi_attribute 18, 4
  13              		.thumb
  14              		.syntax unified
  15              		.file	"clock.c"
  16              		.text
  17              	.Ltext0:
  18              		.cfi_sections	.debug_frame
  19              		.section	.text.CLOCK__setDisplayFonts,"ax",%progbits
  20              		.align	2
  21              		.thumb
  22              		.thumb_func
  23              		.type	CLOCK__setDisplayFonts, %function
  24              	CLOCK__setDisplayFonts:
  25              	.LFB158:
  26              		.file 1 "source\\asw\\clock.c"
   1:source\asw/clock.c **** /* ========================================
   2:source\asw/clock.c ****  *
   3:source\asw/clock.c ****  * Copyright YOUR COMPANY, THE YEAR
   4:source\asw/clock.c ****  * All Rights Reserved
   5:source\asw/clock.c ****  * UNPUBLISHED, LICENSED SOFTWARE.
   6:source\asw/clock.c ****  *
   7:source\asw/clock.c ****  * CONFIDENTIAL AND PROPRIETARY INFORMATION
   8:source\asw/clock.c ****  * WHICH IS THE PROPERTY OF your company.
   9:source\asw/clock.c ****  *
  10:source\asw/clock.c ****  * ========================================
  11:source\asw/clock.c **** */
  12:source\asw/clock.c **** 
  13:source\asw/clock.c **** #include "clock.h"
  14:source\asw/clock.c **** #include "sp_common.h"
  15:source\asw/clock.c **** #include "stdlib.h"
  16:source\asw/clock.c **** 
  17:source\asw/clock.c **** char buffer[100];
  18:source\asw/clock.c **** /** ---------------------------- Actions ---------------------------------- **/
  19:source\asw/clock.c **** 
  20:source\asw/clock.c **** static void CLOCK__dispatch_Wrapper(EVENT_t ev, CLOCK_Active_Widget_t widget);
  21:source\asw/clock.c **** static void CLOCK__dispatch_KL_Hours();
  22:source\asw/clock.c **** static void CLOCK__increment1Minute();
  23:source\asw/clock.c **** static void CLOCK__dispatch_KL_HoursMin();
  24:source\asw/clock.c **** static void CLOCK__dispatch_KR_Hours();
  25:source\asw/clock.c **** static void CLOCK__dispatch_KRLP_Hours();
  26:source\asw/clock.c **** static void CLOCK__dispatch_250MS_Hours();
  27:source\asw/clock.c **** static void CLOCK__dispatch_KL_Min();
  28:source\asw/clock.c **** static void CLOCK__dispatch_KR_Min();
  29:source\asw/clock.c **** static void CLOCK__dispatch_KRLP_Min();
  30:source\asw/clock.c **** static void CLOCK__dispatch_250MS_Min();
  31:source\asw/clock.c **** static void CLOCK__setEditFonts();
ARM GAS  C:\Users\saman\AppData\Local\Temp\ccOAgYwr.s 			page 2


  32:source\asw/clock.c **** static void CLOCK__incrementWidget();
  33:source\asw/clock.c **** static void CLOCK__setDisplayFonts();
  34:source\asw/clock.c **** static void CLOCK__updateDisplay();
  35:source\asw/clock.c **** static void CLOCK__updateTime();
  36:source\asw/clock.c **** static void CLOCK__incrementHourandDisplay();
  37:source\asw/clock.c **** static void CLOCK__incrementMinuteandDisplay();
  38:source\asw/clock.c **** 
  39:source\asw/clock.c **** /** ---------------------------- Actions ---------------------------------- **/
  40:source\asw/clock.c **** 
  41:source\asw/clock.c **** 
  42:source\asw/clock.c **** /** ------------------------------------- Transitions Table Start ---------------------------------
  43:source\asw/clock.c **** 
  44:source\asw/clock.c **** /**============================== Container ================================ **/
  45:source\asw/clock.c **** 
  46:source\asw/clock.c **** /** ========= CLOCK_C_ISDISPLAYING ========== **/
  47:source\asw/clock.c **** const STATE_stateInnerTransition_t STATE_CLOCK_C_ISDISPLAYING_Transitions[] = 
  48:source\asw/clock.c **** {
  49:source\asw/clock.c ****     /*  Event               ToState                         Guard           Action                 
  50:source\asw/clock.c ****     {   EV_KEYLEFT,         CLOCK_C_ISEDITINGHOURS,         0,              CLOCK__dispatch_KL_Hour
  51:source\asw/clock.c ****     {   EV_1MIN,            CLOCK_C_ISDISPLAYING,           0,              CLOCK__increment1Minute
  52:source\asw/clock.c **** };
  53:source\asw/clock.c **** 
  54:source\asw/clock.c **** /** ========= CLOCK_C_ISEDITINGHOURS ========== **/
  55:source\asw/clock.c **** const STATE_stateInnerTransition_t STATE_CLOCK_C_ISEDITINGHOURS_Transitions[] = 
  56:source\asw/clock.c **** {
  57:source\asw/clock.c ****     /*  Event                       ToState                           Guard           Action       
  58:source\asw/clock.c ****     {   EV_KEYLEFT,                 CLOCK_C_ISEDITINGMINUTES,         0,              CLOCK__dispat
  59:source\asw/clock.c ****     {   EV_KEYRIGHT,                CLOCK_C_ISEDITINGHOURS,           0,              CLOCK__dispat
  60:source\asw/clock.c ****     {   EV_KEYRIGHTLONGPRESS,       CLOCK_C_ISEDITINGHOURS,           0,              CLOCK__dispat
  61:source\asw/clock.c ****     {   EV_250MS,                   CLOCK_C_ISEDITINGHOURS,           0,              CLOCK__dispat
  62:source\asw/clock.c **** };
  63:source\asw/clock.c **** 
  64:source\asw/clock.c **** /** ========= CLOCK_C_ISEDITINGMINUTES ========== **/
  65:source\asw/clock.c **** const STATE_stateInnerTransition_t STATE_CLOCK_C_ISEDITINGMINUTES_Transitions[] = 
  66:source\asw/clock.c **** {
  67:source\asw/clock.c ****     /*  Event                       ToState                         Guard           Action         
  68:source\asw/clock.c ****     {   EV_KEYLEFT,                 CLOCK_C_ISDISPLAYING,           0,              CLOCK__dispatch
  69:source\asw/clock.c ****     {   EV_KEYRIGHT,                CLOCK_C_ISEDITINGMINUTES,       0,              CLOCK__dispatch
  70:source\asw/clock.c ****     {   EV_KEYRIGHTLONGPRESS,       CLOCK_C_ISEDITINGMINUTES,       0,              CLOCK__dispatch
  71:source\asw/clock.c ****     {   EV_250MS,                   CLOCK_C_ISEDITINGMINUTES,       0,              CLOCK__dispatch
  72:source\asw/clock.c **** };
  73:source\asw/clock.c **** 
  74:source\asw/clock.c **** static const STATE_stateOuterTransitionTable_t CLOCK_Container_Transitions = 
  75:source\asw/clock.c **** {
  76:source\asw/clock.c ****     /*  fromState                     Pointer to table                                        Size 
  77:source\asw/clock.c ****     {   CLOCK_C_ISDISPLAYING,         &STATE_CLOCK_C_ISDISPLAYING_Transitions,                sizeo
  78:source\asw/clock.c ****     {   CLOCK_C_ISEDITINGHOURS,       &STATE_CLOCK_C_ISEDITINGHOURS_Transitions,              sizeo
  79:source\asw/clock.c ****     {   CLOCK_C_ISEDITINGMINUTES,     &STATE_CLOCK_C_ISEDITINGMINUTES_Transitions,            sizeo
  80:source\asw/clock.c **** };
  81:source\asw/clock.c **** static const uint16_t CLOCK_Container_Transitions_size = sizeof(CLOCK_Container_Transitions)/sizeof
  82:source\asw/clock.c **** 
  83:source\asw/clock.c **** /** ============= Container Action ============== **/
  84:source\asw/clock.c **** static const STATE_stateActionTable_t CLOCK_Container_Actions = 
  85:source\asw/clock.c **** {
  86:source\asw/clock.c ****     /*  fromState                   actionEntry                   actionExit          */
  87:source\asw/clock.c ****     {   CLOCK_C_ISDISPLAYING,       CLOCK__updateDisplay,         0                   },
  88:source\asw/clock.c **** };
ARM GAS  C:\Users\saman\AppData\Local\Temp\ccOAgYwr.s 			page 3


  89:source\asw/clock.c **** static const uint16_t CLOCK_Container_Actions_size = sizeof(CLOCK_Container_Actions)/sizeof(STATE_s
  90:source\asw/clock.c **** 
  91:source\asw/clock.c **** /**============================== WIDGET ================================ **/
  92:source\asw/clock.c **** 
  93:source\asw/clock.c **** /** ========= CLOCK_W_ISDISPLAYING =========== **/
  94:source\asw/clock.c **** const STATE_stateInnerTransition_t STATE_CLOCK_W_ISDISPLAYING_Transitions[] = 
  95:source\asw/clock.c **** {
  96:source\asw/clock.c ****     /*  Event               ToState                    Guard           Action                  */
  97:source\asw/clock.c ****     {   EV_KEYLEFT,         CLOCK_W_ISEDITING,         0,              CLOCK__setEditFonts     },
  98:source\asw/clock.c **** };
  99:source\asw/clock.c **** 
 100:source\asw/clock.c **** /** ========= CLOCK_W_ISEDITING ============== **/
 101:source\asw/clock.c **** const STATE_stateInnerTransition_t STATE_CLOCK_W_ISEDITING_Transitions[] = 
 102:source\asw/clock.c **** {
 103:source\asw/clock.c ****     /*  Event                       ToState                         Guard           Action         
 104:source\asw/clock.c ****     {   EV_KEYRIGHT,                CLOCK_W_ISEDITING,              0,              CLOCK__incremen
 105:source\asw/clock.c ****     {   EV_KEYRIGHTLONGPRESS,       CLOCK_W_ISAUTOINCREMENT,        0,              0              
 106:source\asw/clock.c ****     {   EV_KEYLEFT,                 CLOCK_W_ISDISPLAYING,           0,              CLOCK__setDispl
 107:source\asw/clock.c **** };
 108:source\asw/clock.c **** 
 109:source\asw/clock.c **** /** ========= CLOCK_W_ISAUTOINCREMENT ========== **/
 110:source\asw/clock.c **** const STATE_stateInnerTransition_t STATE_CLOCK_W_ISAUTOINCREMENT_Transitions[] = 
 111:source\asw/clock.c **** {
 112:source\asw/clock.c ****     /*  Event                       ToState                         Guard           Action         
 113:source\asw/clock.c ****     {   EV_KEYRIGHT,                CLOCK_W_ISEDITING,              0,              CLOCK__incremen
 114:source\asw/clock.c ****     {   EV_250MS,                   CLOCK_W_ISAUTOINCREMENT,        0,              CLOCK__incremen
 115:source\asw/clock.c ****     {   EV_KEYLEFT,                 CLOCK_W_ISEDITING,              0,              CLOCK__setDispl
 116:source\asw/clock.c **** };
 117:source\asw/clock.c **** 
 118:source\asw/clock.c **** static const STATE_stateOuterTransitionTable_t CLOCK_Widget_Transitions = 
 119:source\asw/clock.c **** {
 120:source\asw/clock.c ****     /*  fromState                   Pointer to table                                Size of table [
 121:source\asw/clock.c ****     {   CLOCK_W_ISDISPLAYING,       &STATE_CLOCK_W_ISDISPLAYING_Transitions,        sizeof(STATE_CL
 122:source\asw/clock.c ****     {   CLOCK_W_ISEDITING,          &STATE_CLOCK_W_ISEDITING_Transitions,           sizeof(STATE_CL
 123:source\asw/clock.c ****     {   CLOCK_W_ISAUTOINCREMENT,    &STATE_CLOCK_W_ISAUTOINCREMENT_Transitions,     sizeof(STATE_CL
 124:source\asw/clock.c **** };
 125:source\asw/clock.c **** static const uint16_t CLOCK_Widget_Transitions_size = sizeof(CLOCK_Widget_Transitions)/sizeof(STATE
 126:source\asw/clock.c **** 
 127:source\asw/clock.c **** /** ============= Widget Action ============== **/
 128:source\asw/clock.c **** static const STATE_stateActionTable_t CLOCK_Widget_Actions = 
 129:source\asw/clock.c **** {
 130:source\asw/clock.c ****     /*  fromState                   actionEntry                  actionExit          */
 131:source\asw/clock.c ****     {   CLOCK_W_ISDISPLAYING,       CLOCK__updateDisplay,        0                   },
 132:source\asw/clock.c ****     {   CLOCK_W_ISEDITING,          CLOCK__updateDisplay,        0                   },
 133:source\asw/clock.c ****     {   CLOCK_W_ISAUTOINCREMENT,    CLOCK__updateDisplay,        0                   },
 134:source\asw/clock.c **** };
 135:source\asw/clock.c **** static const uint16_t CLOCK_Widget_Actions_size = sizeof(CLOCK_Widget_Actions)/sizeof(STATE_stateAc
 136:source\asw/clock.c **** 
 137:source\asw/clock.c **** /** ------------------------------------- Transitions Table End -----------------------------------
 138:source\asw/clock.c **** STATE_t containerFSM = {
 139:source\asw/clock.c ****     &CLOCK_Container_Transitions, 
 140:source\asw/clock.c ****     sizeof(CLOCK_Container_Transitions)/sizeof(STATE_stateOuterTransition_t), 
 141:source\asw/clock.c ****     &CLOCK_Container_Actions, 
 142:source\asw/clock.c ****     sizeof(CLOCK_Container_Actions)/sizeof(STATE_stateAction_t),
 143:source\asw/clock.c ****     CLOCK_C_ISDISPLAYING
 144:source\asw/clock.c **** };
 145:source\asw/clock.c **** 
ARM GAS  C:\Users\saman\AppData\Local\Temp\ccOAgYwr.s 			page 4


 146:source\asw/clock.c **** STATE_t widgetFSM = {
 147:source\asw/clock.c ****         &CLOCK_Widget_Transitions,
 148:source\asw/clock.c ****         sizeof(CLOCK_Widget_Transitions)/sizeof(STATE_stateOuterTransition_t),
 149:source\asw/clock.c ****         &CLOCK_Widget_Actions,
 150:source\asw/clock.c ****         sizeof(CLOCK_Widget_Actions)/sizeof(STATE_stateAction_t),
 151:source\asw/clock.c ****         CLOCK_W_ISDISPLAYING
 152:source\asw/clock.c **** };
 153:source\asw/clock.c **** 
 154:source\asw/clock.c **** void statemachine_init()
 155:source\asw/clock.c **** {   
 156:source\asw/clock.c ****     //UART_LOG_PutString("statemachine_init");
 157:source\asw/clock.c ****     SC_CONTROL_data_t control = SC_CONTROL_INIT_DATA;
 158:source\asw/clock.c ****     containerFSM.m_state = CLOCK_C_ISDISPLAYING;
 159:source\asw/clock.c ****     
 160:source\asw/clock.c ****     control = RTE_SC_CONTROL_get(&SO_CONTROL_signal);
 161:source\asw/clock.c ****     
 162:source\asw/clock.c ****     control.hour.font_type.size = 4;
 163:source\asw/clock.c ****     control.minute.font_type.size = 4;
 164:source\asw/clock.c ****     
 165:source\asw/clock.c ****     control.hour.font_type.x_pos = 10;
 166:source\asw/clock.c ****     control.hour.font_type.y_pos = 60;
 167:source\asw/clock.c ****     
 168:source\asw/clock.c ****     control.minute.font_type.x_pos = 75;
 169:source\asw/clock.c ****     control.minute.font_type.y_pos = 60;
 170:source\asw/clock.c ****     
 171:source\asw/clock.c ****     control.hour.font_type.bg_colour = BLACK;
 172:source\asw/clock.c ****     control.minute.font_type.bg_colour = BLACK;
 173:source\asw/clock.c ****     
 174:source\asw/clock.c ****     control.hour.font_type.widget = WHITE;
 175:source\asw/clock.c ****     control.minute.font_type.widget = WHITE;
 176:source\asw/clock.c ****     
 177:source\asw/clock.c ****     containerFSM.m_state = CLOCK_C_ISDISPLAYING;
 178:source\asw/clock.c ****     STATE_initState(&containerFSM);
 179:source\asw/clock.c ****     
 180:source\asw/clock.c ****     STATE_initState(&containerFSM);
 181:source\asw/clock.c ****     RTE_SC_CONTROL_set(&SO_CONTROL_signal, control);
 182:source\asw/clock.c **** }
 183:source\asw/clock.c **** void ProcessEvent(STATE_event_t event)
 184:source\asw/clock.c **** {
 185:source\asw/clock.c ****     SC_INPUT_data_t input;
 186:source\asw/clock.c ****     
 187:source\asw/clock.c ****     STATE_event_t local_event = event;
 188:source\asw/clock.c ****     STATE_processEvent(&containerFSM,local_event);
 189:source\asw/clock.c ****     
 190:source\asw/clock.c ****     input = RTE_SC_INPUT_get(&SO_INPUT_signal);
 191:source\asw/clock.c ****     input.m_clock_data.m_containerState = containerFSM.m_state;
 192:source\asw/clock.c ****     
 193:source\asw/clock.c ****     /*char buffer[100];
 194:source\asw/clock.c ****     UART_LOG_PutString("ProcessEvent: container state post process: ");
 195:source\asw/clock.c ****     itoa(containerFSM.m_state, buffer, 10);
 196:source\asw/clock.c ****     UART_LOG_PutString(buffer);
 197:source\asw/clock.c ****     UART_LOG_PutString("\n");
 198:source\asw/clock.c ****     
 199:source\asw/clock.c ****     UART_LOG_PutString("ProcessEvent: hr state: ");
 200:source\asw/clock.c ****     itoa(containerFSM.m_state, buffer, 10);
 201:source\asw/clock.c ****     UART_LOG_PutString(buffer);
 202:source\asw/clock.c ****     UART_LOG_PutString("\n");
ARM GAS  C:\Users\saman\AppData\Local\Temp\ccOAgYwr.s 			page 5


 203:source\asw/clock.c ****     
 204:source\asw/clock.c ****     UART_LOG_PutString("ProcessEvent: min state: ");
 205:source\asw/clock.c ****     itoa(containerFSM.m_state, buffer, 10);
 206:source\asw/clock.c ****     UART_LOG_PutString(buffer);
 207:source\asw/clock.c ****     UART_LOG_PutString("\n");*/
 208:source\asw/clock.c **** }
 209:source\asw/clock.c **** 
 210:source\asw/clock.c **** void CLOCK__dispatch_Wrapper(EVENT_t ev, CLOCK_Active_Widget_t widget)
 211:source\asw/clock.c **** {
 212:source\asw/clock.c ****     SC_INPUT_data_t input = RTE_SC_INPUT_get(&SO_INPUT_signal);
 213:source\asw/clock.c ****     
 214:source\asw/clock.c ****     //UART_LOG_PutString("CLOCK__dispatch_Wrapper active widget: ");
 215:source\asw/clock.c ****     /*
 216:source\asw/clock.c ****     itoa(input.m_ev, buffer, 10);
 217:source\asw/clock.c ****     UART_LOG_PutString(buffer);
 218:source\asw/clock.c ****     UART_LOG_PutString("\n");
 219:source\asw/clock.c ****     */
 220:source\asw/clock.c ****     
 221:source\asw/clock.c ****     //to clear prev event
 222:source\asw/clock.c ****     input.m_ev = EV_NONE;
 223:source\asw/clock.c ****     //UART_LOG_PutString("CLOCK__dispatch_Wrapper active widget: ");
 224:source\asw/clock.c ****     input.m_clock_data.m_activeWidget = widget;
 225:source\asw/clock.c ****     
 226:source\asw/clock.c ****     RTE_SC_INPUT_set(&SO_INPUT_signal, input);
 227:source\asw/clock.c ****     
 228:source\asw/clock.c ****     /*
 229:source\asw/clock.c ****     itoa(input.m_clock_data.m_activeWidget, buffer, 10);
 230:source\asw/clock.c ****     UART_LOG_PutString(buffer);
 231:source\asw/clock.c ****     UART_LOG_PutString("\n");
 232:source\asw/clock.c ****     */
 233:source\asw/clock.c ****     if(widget == CLOCK_HOURWIDGET)
 234:source\asw/clock.c ****     {
 235:source\asw/clock.c ****         CLOCK_state_t localstate = input.m_clock_data.m_hours.m_widgetState;
 236:source\asw/clock.c ****         
 237:source\asw/clock.c ****         /*UART_LOG_PutString("Hour widget state from signal: ");
 238:source\asw/clock.c ****        itoa(localstate, buffer, 10);
 239:source\asw/clock.c ****         UART_LOG_PutString(buffer);
 240:source\asw/clock.c ****         UART_LOG_PutString("\n");
 241:source\asw/clock.c ****         UART_LOG_PutString("Hour widget state from state machine obj: ");
 242:source\asw/clock.c ****        itoa(widgetFSM.m_state, buffer, 10);
 243:source\asw/clock.c ****         UART_LOG_PutString(buffer);
 244:source\asw/clock.c ****         UART_LOG_PutString("\n");*/
 245:source\asw/clock.c ****         
 246:source\asw/clock.c ****         widgetFSM.m_state = localstate;
 247:source\asw/clock.c ****         STATE_processEvent(&widgetFSM,ev);
 248:source\asw/clock.c ****         
 249:source\asw/clock.c ****         /*
 250:source\asw/clock.c ****         UART_LOG_PutString("after process event state: ");
 251:source\asw/clock.c ****         itoa(widgetFSM.m_state, buffer, 10);
 252:source\asw/clock.c ****         UART_LOG_PutString(buffer);
 253:source\asw/clock.c ****         UART_LOG_PutString("\n");*/
 254:source\asw/clock.c ****         
 255:source\asw/clock.c ****         input = RTE_SC_INPUT_get(&SO_INPUT_signal);
 256:source\asw/clock.c ****         input.m_clock_data.m_hours.m_widgetState = widgetFSM.m_state;
 257:source\asw/clock.c ****         RTE_SC_INPUT_set(&SO_INPUT_signal, input);
 258:source\asw/clock.c ****     }
 259:source\asw/clock.c ****     else if(widget == CLOCK_MINWIDGET)
ARM GAS  C:\Users\saman\AppData\Local\Temp\ccOAgYwr.s 			page 6


 260:source\asw/clock.c ****     {
 261:source\asw/clock.c ****         CLOCK_state_t localstate = input.m_clock_data.m_minutes.m_widgetState;
 262:source\asw/clock.c ****         
 263:source\asw/clock.c ****         /*UART_LOG_PutString("Minute widget state: ");
 264:source\asw/clock.c ****         itoa(localstate, buffer, 10);
 265:source\asw/clock.c ****         UART_LOG_PutString(buffer);
 266:source\asw/clock.c ****         UART_LOG_PutString("\n");*/
 267:source\asw/clock.c ****         
 268:source\asw/clock.c ****         widgetFSM.m_state = localstate;
 269:source\asw/clock.c ****         STATE_processEvent(&widgetFSM,ev);
 270:source\asw/clock.c ****         /*UART_LOG_PutString("Minute widget state: after process ");
 271:source\asw/clock.c ****         itoa(widgetFSM.m_state, buffer, 10);
 272:source\asw/clock.c ****         UART_LOG_PutString(buffer);
 273:source\asw/clock.c ****         UART_LOG_PutString("\n");*/
 274:source\asw/clock.c ****         input = RTE_SC_INPUT_get(&SO_INPUT_signal);
 275:source\asw/clock.c ****         
 276:source\asw/clock.c ****         input.m_clock_data.m_minutes.m_widgetState = widgetFSM.m_state;
 277:source\asw/clock.c ****         
 278:source\asw/clock.c ****         RTE_SC_INPUT_set(&SO_INPUT_signal, input);
 279:source\asw/clock.c ****     }
 280:source\asw/clock.c **** }
 281:source\asw/clock.c **** 
 282:source\asw/clock.c **** void CLOCK__dispatch_KL_Hours()
 283:source\asw/clock.c **** {
 284:source\asw/clock.c ****     //UART_LOG_PutString("CLOCK__dispatch_KL_Hours\n");
 285:source\asw/clock.c ****     SC_INPUT_data_t input = RTE_SC_INPUT_get(&SO_INPUT_signal);
 286:source\asw/clock.c ****     input.m_clock_data.m_hours.m_widgetState = CLOCK_W_ISDISPLAYING;
 287:source\asw/clock.c ****     RTE_SC_INPUT_set(&SO_INPUT_signal, input);
 288:source\asw/clock.c ****     CLOCK__dispatch_Wrapper(EV_KEYLEFT, CLOCK_HOURWIDGET);
 289:source\asw/clock.c **** }
 290:source\asw/clock.c **** 
 291:source\asw/clock.c **** void CLOCK__increment1Minute()
 292:source\asw/clock.c **** {
 293:source\asw/clock.c ****     CLOCK__updateTime();
 294:source\asw/clock.c **** }
 295:source\asw/clock.c **** 
 296:source\asw/clock.c **** void CLOCK__dispatch_KL_HoursMin()
 297:source\asw/clock.c **** {
 298:source\asw/clock.c ****     //UART_LOG_PutString("CLOCK__dispatch_KL_HoursMin\n");
 299:source\asw/clock.c ****     SC_INPUT_data_t input = RTE_SC_INPUT_get(&SO_INPUT_signal);
 300:source\asw/clock.c ****     input.m_clock_data.m_hours.m_widgetState = CLOCK_W_ISEDITING;
 301:source\asw/clock.c ****     input.m_clock_data.m_minutes.m_widgetState = CLOCK_W_ISDISPLAYING;
 302:source\asw/clock.c ****     RTE_SC_INPUT_set(&SO_INPUT_signal, input);
 303:source\asw/clock.c ****     
 304:source\asw/clock.c ****     CLOCK__dispatch_Wrapper(EV_KEYLEFT, CLOCK_HOURWIDGET);
 305:source\asw/clock.c ****     CLOCK__dispatch_Wrapper(EV_KEYLEFT, CLOCK_MINWIDGET);
 306:source\asw/clock.c **** }
 307:source\asw/clock.c **** 
 308:source\asw/clock.c **** void CLOCK__dispatch_KR_Hours()
 309:source\asw/clock.c **** {
 310:source\asw/clock.c ****     //UART_LOG_PutString("CLOCK__dispatch_KR_Hours\n");
 311:source\asw/clock.c ****     CLOCK__dispatch_Wrapper(EV_KEYRIGHT, CLOCK_HOURWIDGET);
 312:source\asw/clock.c **** }
 313:source\asw/clock.c **** 
 314:source\asw/clock.c **** void CLOCK__dispatch_KRLP_Hours()
 315:source\asw/clock.c **** {
 316:source\asw/clock.c ****     //UART_LOG_PutString("CLOCK__dispatch_KRLP_Hours\n");
ARM GAS  C:\Users\saman\AppData\Local\Temp\ccOAgYwr.s 			page 7


 317:source\asw/clock.c ****     SC_INPUT_data_t input = RTE_SC_INPUT_get(&SO_INPUT_signal);
 318:source\asw/clock.c ****     input.m_clock_data.m_hours.m_widgetState = CLOCK_W_ISEDITING;
 319:source\asw/clock.c ****     RTE_SC_INPUT_set(&SO_INPUT_signal, input);
 320:source\asw/clock.c ****     CLOCK__dispatch_Wrapper(EV_KEYRIGHTLONGPRESS, CLOCK_HOURWIDGET);
 321:source\asw/clock.c **** }
 322:source\asw/clock.c **** 
 323:source\asw/clock.c **** void CLOCK__dispatch_250MS_Hours()
 324:source\asw/clock.c **** {
 325:source\asw/clock.c ****     //UART_LOG_PutString("CLOCK__dispatch_250MS_Hours\n");
 326:source\asw/clock.c ****     CLOCK__dispatch_Wrapper(EV_250MS, CLOCK_HOURWIDGET);
 327:source\asw/clock.c **** }
 328:source\asw/clock.c **** 
 329:source\asw/clock.c **** void CLOCK__dispatch_KL_Min()
 330:source\asw/clock.c **** {
 331:source\asw/clock.c ****     //UART_LOG_PutString("CLOCK__dispatch_KL_Min\n");
 332:source\asw/clock.c ****     CLOCK__dispatch_Wrapper(EV_KEYLEFT, CLOCK_MINWIDGET);
 333:source\asw/clock.c **** }
 334:source\asw/clock.c **** 
 335:source\asw/clock.c **** void CLOCK__dispatch_KR_Min()
 336:source\asw/clock.c **** {
 337:source\asw/clock.c ****     //UART_LOG_PutString("CLOCK__dispatch_KR_Min\n");
 338:source\asw/clock.c ****     CLOCK__dispatch_Wrapper(EV_KEYRIGHT, CLOCK_MINWIDGET);
 339:source\asw/clock.c **** }
 340:source\asw/clock.c **** 
 341:source\asw/clock.c **** void CLOCK__dispatch_KRLP_Min()
 342:source\asw/clock.c **** {
 343:source\asw/clock.c ****     //UART_LOG_PutString("CLOCK__dispatch_KRLP_Min\n");
 344:source\asw/clock.c ****     SC_INPUT_data_t input = RTE_SC_INPUT_get(&SO_INPUT_signal);
 345:source\asw/clock.c ****     input.m_clock_data.m_minutes.m_widgetState = CLOCK_W_ISEDITING;
 346:source\asw/clock.c ****     RTE_SC_INPUT_set(&SO_INPUT_signal, input);
 347:source\asw/clock.c ****     CLOCK__dispatch_Wrapper(EV_KEYRIGHTLONGPRESS, CLOCK_MINWIDGET);
 348:source\asw/clock.c **** }
 349:source\asw/clock.c **** 
 350:source\asw/clock.c **** void CLOCK__dispatch_250MS_Min()
 351:source\asw/clock.c **** {
 352:source\asw/clock.c ****     //UART_LOG_PutString("CLOCK__dispatch_250MS_Min\n");
 353:source\asw/clock.c ****     CLOCK__dispatch_Wrapper(EV_250MS, CLOCK_MINWIDGET);
 354:source\asw/clock.c **** }
 355:source\asw/clock.c **** 
 356:source\asw/clock.c **** void CLOCK__incrementWidget()
 357:source\asw/clock.c **** {
 358:source\asw/clock.c ****     SC_INPUT_data_t input = RTE_SC_INPUT_get(&SO_INPUT_signal);
 359:source\asw/clock.c ****     if(input.m_clock_data.m_activeWidget == CLOCK_HOURWIDGET)
 360:source\asw/clock.c ****     {
 361:source\asw/clock.c ****         //UART_LOG_PutString("CLOCK__incrementWidget hr\n");
 362:source\asw/clock.c ****         CLOCK__incrementHourandDisplay();
 363:source\asw/clock.c ****     }
 364:source\asw/clock.c ****     else if(input.m_clock_data.m_activeWidget == CLOCK_MINWIDGET)
 365:source\asw/clock.c ****     {
 366:source\asw/clock.c ****         //UART_LOG_PutString("CLOCK__incrementWidget min\n");
 367:source\asw/clock.c ****         CLOCK__incrementMinuteandDisplay();
 368:source\asw/clock.c ****     }
 369:source\asw/clock.c **** }
 370:source\asw/clock.c **** 
 371:source\asw/clock.c **** void CLOCK__setDisplayFonts()
 372:source\asw/clock.c **** {
  27              		.loc 1 372 0
ARM GAS  C:\Users\saman\AppData\Local\Temp\ccOAgYwr.s 			page 8


  28              		.cfi_startproc
  29              		@ args = 0, pretend = 0, frame = 48
  30              		@ frame_needed = 0, uses_anonymous_args = 0
  31 0000 F0B5     		push	{r4, r5, r6, r7, lr}
  32              		.cfi_def_cfa_offset 20
  33              		.cfi_offset 4, -20
  34              		.cfi_offset 5, -16
  35              		.cfi_offset 6, -12
  36              		.cfi_offset 7, -8
  37              		.cfi_offset 14, -4
  38 0002 8DB0     		sub	sp, sp, #52
  39              		.cfi_def_cfa_offset 72
  40              	.LVL0:
  41              	.LBB80:
  42              	.LBB81:
  43              		.file 2 ".\\source\\rte/sc_control.h"
   1:.\source\rte/sc_control.h **** 
   2:.\source\rte/sc_control.h **** 
   3:.\source\rte/sc_control.h **** /**
   4:.\source\rte/sc_control.h ****  *  file    SC_CONTROL_signal.h
   5:.\source\rte/sc_control.h ****  *
   6:.\source\rte/sc_control.h ****  *  brief   signal base class for signal sc_control
   7:.\source\rte/sc_control.h ****  *
   8:.\source\rte/sc_control.h ****  *  author  Autogenerated, Peter Fromm       <peter.fromm@h-da.de>
   9:.\source\rte/sc_control.h ****  *
  10:.\source\rte/sc_control.h ****  * description: Signalclass
  11:.\source\rte/sc_control.h ****  * name: sc_control
  12:.\source\rte/sc_control.h ****  * shortname: control
  13:.\source\rte/sc_control.h ****  *
  14:.\source\rte/sc_control.h ****  */
  15:.\source\rte/sc_control.h **** 
  16:.\source\rte/sc_control.h **** 
  17:.\source\rte/sc_control.h **** 
  18:.\source\rte/sc_control.h **** #ifndef SC_CONTROL_SIGNAL_H_INCLUDED
  19:.\source\rte/sc_control.h **** #define SC_CONTROL_SIGNAL_H_INCLUDED
  20:.\source\rte/sc_control.h **** 
  21:.\source\rte/sc_control.h **** /*================================================[ public includes  ]=============================
  22:.\source\rte/sc_control.h **** #include "global.h"
  23:.\source\rte/sc_control.h **** #include "project.h"
  24:.\source\rte/sc_control.h **** #include "rte.h"
  25:.\source\rte/sc_control.h **** #include "rte_types.h"
  26:.\source\rte/sc_control.h **** 
  27:.\source\rte/sc_control.h **** #include "sc_control_type.h"
  28:.\source\rte/sc_control.h **** 
  29:.\source\rte/sc_control.h **** 
  30:.\source\rte/sc_control.h **** /**************************************************************************************************
  31:.\source\rte/sc_control.h **** /* The driver API block																						*/
  32:.\source\rte/sc_control.h **** /**************************************************************************************************
  33:.\source\rte/sc_control.h ****                                                                                                    
  34:.\source\rte/sc_control.h **** /**
  35:.\source\rte/sc_control.h ****  *  Definition of function types for driver interfaces.
  36:.\source\rte/sc_control.h ****  *  I-Port
  37:.\source\rte/sc_control.h ****  */
  38:.\source\rte/sc_control.h **** typedef RC_t (*SC_CONTROL_driverIn_t)(SC_CONTROL_data_t * const);
  39:.\source\rte/sc_control.h **** 
  40:.\source\rte/sc_control.h **** /**
  41:.\source\rte/sc_control.h ****  *  Definition of function types for driver interfaces.
ARM GAS  C:\Users\saman\AppData\Local\Temp\ccOAgYwr.s 			page 9


  42:.\source\rte/sc_control.h ****  *  O-Port
  43:.\source\rte/sc_control.h ****  */
  44:.\source\rte/sc_control.h **** typedef RC_t (*SC_CONTROL_driverOut_t)( const SC_CONTROL_data_t * const);
  45:.\source\rte/sc_control.h **** 
  46:.\source\rte/sc_control.h **** 
  47:.\source\rte/sc_control.h **** /**************************************************************************************************
  48:.\source\rte/sc_control.h **** /* The signal configuration API block																				*/
  49:.\source\rte/sc_control.h **** /**************************************************************************************************
  50:.\source\rte/sc_control.h **** 
  51:.\source\rte/sc_control.h **** /**
  52:.\source\rte/sc_control.h ****  * Instances of the struct SC_CONTROL_cfg_t represent the signal object configuration.
  53:.\source\rte/sc_control.h ****  */
  54:.\source\rte/sc_control.h **** struct SC_CONTROL_cfg_s
  55:.\source\rte/sc_control.h **** {
  56:.\source\rte/sc_control.h ****     /**
  57:.\source\rte/sc_control.h ****      * Function pointer to the input driver
  58:.\source\rte/sc_control.h ****      */
  59:.\source\rte/sc_control.h ****     SC_CONTROL_driverIn_t const inDriver;
  60:.\source\rte/sc_control.h **** 
  61:.\source\rte/sc_control.h ****     /**
  62:.\source\rte/sc_control.h ****      * Function pointer to the output driver table
  63:.\source\rte/sc_control.h ****      */
  64:.\source\rte/sc_control.h ****    SC_CONTROL_driverOut_t const outDriver;
  65:.\source\rte/sc_control.h ****    
  66:.\source\rte/sc_control.h ****     /**
  67:.\source\rte/sc_control.h ****      * Event onUpdate
  68:.\source\rte/sc_control.h ****      */
  69:.\source\rte/sc_control.h ****     EventMaskType const evOnUpdate;
  70:.\source\rte/sc_control.h ****     
  71:.\source\rte/sc_control.h ****     
  72:.\source\rte/sc_control.h ****     /**
  73:.\source\rte/sc_control.h ****      * Event onError
  74:.\source\rte/sc_control.h ****      */
  75:.\source\rte/sc_control.h ****     EventMaskType const evOnError;
  76:.\source\rte/sc_control.h ****     
  77:.\source\rte/sc_control.h ****     /**
  78:.\source\rte/sc_control.h ****      * Task Count onUpdate
  79:.\source\rte/sc_control.h ****      */
  80:.\source\rte/sc_control.h ****     size_t const onUpdateTaskCount;
  81:.\source\rte/sc_control.h **** 
  82:.\source\rte/sc_control.h ****     /**
  83:.\source\rte/sc_control.h ****      * Task List onUpdate
  84:.\source\rte/sc_control.h ****      */
  85:.\source\rte/sc_control.h ****     TaskTypeArray* const onUpdateTasks;
  86:.\source\rte/sc_control.h ****     
  87:.\source\rte/sc_control.h ****     /**
  88:.\source\rte/sc_control.h ****      * Task Count onError
  89:.\source\rte/sc_control.h ****      */
  90:.\source\rte/sc_control.h ****     size_t const onErrorTaskCount;
  91:.\source\rte/sc_control.h **** 
  92:.\source\rte/sc_control.h ****     /**
  93:.\source\rte/sc_control.h ****      * Task List onError
  94:.\source\rte/sc_control.h ****      */
  95:.\source\rte/sc_control.h ****     TaskTypeArray* const onErrorTasks;
  96:.\source\rte/sc_control.h **** 	
  97:.\source\rte/sc_control.h **** 	
  98:.\source\rte/sc_control.h **** 	/**
ARM GAS  C:\Users\saman\AppData\Local\Temp\ccOAgYwr.s 			page 10


  99:.\source\rte/sc_control.h **** 	 * Ressourse is active? We need an additional boolean as a ressource value 0 is valid.
 100:.\source\rte/sc_control.h **** 	 */
 101:.\source\rte/sc_control.h **** 	 boolean_t const resourceActive;
 102:.\source\rte/sc_control.h **** 	 
 103:.\source\rte/sc_control.h **** 	/**
 104:.\source\rte/sc_control.h **** 	 * Ressourse 
 105:.\source\rte/sc_control.h **** 	 */
 106:.\source\rte/sc_control.h **** 	 ResourceType const resource;
 107:.\source\rte/sc_control.h **** 
 108:.\source\rte/sc_control.h **** };                                                                                                 
 109:.\source\rte/sc_control.h **** typedef const struct SC_CONTROL_cfg_s SC_CONTROL_cfg_t;
 110:.\source\rte/sc_control.h ****                               
 111:.\source\rte/sc_control.h **** /**************************************************************************************************
 112:.\source\rte/sc_control.h **** /* The data interface block																							*/
 113:.\source\rte/sc_control.h **** /**************************************************************************************************
 114:.\source\rte/sc_control.h **** 
 115:.\source\rte/sc_control.h ****                                                                                                    
 116:.\source\rte/sc_control.h **** 							  
 117:.\source\rte/sc_control.h **** /**
 118:.\source\rte/sc_control.h ****  * Instances of the struct SC_CONTROL_t represent the signal objects.
 119:.\source\rte/sc_control.h ****  * A signal object contains the current application value 'value' as well as relevant meta data.
 120:.\source\rte/sc_control.h ****  */
 121:.\source\rte/sc_control.h **** struct SC_CONTROL_s
 122:.\source\rte/sc_control.h **** {                                                                                                  
 123:.\source\rte/sc_control.h **** 
 124:.\source\rte/sc_control.h **** 	/**
 125:.\source\rte/sc_control.h **** 	 * Data buffer for the application value
 126:.\source\rte/sc_control.h **** 	 */
 127:.\source\rte/sc_control.h ****     SC_CONTROL_data_t value;
 128:.\source\rte/sc_control.h **** 
 129:.\source\rte/sc_control.h ****     /**
 130:.\source\rte/sc_control.h ****      * Current signal status
 131:.\source\rte/sc_control.h ****      */
 132:.\source\rte/sc_control.h ****     RTE_signalStatus_t status;
 133:.\source\rte/sc_control.h **** 
 134:.\source\rte/sc_control.h ****     /**
 135:.\source\rte/sc_control.h ****      * Current age of the signal (in calling cycles)
 136:.\source\rte/sc_control.h ****      */
 137:.\source\rte/sc_control.h ****     uint32_t age;
 138:.\source\rte/sc_control.h **** 
 139:.\source\rte/sc_control.h ****     /**
 140:.\source\rte/sc_control.h ****      * Pointer to the signal configuration
 141:.\source\rte/sc_control.h ****      */
 142:.\source\rte/sc_control.h **** 	const SC_CONTROL_cfg_t * const    pSigCfg;
 143:.\source\rte/sc_control.h **** 
 144:.\source\rte/sc_control.h **** };                                                                                                 
 145:.\source\rte/sc_control.h **** typedef struct SC_CONTROL_s SC_CONTROL_t;
 146:.\source\rte/sc_control.h **** 
 147:.\source\rte/sc_control.h **** /**************************************************************************************************
 148:.\source\rte/sc_control.h **** /* Signal initialisation   																							*/
 149:.\source\rte/sc_control.h **** /**************************************************************************************************
 150:.\source\rte/sc_control.h **** 
 151:.\source\rte/sc_control.h **** /**
 152:.\source\rte/sc_control.h ****  * Initializes a signal instance with a passed init value.
 153:.\source\rte/sc_control.h ****  * Depending on the configured conversion or scaling function the raw_value will be calculated.
 154:.\source\rte/sc_control.h ****  * Signal status will change from RTE_SIGNALSTATUS_STARTUP to RTE_SIGNALSTATUS_INITIALIZED.
 155:.\source\rte/sc_control.h ****  *
ARM GAS  C:\Users\saman\AppData\Local\Temp\ccOAgYwr.s 			page 11


 156:.\source\rte/sc_control.h ****  * @param  SC_CONTROL_t * const signal: Pointer to the signal object which will be initialised
 157:.\source\rte/sc_control.h ****  * @return RC_t: standard return code, currently only RC_SUCCESS
 158:.\source\rte/sc_control.h ****  *
 159:.\source\rte/sc_control.h ****  **/
 160:.\source\rte/sc_control.h **** inline RC_t RTE_SC_CONTROL_init( SC_CONTROL_t * const signal )
 161:.\source\rte/sc_control.h **** {                                                                                                  
 162:.\source\rte/sc_control.h **** 
 163:.\source\rte/sc_control.h ****    RC_t ret = RC_SUCCESS;
 164:.\source\rte/sc_control.h **** 
 165:.\source\rte/sc_control.h ****    //Set value and raw value
 166:.\source\rte/sc_control.h ****    signal->value  = SC_CONTROL_INIT_DATA;
 167:.\source\rte/sc_control.h ****    signal->age    = 0;
 168:.\source\rte/sc_control.h ****    signal->status = RTE_SIGNALSTATUS_INITIALIZED;
 169:.\source\rte/sc_control.h **** 
 170:.\source\rte/sc_control.h ****    return ret;
 171:.\source\rte/sc_control.h **** }
 172:.\source\rte/sc_control.h **** 
 173:.\source\rte/sc_control.h **** /**************************************************************************************************
 174:.\source\rte/sc_control.h **** /* Status and timeout control																						*/
 175:.\source\rte/sc_control.h **** /**************************************************************************************************
 176:.\source\rte/sc_control.h **** 
 177:.\source\rte/sc_control.h **** /**
 178:.\source\rte/sc_control.h ****  *  Returns the current signal status of the passed signal instance.
 179:.\source\rte/sc_control.h ****  *
 180:.\source\rte/sc_control.h ****  * @param  SC_CONTROL_t * const signal: Pointer to the signal object
 181:.\source\rte/sc_control.h ****  * @return  sig_status_t: The current signal status
 182:.\source\rte/sc_control.h ****  *
 183:.\source\rte/sc_control.h ****  **/
 184:.\source\rte/sc_control.h **** inline RTE_signalStatus_t RTE_SC_CONTROL_getStatus( const SC_CONTROL_t * const signal )
 185:.\source\rte/sc_control.h **** {
 186:.\source\rte/sc_control.h ****    return signal->status;
 187:.\source\rte/sc_control.h **** }
 188:.\source\rte/sc_control.h **** 
 189:.\source\rte/sc_control.h **** 
 190:.\source\rte/sc_control.h **** /**
 191:.\source\rte/sc_control.h ****  *  Sets a new signal status of the passed signal instance by passing the new status.
 192:.\source\rte/sc_control.h ****  *
 193:.\source\rte/sc_control.h ****  * @param  SC_CONTROL_t * const signal: Pointer to the signal object
 194:.\source\rte/sc_control.h ****  * @param  const sig_status_t status: New signal status
 195:.\source\rte/sc_control.h ****  * @return RC_t: standard return code, currently only RC_SUCCESS
 196:.\source\rte/sc_control.h ****  *
 197:.\source\rte/sc_control.h ****  */
 198:.\source\rte/sc_control.h **** inline RC_t RTE_SC_CONTROL_setStatus( SC_CONTROL_t * const signal, const RTE_signalStatus_t status 
 199:.\source\rte/sc_control.h **** {
 200:.\source\rte/sc_control.h ****    signal->status = status;
 201:.\source\rte/sc_control.h ****    size_t taskNum=0;
 202:.\source\rte/sc_control.h ****    
 203:.\source\rte/sc_control.h ****    //Fire error events in case of invalid state
 204:.\source\rte/sc_control.h ****    if (signal->status == RTE_SIGNALSTATUS_INVALID)
 205:.\source\rte/sc_control.h ****    {
 206:.\source\rte/sc_control.h **** 	    //Pointer to the Taskarray, containing the tasks receiving the onUpdate events
 207:.\source\rte/sc_control.h **** 		TaskTypeArray* pTaskArray = signal->pSigCfg->onErrorTasks;
 208:.\source\rte/sc_control.h **** 
 209:.\source\rte/sc_control.h **** 		if (0 != signal->pSigCfg->evOnError && NULL != pTaskArray){
 210:.\source\rte/sc_control.h **** 			for( taskNum=0 ; taskNum < signal->pSigCfg->onErrorTaskCount ;taskNum++){
 211:.\source\rte/sc_control.h **** 				TaskType task = (*pTaskArray)[taskNum];
 212:.\source\rte/sc_control.h **** 				SetEvent( task, signal->pSigCfg->evOnError);
ARM GAS  C:\Users\saman\AppData\Local\Temp\ccOAgYwr.s 			page 12


 213:.\source\rte/sc_control.h **** 			}
 214:.\source\rte/sc_control.h **** 		}
 215:.\source\rte/sc_control.h ****    }
 216:.\source\rte/sc_control.h ****    
 217:.\source\rte/sc_control.h ****    return RC_SUCCESS;
 218:.\source\rte/sc_control.h **** }
 219:.\source\rte/sc_control.h **** 
 220:.\source\rte/sc_control.h **** 
 221:.\source\rte/sc_control.h **** /**
 222:.\source\rte/sc_control.h ****  * Returns the count of refreshing trials (refresh, set or set_raw) that failed.
 223:.\source\rte/sc_control.h ****  * Prerquisite: The signal is refreshed cyclically
 224:.\source\rte/sc_control.h ****  *
 225:.\source\rte/sc_control.h ****  * @param  SC_CONTROL_t * const signal: Pointer to the signal object
 226:.\source\rte/sc_control.h ****  * @return uint32_t: Number of cycles since the signal has been updated for the last time
 227:.\source\rte/sc_control.h ****  */
 228:.\source\rte/sc_control.h **** inline uint32_t RTE_SC_CONTROL_getAge( const SC_CONTROL_t * const signal )
 229:.\source\rte/sc_control.h **** {
 230:.\source\rte/sc_control.h ****    return signal->age;
 231:.\source\rte/sc_control.h **** }
 232:.\source\rte/sc_control.h **** 
 233:.\source\rte/sc_control.h **** /**
 234:.\source\rte/sc_control.h ****  * Should be called by application or driver if no new value can be provided.
 235:.\source\rte/sc_control.h ****  * @param  SC_CONTROL_t * const signal: Pointer to the signal object
 236:.\source\rte/sc_control.h ****  * @param uint32_t increment: incrementvalue, typically in [ms]
 237:.\source\rte/sc_control.h ****  * @return void
 238:.\source\rte/sc_control.h ****  */
 239:.\source\rte/sc_control.h **** inline void RTE_SC_CONTROL_incAge(  SC_CONTROL_t * const signal , uint32_t increment)
 240:.\source\rte/sc_control.h **** {
 241:.\source\rte/sc_control.h **** 	   //Hack....
 242:.\source\rte/sc_control.h **** 	   if ( 0xFFFF0000 > (signal->age + increment) )
 243:.\source\rte/sc_control.h **** 	   {
 244:.\source\rte/sc_control.h **** 	      signal->age += increment;
 245:.\source\rte/sc_control.h **** 	   }
 246:.\source\rte/sc_control.h **** }
 247:.\source\rte/sc_control.h **** 
 248:.\source\rte/sc_control.h **** 
 249:.\source\rte/sc_control.h **** /**************************************************************************************************
 250:.\source\rte/sc_control.h **** /* Application Data read/write Interface																			*/
 251:.\source\rte/sc_control.h **** /**************************************************************************************************
 252:.\source\rte/sc_control.h **** 
 253:.\source\rte/sc_control.h **** /**
 254:.\source\rte/sc_control.h ****  * Returns the current application value as pointer to the signal payload.
 255:.\source\rte/sc_control.h ****  * Careful: This is not threadsafe!!!
 256:.\source\rte/sc_control.h ****  *
 257:.\source\rte/sc_control.h ****  * @param  SC_CONTROL_t * const signal: Pointer to the signal object
 258:.\source\rte/sc_control.h ****  * @return sc_control_data_t*: pointer to the current value of the application data buffer
 259:.\source\rte/sc_control.h ****  *
 260:.\source\rte/sc_control.h ****  **/
 261:.\source\rte/sc_control.h **** inline SC_CONTROL_data_t* RTE_SC_CONTROL_getPtr( SC_CONTROL_t * const signal )
 262:.\source\rte/sc_control.h **** {               
 263:.\source\rte/sc_control.h ****    //Todo: Critical region cannot be protected using return values																						
 264:.\source\rte/sc_control.h ****    return &(signal->value);                                                                        
 265:.\source\rte/sc_control.h **** }
 266:.\source\rte/sc_control.h **** 
 267:.\source\rte/sc_control.h **** /**
 268:.\source\rte/sc_control.h ****  * Returns the current application value of the passed signal instance.
 269:.\source\rte/sc_control.h ****  *
ARM GAS  C:\Users\saman\AppData\Local\Temp\ccOAgYwr.s 			page 13


 270:.\source\rte/sc_control.h ****  * @param  SC_CONTROL_t * const signal: Pointer to the signal object
 271:.\source\rte/sc_control.h ****  * @return sc_control_data_t: current value of the application data buffer
 272:.\source\rte/sc_control.h ****  *
 273:.\source\rte/sc_control.h ****  **/
 274:.\source\rte/sc_control.h **** inline SC_CONTROL_data_t RTE_SC_CONTROL_get( const SC_CONTROL_t * const signal )
 275:.\source\rte/sc_control.h **** {               
 276:.\source\rte/sc_control.h ****    //Todo: Critical region cannot be protected using return values																						
 277:.\source\rte/sc_control.h ****    return signal->value;                                                                           
  44              		.loc 2 277 0
  45 0004 204F     		ldr	r7, .L7
  46 0006 06AD     		add	r5, sp, #24
  47 0008 3C46     		mov	r4, r7
  48 000a 0FCC     		ldmia	r4!, {r0, r1, r2, r3}
  49 000c 0FC5     		stmia	r5!, {r0, r1, r2, r3}
  50 000e 94E80300 		ldmia	r4, {r0, r1}
  51 0012 85E80300 		stmia	r5, {r0, r1}
  52              	.LVL1:
  53              	.LBE81:
  54              	.LBE80:
 373:source\asw/clock.c ****     SC_CONTROL_data_t control = RTE_SC_CONTROL_get(&SO_CONTROL_signal);;
 374:source\asw/clock.c ****     control.hour.font_type.bg_colour = BLACK;
  55              		.loc 1 374 0
  56 0016 4FF0000E 		mov	lr, #0
  57 001a ADF81CE0 		strh	lr, [sp, #28]	@ movhi
 375:source\asw/clock.c ****     control.hour.font_type.widget = WHITE;
  58              		.loc 1 375 0
  59 001e 4FF6FF73 		movw	r3, #65535
  60 0022 ADF81E30 		strh	r3, [sp, #30]	@ movhi
 376:source\asw/clock.c ****     control.minute.font_type.bg_colour   = BLACK;
  61              		.loc 1 376 0
  62 0026 ADF828E0 		strh	lr, [sp, #40]	@ movhi
 377:source\asw/clock.c ****     control.minute.font_type.widget = WHITE;
  63              		.loc 1 377 0
  64 002a ADF82A30 		strh	r3, [sp, #42]	@ movhi
  65              	.LVL2:
  66 002e 6D46     		mov	r5, sp
  67 0030 06AE     		add	r6, sp, #24
  68 0032 0FCE     		ldmia	r6!, {r0, r1, r2, r3}
  69 0034 0FC5     		stmia	r5!, {r0, r1, r2, r3}
  70 0036 96E80300 		ldmia	r6, {r0, r1}
  71 003a 85E80300 		stmia	r5, {r0, r1}
  72              	.LVL3:
  73              	.LBB82:
  74              	.LBB83:
 278:.\source\rte/sc_control.h **** }                                                                                                  
 279:.\source\rte/sc_control.h ****                                                                                                    
 280:.\source\rte/sc_control.h **** /**
 281:.\source\rte/sc_control.h ****  * Returns the current application value of the passed signal instance threadsafe.
 282:.\source\rte/sc_control.h ****  *
 283:.\source\rte/sc_control.h ****  * @param  SC_CONTROL_t * const signal: Pointer to the signal object
 284:.\source\rte/sc_control.h ****  * @param  SC_CONTROL_data_t* data: Pointer to the return data Pointer to the signal object
 285:.\source\rte/sc_control.h ****  * @return RC_SUCCESS
 286:.\source\rte/sc_control.h ****  *
 287:.\source\rte/sc_control.h ****  **/
 288:.\source\rte/sc_control.h **** inline RC_t RTE_SC_CONTROL_getThreadSafe( const SC_CONTROL_t * const signal, SC_CONTROL_data_t * co
 289:.\source\rte/sc_control.h **** {    
 290:.\source\rte/sc_control.h ****    if (TRUE == signal->pSigCfg->resourceActive) GetResource(signal->pSigCfg->resource);
ARM GAS  C:\Users\saman\AppData\Local\Temp\ccOAgYwr.s 			page 14


 291:.\source\rte/sc_control.h ****    *data = signal->value;
 292:.\source\rte/sc_control.h ****    if (TRUE == signal->pSigCfg->resourceActive) ReleaseResource(signal->pSigCfg->resource);        
 293:.\source\rte/sc_control.h **** 
 294:.\source\rte/sc_control.h ****    return RC_SUCCESS;                                                                   
 295:.\source\rte/sc_control.h ****    
 296:.\source\rte/sc_control.h **** }                                                                                                  
 297:.\source\rte/sc_control.h ****                                                                                                    
 298:.\source\rte/sc_control.h **** /**
 299:.\source\rte/sc_control.h ****  * Sets a new application value to the passed signal instance by passing the new value.
 300:.\source\rte/sc_control.h ****  * The corresponding driver raw value will be calculated immediately by using the default conversio
 301:.\source\rte/sc_control.h ****  * signal specific scaling function.
 302:.\source\rte/sc_control.h ****  * The signal age will be set to 0 and the new status will be 'RTE_SIGNALSTATUS_VALID'.
 303:.\source\rte/sc_control.h ****  *
 304:.\source\rte/sc_control.h ****  * @param  SC_CONTROL_t * const signal: Pointer to the signal object
 305:.\source\rte/sc_control.h ****  * @param  sc_control_data_t const value: value for the application data buffer
 306:.\source\rte/sc_control.h ****  * @return RC_t: standard return code, currently only RC_SUCCESS
 307:.\source\rte/sc_control.h ****  *
 308:.\source\rte/sc_control.h ****  **/
 309:.\source\rte/sc_control.h **** inline RC_t RTE_SC_CONTROL_set(SC_CONTROL_t * const signal, const SC_CONTROL_data_t value  )
 310:.\source\rte/sc_control.h **** {
 311:.\source\rte/sc_control.h **** 
 312:.\source\rte/sc_control.h ****    RC_t ret = RC_SUCCESS;
 313:.\source\rte/sc_control.h ****    size_t taskNum=0;
 314:.\source\rte/sc_control.h **** 
 315:.\source\rte/sc_control.h **** 
 316:.\source\rte/sc_control.h ****    if (TRUE == signal->pSigCfg->resourceActive) GetResource(signal->pSigCfg->resource);
  75              		.loc 2 316 0
  76 003e D7F820C0 		ldr	ip, [r7, #32]
 317:.\source\rte/sc_control.h ****    signal->value  = value;
  77              		.loc 2 317 0
  78 0042 3E46     		mov	r6, r7
  79 0044 6D46     		mov	r5, sp
  80 0046 0FCD     		ldmia	r5!, {r0, r1, r2, r3}
  81 0048 0FC6     		stmia	r6!, {r0, r1, r2, r3}
  82 004a 95E80300 		ldmia	r5, {r0, r1}
  83 004e 84E80300 		stmia	r4, {r0, r1}
 318:.\source\rte/sc_control.h ****    signal->age    = 0;
  84              		.loc 2 318 0
  85 0052 C7F81CE0 		str	lr, [r7, #28]
 319:.\source\rte/sc_control.h ****    signal->status = RTE_SIGNALSTATUS_VALID;
  86              		.loc 2 319 0
  87 0056 0223     		movs	r3, #2
  88 0058 3B76     		strb	r3, [r7, #24]
 320:.\source\rte/sc_control.h ****    if (TRUE == signal->pSigCfg->resourceActive) ReleaseResource(signal->pSigCfg->resource);
 321:.\source\rte/sc_control.h **** 
 322:.\source\rte/sc_control.h ****    //Pointer to the Taskarray, containing the tasks receiving the onUpdate events
 323:.\source\rte/sc_control.h ****    TaskTypeArray* pTaskArray = signal->pSigCfg->onUpdateTasks;
  89              		.loc 2 323 0
  90 005a DCF81450 		ldr	r5, [ip, #20]
  91              	.LVL4:
 324:.\source\rte/sc_control.h **** 
 325:.\source\rte/sc_control.h ****    if (0 != signal->pSigCfg->evOnUpdate && NULL != pTaskArray){
  92              		.loc 2 325 0
  93 005e DCF80830 		ldr	r3, [ip, #8]
  94 0062 73B1     		cbz	r3, .L1
  95 0064 3DB9     		cbnz	r5, .L5
  96 0066 0CE0     		b	.L1
ARM GAS  C:\Users\saman\AppData\Local\Temp\ccOAgYwr.s 			page 15


  97              	.LVL5:
  98              	.L4:
  99              	.LBB84:
 326:.\source\rte/sc_control.h ****       for( taskNum=0 ; taskNum < signal->pSigCfg->onUpdateTaskCount ;taskNum++){
 327:.\source\rte/sc_control.h **** 		  
 328:.\source\rte/sc_control.h ****           TaskType task = (*pTaskArray)[taskNum];
 329:.\source\rte/sc_control.h **** 	      SetEvent( task, signal->pSigCfg->evOnUpdate);
 100              		.loc 2 329 0
 101 0068 9968     		ldr	r1, [r3, #8]
 102 006a 55F82400 		ldr	r0, [r5, r4, lsl #2]
 103 006e FFF7FEFF 		bl	EE_oo_SetEvent
 104              	.LVL6:
 105              	.LBE84:
 326:.\source\rte/sc_control.h ****       for( taskNum=0 ; taskNum < signal->pSigCfg->onUpdateTaskCount ;taskNum++){
 106              		.loc 2 326 0
 107 0072 0134     		adds	r4, r4, #1
 108              	.LVL7:
 109 0074 00E0     		b	.L3
 110              	.LVL8:
 111              	.L5:
 325:.\source\rte/sc_control.h ****       for( taskNum=0 ; taskNum < signal->pSigCfg->onUpdateTaskCount ;taskNum++){
 112              		.loc 2 325 0
 113 0076 0024     		movs	r4, #0
 114              	.LVL9:
 115              	.L3:
 326:.\source\rte/sc_control.h ****       for( taskNum=0 ; taskNum < signal->pSigCfg->onUpdateTaskCount ;taskNum++){
 116              		.loc 2 326 0
 117 0078 034B     		ldr	r3, .L7
 118 007a 1B6A     		ldr	r3, [r3, #32]
 119 007c 1A69     		ldr	r2, [r3, #16]
 120 007e 9442     		cmp	r4, r2
 121 0080 F2D3     		bcc	.L4
 122              	.LVL10:
 123              	.L1:
 124              	.LBE83:
 125              	.LBE82:
 378:source\asw/clock.c ****     RTE_SC_CONTROL_set(&SO_CONTROL_signal, control);
 379:source\asw/clock.c **** }
 126              		.loc 1 379 0
 127 0082 0DB0     		add	sp, sp, #52
 128              		.cfi_def_cfa_offset 20
 129              		@ sp needed
 130 0084 F0BD     		pop	{r4, r5, r6, r7, pc}
 131              	.LVL11:
 132              	.L8:
 133 0086 00BF     		.align	2
 134              	.L7:
 135 0088 00000000 		.word	SO_CONTROL_signal
 136              		.cfi_endproc
 137              	.LFE158:
 138              		.size	CLOCK__setDisplayFonts, .-CLOCK__setDisplayFonts
 139              		.section	.text.CLOCK__setEditFonts,"ax",%progbits
 140              		.align	2
 141              		.thumb
 142              		.thumb_func
 143              		.type	CLOCK__setEditFonts, %function
 144              	CLOCK__setEditFonts:
ARM GAS  C:\Users\saman\AppData\Local\Temp\ccOAgYwr.s 			page 16


 145              	.LFB159:
 380:source\asw/clock.c **** 
 381:source\asw/clock.c **** void CLOCK__setEditFonts()
 382:source\asw/clock.c **** {
 146              		.loc 1 382 0
 147              		.cfi_startproc
 148              		@ args = 0, pretend = 0, frame = 120
 149              		@ frame_needed = 0, uses_anonymous_args = 0
 150 0000 F0B5     		push	{r4, r5, r6, r7, lr}
 151              		.cfi_def_cfa_offset 20
 152              		.cfi_offset 4, -20
 153              		.cfi_offset 5, -16
 154              		.cfi_offset 6, -12
 155              		.cfi_offset 7, -8
 156              		.cfi_offset 14, -4
 157 0002 9FB0     		sub	sp, sp, #124
 158              		.cfi_def_cfa_offset 144
 159              	.LVL12:
 160              	.LBB85:
 161              	.LBB86:
 162              		.file 3 ".\\source\\rte/sc_input.h"
   1:.\source\rte/sc_input.h **** 
   2:.\source\rte/sc_input.h **** 
   3:.\source\rte/sc_input.h **** /**
   4:.\source\rte/sc_input.h ****  *  file    SC_INPUT_signal.h
   5:.\source\rte/sc_input.h ****  *
   6:.\source\rte/sc_input.h ****  *  brief   signal base class for signal sc_input
   7:.\source\rte/sc_input.h ****  *
   8:.\source\rte/sc_input.h ****  *  author  Autogenerated, Peter Fromm       <peter.fromm@h-da.de>
   9:.\source\rte/sc_input.h ****  *
  10:.\source\rte/sc_input.h ****  * description: Signalclass
  11:.\source\rte/sc_input.h ****  * name: sc_input
  12:.\source\rte/sc_input.h ****  * shortname: input
  13:.\source\rte/sc_input.h ****  *
  14:.\source\rte/sc_input.h ****  */
  15:.\source\rte/sc_input.h **** 
  16:.\source\rte/sc_input.h **** 
  17:.\source\rte/sc_input.h **** 
  18:.\source\rte/sc_input.h **** #ifndef SC_INPUT_SIGNAL_H_INCLUDED
  19:.\source\rte/sc_input.h **** #define SC_INPUT_SIGNAL_H_INCLUDED
  20:.\source\rte/sc_input.h **** 
  21:.\source\rte/sc_input.h **** /*================================================[ public includes  ]=============================
  22:.\source\rte/sc_input.h **** #include "global.h"
  23:.\source\rte/sc_input.h **** #include "project.h"
  24:.\source\rte/sc_input.h **** #include "rte.h"
  25:.\source\rte/sc_input.h **** #include "rte_types.h"
  26:.\source\rte/sc_input.h **** 
  27:.\source\rte/sc_input.h **** #include "sc_input_type.h"
  28:.\source\rte/sc_input.h **** 
  29:.\source\rte/sc_input.h **** 
  30:.\source\rte/sc_input.h **** /**************************************************************************************************
  31:.\source\rte/sc_input.h **** /* The driver API block																						*/
  32:.\source\rte/sc_input.h **** /**************************************************************************************************
  33:.\source\rte/sc_input.h ****                                                                                                    
  34:.\source\rte/sc_input.h **** /**
  35:.\source\rte/sc_input.h ****  *  Definition of function types for driver interfaces.
  36:.\source\rte/sc_input.h ****  *  I-Port
ARM GAS  C:\Users\saman\AppData\Local\Temp\ccOAgYwr.s 			page 17


  37:.\source\rte/sc_input.h ****  */
  38:.\source\rte/sc_input.h **** typedef RC_t (*SC_INPUT_driverIn_t)(SC_INPUT_data_t * const);
  39:.\source\rte/sc_input.h **** 
  40:.\source\rte/sc_input.h **** /**
  41:.\source\rte/sc_input.h ****  *  Definition of function types for driver interfaces.
  42:.\source\rte/sc_input.h ****  *  O-Port
  43:.\source\rte/sc_input.h ****  */
  44:.\source\rte/sc_input.h **** typedef RC_t (*SC_INPUT_driverOut_t)( const SC_INPUT_data_t * const);
  45:.\source\rte/sc_input.h **** 
  46:.\source\rte/sc_input.h **** 
  47:.\source\rte/sc_input.h **** /**************************************************************************************************
  48:.\source\rte/sc_input.h **** /* The signal configuration API block																				*/
  49:.\source\rte/sc_input.h **** /**************************************************************************************************
  50:.\source\rte/sc_input.h **** 
  51:.\source\rte/sc_input.h **** /**
  52:.\source\rte/sc_input.h ****  * Instances of the struct SC_INPUT_cfg_t represent the signal object configuration.
  53:.\source\rte/sc_input.h ****  */
  54:.\source\rte/sc_input.h **** struct SC_INPUT_cfg_s
  55:.\source\rte/sc_input.h **** {
  56:.\source\rte/sc_input.h ****     /**
  57:.\source\rte/sc_input.h ****      * Function pointer to the input driver
  58:.\source\rte/sc_input.h ****      */
  59:.\source\rte/sc_input.h ****     SC_INPUT_driverIn_t const inDriver;
  60:.\source\rte/sc_input.h **** 
  61:.\source\rte/sc_input.h ****     /**
  62:.\source\rte/sc_input.h ****      * Function pointer to the output driver table
  63:.\source\rte/sc_input.h ****      */
  64:.\source\rte/sc_input.h ****    SC_INPUT_driverOut_t const outDriver;
  65:.\source\rte/sc_input.h ****    
  66:.\source\rte/sc_input.h ****     /**
  67:.\source\rte/sc_input.h ****      * Event onUpdate
  68:.\source\rte/sc_input.h ****      */
  69:.\source\rte/sc_input.h ****     EventMaskType const evOnUpdate;
  70:.\source\rte/sc_input.h ****     
  71:.\source\rte/sc_input.h ****     
  72:.\source\rte/sc_input.h ****     /**
  73:.\source\rte/sc_input.h ****      * Event onError
  74:.\source\rte/sc_input.h ****      */
  75:.\source\rte/sc_input.h ****     EventMaskType const evOnError;
  76:.\source\rte/sc_input.h ****     
  77:.\source\rte/sc_input.h ****     /**
  78:.\source\rte/sc_input.h ****      * Task Count onUpdate
  79:.\source\rte/sc_input.h ****      */
  80:.\source\rte/sc_input.h ****     size_t const onUpdateTaskCount;
  81:.\source\rte/sc_input.h **** 
  82:.\source\rte/sc_input.h ****     /**
  83:.\source\rte/sc_input.h ****      * Task List onUpdate
  84:.\source\rte/sc_input.h ****      */
  85:.\source\rte/sc_input.h ****     TaskTypeArray* const onUpdateTasks;
  86:.\source\rte/sc_input.h ****     
  87:.\source\rte/sc_input.h ****     /**
  88:.\source\rte/sc_input.h ****      * Task Count onError
  89:.\source\rte/sc_input.h ****      */
  90:.\source\rte/sc_input.h ****     size_t const onErrorTaskCount;
  91:.\source\rte/sc_input.h **** 
  92:.\source\rte/sc_input.h ****     /**
  93:.\source\rte/sc_input.h ****      * Task List onError
ARM GAS  C:\Users\saman\AppData\Local\Temp\ccOAgYwr.s 			page 18


  94:.\source\rte/sc_input.h ****      */
  95:.\source\rte/sc_input.h ****     TaskTypeArray* const onErrorTasks;
  96:.\source\rte/sc_input.h **** 	
  97:.\source\rte/sc_input.h **** 	
  98:.\source\rte/sc_input.h **** 	/**
  99:.\source\rte/sc_input.h **** 	 * Ressourse is active? We need an additional boolean as a ressource value 0 is valid.
 100:.\source\rte/sc_input.h **** 	 */
 101:.\source\rte/sc_input.h **** 	 boolean_t const resourceActive;
 102:.\source\rte/sc_input.h **** 	 
 103:.\source\rte/sc_input.h **** 	/**
 104:.\source\rte/sc_input.h **** 	 * Ressourse 
 105:.\source\rte/sc_input.h **** 	 */
 106:.\source\rte/sc_input.h **** 	 ResourceType const resource;
 107:.\source\rte/sc_input.h **** 
 108:.\source\rte/sc_input.h **** };                                                                                                 
 109:.\source\rte/sc_input.h **** typedef const struct SC_INPUT_cfg_s SC_INPUT_cfg_t;
 110:.\source\rte/sc_input.h ****                               
 111:.\source\rte/sc_input.h **** /**************************************************************************************************
 112:.\source\rte/sc_input.h **** /* The data interface block																							*/
 113:.\source\rte/sc_input.h **** /**************************************************************************************************
 114:.\source\rte/sc_input.h **** 
 115:.\source\rte/sc_input.h ****                                                                                                    
 116:.\source\rte/sc_input.h **** 							  
 117:.\source\rte/sc_input.h **** /**
 118:.\source\rte/sc_input.h ****  * Instances of the struct SC_INPUT_t represent the signal objects.
 119:.\source\rte/sc_input.h ****  * A signal object contains the current application value 'value' as well as relevant meta data.
 120:.\source\rte/sc_input.h ****  */
 121:.\source\rte/sc_input.h **** struct SC_INPUT_s
 122:.\source\rte/sc_input.h **** {                                                                                                  
 123:.\source\rte/sc_input.h **** 
 124:.\source\rte/sc_input.h **** 	/**
 125:.\source\rte/sc_input.h **** 	 * Data buffer for the application value
 126:.\source\rte/sc_input.h **** 	 */
 127:.\source\rte/sc_input.h ****     SC_INPUT_data_t value;
 128:.\source\rte/sc_input.h **** 
 129:.\source\rte/sc_input.h ****     /**
 130:.\source\rte/sc_input.h ****      * Current signal status
 131:.\source\rte/sc_input.h ****      */
 132:.\source\rte/sc_input.h ****     RTE_signalStatus_t status;
 133:.\source\rte/sc_input.h **** 
 134:.\source\rte/sc_input.h ****     /**
 135:.\source\rte/sc_input.h ****      * Current age of the signal (in calling cycles)
 136:.\source\rte/sc_input.h ****      */
 137:.\source\rte/sc_input.h ****     uint32_t age;
 138:.\source\rte/sc_input.h **** 
 139:.\source\rte/sc_input.h ****     /**
 140:.\source\rte/sc_input.h ****      * Pointer to the signal configuration
 141:.\source\rte/sc_input.h ****      */
 142:.\source\rte/sc_input.h **** 	const SC_INPUT_cfg_t * const    pSigCfg;
 143:.\source\rte/sc_input.h **** 
 144:.\source\rte/sc_input.h **** };                                                                                                 
 145:.\source\rte/sc_input.h **** typedef struct SC_INPUT_s SC_INPUT_t;
 146:.\source\rte/sc_input.h **** 
 147:.\source\rte/sc_input.h **** /**************************************************************************************************
 148:.\source\rte/sc_input.h **** /* Signal initialisation   																							*/
 149:.\source\rte/sc_input.h **** /**************************************************************************************************
 150:.\source\rte/sc_input.h **** 
ARM GAS  C:\Users\saman\AppData\Local\Temp\ccOAgYwr.s 			page 19


 151:.\source\rte/sc_input.h **** /**
 152:.\source\rte/sc_input.h ****  * Initializes a signal instance with a passed init value.
 153:.\source\rte/sc_input.h ****  * Depending on the configured conversion or scaling function the raw_value will be calculated.
 154:.\source\rte/sc_input.h ****  * Signal status will change from RTE_SIGNALSTATUS_STARTUP to RTE_SIGNALSTATUS_INITIALIZED.
 155:.\source\rte/sc_input.h ****  *
 156:.\source\rte/sc_input.h ****  * @param  SC_INPUT_t * const signal: Pointer to the signal object which will be initialised
 157:.\source\rte/sc_input.h ****  * @return RC_t: standard return code, currently only RC_SUCCESS
 158:.\source\rte/sc_input.h ****  *
 159:.\source\rte/sc_input.h ****  **/
 160:.\source\rte/sc_input.h **** inline RC_t RTE_SC_INPUT_init( SC_INPUT_t * const signal )
 161:.\source\rte/sc_input.h **** {                                                                                                  
 162:.\source\rte/sc_input.h **** 
 163:.\source\rte/sc_input.h ****    RC_t ret = RC_SUCCESS;
 164:.\source\rte/sc_input.h **** 
 165:.\source\rte/sc_input.h ****    //Set value and raw value
 166:.\source\rte/sc_input.h ****    signal->value  = SC_INPUT_INIT_DATA;
 167:.\source\rte/sc_input.h ****    signal->age    = 0;
 168:.\source\rte/sc_input.h ****    signal->status = RTE_SIGNALSTATUS_INITIALIZED;
 169:.\source\rte/sc_input.h **** 
 170:.\source\rte/sc_input.h ****    return ret;
 171:.\source\rte/sc_input.h **** }
 172:.\source\rte/sc_input.h **** 
 173:.\source\rte/sc_input.h **** /**************************************************************************************************
 174:.\source\rte/sc_input.h **** /* Status and timeout control																						*/
 175:.\source\rte/sc_input.h **** /**************************************************************************************************
 176:.\source\rte/sc_input.h **** 
 177:.\source\rte/sc_input.h **** /**
 178:.\source\rte/sc_input.h ****  *  Returns the current signal status of the passed signal instance.
 179:.\source\rte/sc_input.h ****  *
 180:.\source\rte/sc_input.h ****  * @param  SC_INPUT_t * const signal: Pointer to the signal object
 181:.\source\rte/sc_input.h ****  * @return  sig_status_t: The current signal status
 182:.\source\rte/sc_input.h ****  *
 183:.\source\rte/sc_input.h ****  **/
 184:.\source\rte/sc_input.h **** inline RTE_signalStatus_t RTE_SC_INPUT_getStatus( const SC_INPUT_t * const signal )
 185:.\source\rte/sc_input.h **** {
 186:.\source\rte/sc_input.h ****    return signal->status;
 187:.\source\rte/sc_input.h **** }
 188:.\source\rte/sc_input.h **** 
 189:.\source\rte/sc_input.h **** 
 190:.\source\rte/sc_input.h **** /**
 191:.\source\rte/sc_input.h ****  *  Sets a new signal status of the passed signal instance by passing the new status.
 192:.\source\rte/sc_input.h ****  *
 193:.\source\rte/sc_input.h ****  * @param  SC_INPUT_t * const signal: Pointer to the signal object
 194:.\source\rte/sc_input.h ****  * @param  const sig_status_t status: New signal status
 195:.\source\rte/sc_input.h ****  * @return RC_t: standard return code, currently only RC_SUCCESS
 196:.\source\rte/sc_input.h ****  *
 197:.\source\rte/sc_input.h ****  */
 198:.\source\rte/sc_input.h **** inline RC_t RTE_SC_INPUT_setStatus( SC_INPUT_t * const signal, const RTE_signalStatus_t status )
 199:.\source\rte/sc_input.h **** {
 200:.\source\rte/sc_input.h ****    signal->status = status;
 201:.\source\rte/sc_input.h ****    size_t taskNum=0;
 202:.\source\rte/sc_input.h ****    
 203:.\source\rte/sc_input.h ****    //Fire error events in case of invalid state
 204:.\source\rte/sc_input.h ****    if (signal->status == RTE_SIGNALSTATUS_INVALID)
 205:.\source\rte/sc_input.h ****    {
 206:.\source\rte/sc_input.h **** 	    //Pointer to the Taskarray, containing the tasks receiving the onUpdate events
 207:.\source\rte/sc_input.h **** 		TaskTypeArray* pTaskArray = signal->pSigCfg->onErrorTasks;
ARM GAS  C:\Users\saman\AppData\Local\Temp\ccOAgYwr.s 			page 20


 208:.\source\rte/sc_input.h **** 
 209:.\source\rte/sc_input.h **** 		if (0 != signal->pSigCfg->evOnError && NULL != pTaskArray){
 210:.\source\rte/sc_input.h **** 			for( taskNum=0 ; taskNum < signal->pSigCfg->onErrorTaskCount ;taskNum++){
 211:.\source\rte/sc_input.h **** 				TaskType task = (*pTaskArray)[taskNum];
 212:.\source\rte/sc_input.h **** 				SetEvent( task, signal->pSigCfg->evOnError);
 213:.\source\rte/sc_input.h **** 			}
 214:.\source\rte/sc_input.h **** 		}
 215:.\source\rte/sc_input.h ****    }
 216:.\source\rte/sc_input.h ****    
 217:.\source\rte/sc_input.h ****    return RC_SUCCESS;
 218:.\source\rte/sc_input.h **** }
 219:.\source\rte/sc_input.h **** 
 220:.\source\rte/sc_input.h **** 
 221:.\source\rte/sc_input.h **** /**
 222:.\source\rte/sc_input.h ****  * Returns the count of refreshing trials (refresh, set or set_raw) that failed.
 223:.\source\rte/sc_input.h ****  * Prerquisite: The signal is refreshed cyclically
 224:.\source\rte/sc_input.h ****  *
 225:.\source\rte/sc_input.h ****  * @param  SC_INPUT_t * const signal: Pointer to the signal object
 226:.\source\rte/sc_input.h ****  * @return uint32_t: Number of cycles since the signal has been updated for the last time
 227:.\source\rte/sc_input.h ****  */
 228:.\source\rte/sc_input.h **** inline uint32_t RTE_SC_INPUT_getAge( const SC_INPUT_t * const signal )
 229:.\source\rte/sc_input.h **** {
 230:.\source\rte/sc_input.h ****    return signal->age;
 231:.\source\rte/sc_input.h **** }
 232:.\source\rte/sc_input.h **** 
 233:.\source\rte/sc_input.h **** /**
 234:.\source\rte/sc_input.h ****  * Should be called by application or driver if no new value can be provided.
 235:.\source\rte/sc_input.h ****  * @param  SC_INPUT_t * const signal: Pointer to the signal object
 236:.\source\rte/sc_input.h ****  * @param uint32_t increment: incrementvalue, typically in [ms]
 237:.\source\rte/sc_input.h ****  * @return void
 238:.\source\rte/sc_input.h ****  */
 239:.\source\rte/sc_input.h **** inline void RTE_SC_INPUT_incAge(  SC_INPUT_t * const signal , uint32_t increment)
 240:.\source\rte/sc_input.h **** {
 241:.\source\rte/sc_input.h **** 	   //Hack....
 242:.\source\rte/sc_input.h **** 	   if ( 0xFFFF0000 > (signal->age + increment) )
 243:.\source\rte/sc_input.h **** 	   {
 244:.\source\rte/sc_input.h **** 	      signal->age += increment;
 245:.\source\rte/sc_input.h **** 	   }
 246:.\source\rte/sc_input.h **** }
 247:.\source\rte/sc_input.h **** 
 248:.\source\rte/sc_input.h **** 
 249:.\source\rte/sc_input.h **** /**************************************************************************************************
 250:.\source\rte/sc_input.h **** /* Application Data read/write Interface																			*/
 251:.\source\rte/sc_input.h **** /**************************************************************************************************
 252:.\source\rte/sc_input.h **** 
 253:.\source\rte/sc_input.h **** /**
 254:.\source\rte/sc_input.h ****  * Returns the current application value as pointer to the signal payload.
 255:.\source\rte/sc_input.h ****  * Careful: This is not threadsafe!!!
 256:.\source\rte/sc_input.h ****  *
 257:.\source\rte/sc_input.h ****  * @param  SC_INPUT_t * const signal: Pointer to the signal object
 258:.\source\rte/sc_input.h ****  * @return sc_input_data_t*: pointer to the current value of the application data buffer
 259:.\source\rte/sc_input.h ****  *
 260:.\source\rte/sc_input.h ****  **/
 261:.\source\rte/sc_input.h **** inline SC_INPUT_data_t* RTE_SC_INPUT_getPtr( SC_INPUT_t * const signal )
 262:.\source\rte/sc_input.h **** {               
 263:.\source\rte/sc_input.h ****    //Todo: Critical region cannot be protected using return values																						
 264:.\source\rte/sc_input.h ****    return &(signal->value);                                                                        
ARM GAS  C:\Users\saman\AppData\Local\Temp\ccOAgYwr.s 			page 21


 265:.\source\rte/sc_input.h **** }
 266:.\source\rte/sc_input.h **** 
 267:.\source\rte/sc_input.h **** /**
 268:.\source\rte/sc_input.h ****  * Returns the current application value of the passed signal instance.
 269:.\source\rte/sc_input.h ****  *
 270:.\source\rte/sc_input.h ****  * @param  SC_INPUT_t * const signal: Pointer to the signal object
 271:.\source\rte/sc_input.h ****  * @return sc_input_data_t: current value of the application data buffer
 272:.\source\rte/sc_input.h ****  *
 273:.\source\rte/sc_input.h ****  **/
 274:.\source\rte/sc_input.h **** inline SC_INPUT_data_t RTE_SC_INPUT_get( const SC_INPUT_t * const signal )
 275:.\source\rte/sc_input.h **** {               
 276:.\source\rte/sc_input.h ****    //Todo: Critical region cannot be protected using return values																						
 277:.\source\rte/sc_input.h ****    return signal->value;                                                                           
 163              		.loc 3 277 0
 164 0004 4422     		movs	r2, #68
 165 0006 2949     		ldr	r1, .L17
 166 0008 0DA8     		add	r0, sp, #52
 167 000a FFF7FEFF 		bl	memcpy
 168              	.LVL13:
 169              	.LBE86:
 170              	.LBE85:
 171              	.LBB87:
 172              	.LBB88:
 277:.\source\rte/sc_control.h **** }                                                                                                  
 173              		.loc 2 277 0
 174 000e 07AC     		add	r4, sp, #28
 175 0010 274D     		ldr	r5, .L17+4
 176 0012 0FCD     		ldmia	r5!, {r0, r1, r2, r3}
 177 0014 0FC4     		stmia	r4!, {r0, r1, r2, r3}
 178 0016 95E80300 		ldmia	r5, {r0, r1}
 179 001a 84E80300 		stmia	r4, {r0, r1}
 180              	.LVL14:
 181              	.LBE88:
 182              	.LBE87:
 383:source\asw/clock.c ****     SC_INPUT_data_t input = RTE_SC_INPUT_get(&SO_INPUT_signal);
 384:source\asw/clock.c ****     SC_CONTROL_data_t control =RTE_SC_CONTROL_get(&SO_CONTROL_signal);
 385:source\asw/clock.c ****     if(input.m_clock_data.m_activeWidget == CLOCK_HOURWIDGET)
 183              		.loc 1 385 0
 184 001e 9DF84430 		ldrb	r3, [sp, #68]	@ zero_extendqisi2
 185 0022 5BB9     		cbnz	r3, .L10
 386:source\asw/clock.c ****     {
 387:source\asw/clock.c ****         //UART_LOG_PutString("hr edit font\n");
 388:source\asw/clock.c ****         control.hour.font_type.bg_colour = WHITE;
 186              		.loc 1 388 0
 187 0024 4FF6FF73 		movw	r3, #65535
 188 0028 ADF82030 		strh	r3, [sp, #32]	@ movhi
 389:source\asw/clock.c ****         control.hour.font_type.widget = BLACK;
 189              		.loc 1 389 0
 190 002c 0022     		movs	r2, #0
 191 002e ADF82220 		strh	r2, [sp, #34]	@ movhi
 390:source\asw/clock.c ****         control.minute.font_type.bg_colour   = BLACK;
 192              		.loc 1 390 0
 193 0032 ADF82C20 		strh	r2, [sp, #44]	@ movhi
 391:source\asw/clock.c ****         control.minute.font_type.widget = WHITE;
 194              		.loc 1 391 0
 195 0036 ADF82E30 		strh	r3, [sp, #46]	@ movhi
 196 003a 0CE0     		b	.L11
ARM GAS  C:\Users\saman\AppData\Local\Temp\ccOAgYwr.s 			page 22


 197              	.L10:
 392:source\asw/clock.c ****     }
 393:source\asw/clock.c ****     else if(input.m_clock_data.m_activeWidget == CLOCK_MINWIDGET)
 198              		.loc 1 393 0
 199 003c 012B     		cmp	r3, #1
 200 003e 0AD1     		bne	.L11
 394:source\asw/clock.c ****     {
 395:source\asw/clock.c ****         //UART_LOG_PutString("min edit font\n");        
 396:source\asw/clock.c ****         control.hour.font_type.bg_colour = BLACK;
 201              		.loc 1 396 0
 202 0040 0023     		movs	r3, #0
 203 0042 ADF82030 		strh	r3, [sp, #32]	@ movhi
 397:source\asw/clock.c ****         control.hour.font_type.widget = WHITE;
 204              		.loc 1 397 0
 205 0046 4FF6FF72 		movw	r2, #65535
 206 004a ADF82220 		strh	r2, [sp, #34]	@ movhi
 398:source\asw/clock.c ****         control.minute.font_type.bg_colour   = WHITE;
 207              		.loc 1 398 0
 208 004e ADF82C20 		strh	r2, [sp, #44]	@ movhi
 399:source\asw/clock.c ****         control.minute.font_type.widget = BLACK;
 209              		.loc 1 399 0
 210 0052 ADF82E30 		strh	r3, [sp, #46]	@ movhi
 211              	.L11:
 212              	.LVL15:
 213 0056 01AC     		add	r4, sp, #4
 214 0058 07AD     		add	r5, sp, #28
 215 005a 0FCD     		ldmia	r5!, {r0, r1, r2, r3}
 216 005c 0FC4     		stmia	r4!, {r0, r1, r2, r3}
 217 005e 95E80300 		ldmia	r5, {r0, r1}
 218 0062 84E80300 		stmia	r4, {r0, r1}
 219              	.LVL16:
 220              	.LBB89:
 221              	.LBB90:
 316:.\source\rte/sc_control.h ****    signal->value  = value;
 222              		.loc 2 316 0
 223 0066 124E     		ldr	r6, .L17+4
 224 0068 376A     		ldr	r7, [r6, #32]
 317:.\source\rte/sc_control.h ****    signal->age    = 0;
 225              		.loc 2 317 0
 226 006a 3446     		mov	r4, r6
 227 006c 01AD     		add	r5, sp, #4
 228 006e 0FCD     		ldmia	r5!, {r0, r1, r2, r3}
 229 0070 0FC4     		stmia	r4!, {r0, r1, r2, r3}
 230 0072 95E80300 		ldmia	r5, {r0, r1}
 231 0076 84E80300 		stmia	r4, {r0, r1}
 318:.\source\rte/sc_control.h ****    signal->status = RTE_SIGNALSTATUS_VALID;
 232              		.loc 2 318 0
 233 007a 0023     		movs	r3, #0
 234 007c F361     		str	r3, [r6, #28]
 319:.\source\rte/sc_control.h ****    if (TRUE == signal->pSigCfg->resourceActive) ReleaseResource(signal->pSigCfg->resource);
 235              		.loc 2 319 0
 236 007e 0223     		movs	r3, #2
 237 0080 3376     		strb	r3, [r6, #24]
 323:.\source\rte/sc_control.h **** 
 238              		.loc 2 323 0
 239 0082 7D69     		ldr	r5, [r7, #20]
 240              	.LVL17:
ARM GAS  C:\Users\saman\AppData\Local\Temp\ccOAgYwr.s 			page 23


 325:.\source\rte/sc_control.h ****       for( taskNum=0 ; taskNum < signal->pSigCfg->onUpdateTaskCount ;taskNum++){
 241              		.loc 2 325 0
 242 0084 BB68     		ldr	r3, [r7, #8]
 243 0086 73B1     		cbz	r3, .L9
 244 0088 3DB9     		cbnz	r5, .L15
 245 008a 0CE0     		b	.L9
 246              	.LVL18:
 247              	.L14:
 248              	.LBB91:
 249              		.loc 2 329 0
 250 008c 9968     		ldr	r1, [r3, #8]
 251 008e 55F82400 		ldr	r0, [r5, r4, lsl #2]
 252 0092 FFF7FEFF 		bl	EE_oo_SetEvent
 253              	.LVL19:
 254              	.LBE91:
 326:.\source\rte/sc_control.h **** 		  
 255              		.loc 2 326 0
 256 0096 0134     		adds	r4, r4, #1
 257              	.LVL20:
 258 0098 00E0     		b	.L13
 259              	.LVL21:
 260              	.L15:
 325:.\source\rte/sc_control.h ****       for( taskNum=0 ; taskNum < signal->pSigCfg->onUpdateTaskCount ;taskNum++){
 261              		.loc 2 325 0
 262 009a 0024     		movs	r4, #0
 263              	.LVL22:
 264              	.L13:
 326:.\source\rte/sc_control.h **** 		  
 265              		.loc 2 326 0
 266 009c 044B     		ldr	r3, .L17+4
 267 009e 1B6A     		ldr	r3, [r3, #32]
 268 00a0 1A69     		ldr	r2, [r3, #16]
 269 00a2 9442     		cmp	r4, r2
 270 00a4 F2D3     		bcc	.L14
 271              	.LVL23:
 272              	.L9:
 273              	.LBE90:
 274              	.LBE89:
 400:source\asw/clock.c ****     }
 401:source\asw/clock.c ****     RTE_SC_CONTROL_set(&SO_CONTROL_signal, control);
 402:source\asw/clock.c **** }
 275              		.loc 1 402 0
 276 00a6 1FB0     		add	sp, sp, #124
 277              		.cfi_def_cfa_offset 20
 278              		@ sp needed
 279 00a8 F0BD     		pop	{r4, r5, r6, r7, pc}
 280              	.LVL24:
 281              	.L18:
 282 00aa 00BF     		.align	2
 283              	.L17:
 284 00ac 00000000 		.word	SO_INPUT_signal
 285 00b0 00000000 		.word	SO_CONTROL_signal
 286              		.cfi_endproc
 287              	.LFE159:
 288              		.size	CLOCK__setEditFonts, .-CLOCK__setEditFonts
 289              		.section	.text.CLOCK__updateDisplay,"ax",%progbits
 290              		.align	2
ARM GAS  C:\Users\saman\AppData\Local\Temp\ccOAgYwr.s 			page 24


 291              		.thumb
 292              		.thumb_func
 293              		.type	CLOCK__updateDisplay, %function
 294              	CLOCK__updateDisplay:
 295              	.LFB160:
 403:source\asw/clock.c **** 
 404:source\asw/clock.c **** void CLOCK__updateDisplay()
 405:source\asw/clock.c **** {
 296              		.loc 1 405 0
 297              		.cfi_startproc
 298              		@ args = 0, pretend = 0, frame = 48
 299              		@ frame_needed = 0, uses_anonymous_args = 0
 300 0000 F0B5     		push	{r4, r5, r6, r7, lr}
 301              		.cfi_def_cfa_offset 20
 302              		.cfi_offset 4, -20
 303              		.cfi_offset 5, -16
 304              		.cfi_offset 6, -12
 305              		.cfi_offset 7, -8
 306              		.cfi_offset 14, -4
 307 0002 8DB0     		sub	sp, sp, #52
 308              		.cfi_def_cfa_offset 72
 309              	.LVL25:
 310              	.LBB92:
 311              	.LBB93:
 277:.\source\rte/sc_control.h **** }                                                                                                  
 312              		.loc 2 277 0
 313 0004 184F     		ldr	r7, .L25
 314 0006 06AD     		add	r5, sp, #24
 315 0008 3C46     		mov	r4, r7
 316 000a 0FCC     		ldmia	r4!, {r0, r1, r2, r3}
 317 000c 0FC5     		stmia	r5!, {r0, r1, r2, r3}
 318 000e 94E80300 		ldmia	r4, {r0, r1}
 319 0012 85E80300 		stmia	r5, {r0, r1}
 320              	.LVL26:
 321 0016 6D46     		mov	r5, sp
 322 0018 06AE     		add	r6, sp, #24
 323 001a 0FCE     		ldmia	r6!, {r0, r1, r2, r3}
 324 001c 0FC5     		stmia	r5!, {r0, r1, r2, r3}
 325 001e 96E80300 		ldmia	r6, {r0, r1}
 326 0022 85E80300 		stmia	r5, {r0, r1}
 327              	.LVL27:
 328              	.LBE93:
 329              	.LBE92:
 330              	.LBB94:
 331              	.LBB95:
 316:.\source\rte/sc_control.h ****    signal->value  = value;
 332              		.loc 2 316 0
 333 0026 D7F820E0 		ldr	lr, [r7, #32]
 317:.\source\rte/sc_control.h ****    signal->age    = 0;
 334              		.loc 2 317 0
 335 002a 3E46     		mov	r6, r7
 336 002c 6D46     		mov	r5, sp
 337 002e 0FCD     		ldmia	r5!, {r0, r1, r2, r3}
 338 0030 0FC6     		stmia	r6!, {r0, r1, r2, r3}
 318:.\source\rte/sc_control.h ****    signal->status = RTE_SIGNALSTATUS_VALID;
 339              		.loc 2 318 0
 340 0032 0023     		movs	r3, #0
ARM GAS  C:\Users\saman\AppData\Local\Temp\ccOAgYwr.s 			page 25


 341 0034 FB61     		str	r3, [r7, #28]
 319:.\source\rte/sc_control.h ****    if (TRUE == signal->pSigCfg->resourceActive) ReleaseResource(signal->pSigCfg->resource);
 342              		.loc 2 319 0
 343 0036 0223     		movs	r3, #2
 344 0038 3B76     		strb	r3, [r7, #24]
 323:.\source\rte/sc_control.h **** 
 345              		.loc 2 323 0
 346 003a DEF81450 		ldr	r5, [lr, #20]
 347              	.LVL28:
 325:.\source\rte/sc_control.h ****       for( taskNum=0 ; taskNum < signal->pSigCfg->onUpdateTaskCount ;taskNum++){
 348              		.loc 2 325 0
 349 003e DEF80830 		ldr	r3, [lr, #8]
 350 0042 73B1     		cbz	r3, .L19
 351 0044 3DB9     		cbnz	r5, .L23
 352 0046 0CE0     		b	.L19
 353              	.LVL29:
 354              	.L22:
 355              	.LBB96:
 356              		.loc 2 329 0
 357 0048 9968     		ldr	r1, [r3, #8]
 358 004a 55F82400 		ldr	r0, [r5, r4, lsl #2]
 359 004e FFF7FEFF 		bl	EE_oo_SetEvent
 360              	.LVL30:
 361              	.LBE96:
 326:.\source\rte/sc_control.h **** 		  
 362              		.loc 2 326 0
 363 0052 0134     		adds	r4, r4, #1
 364              	.LVL31:
 365 0054 00E0     		b	.L21
 366              	.LVL32:
 367              	.L23:
 325:.\source\rte/sc_control.h ****       for( taskNum=0 ; taskNum < signal->pSigCfg->onUpdateTaskCount ;taskNum++){
 368              		.loc 2 325 0
 369 0056 0024     		movs	r4, #0
 370              	.LVL33:
 371              	.L21:
 326:.\source\rte/sc_control.h **** 		  
 372              		.loc 2 326 0
 373 0058 034B     		ldr	r3, .L25
 374 005a 1B6A     		ldr	r3, [r3, #32]
 375 005c 1A69     		ldr	r2, [r3, #16]
 376 005e 9442     		cmp	r4, r2
 377 0060 F2D3     		bcc	.L22
 378              	.LVL34:
 379              	.L19:
 380              	.LBE95:
 381              	.LBE94:
 406:source\asw/clock.c ****     SC_CONTROL_data_t control = RTE_SC_CONTROL_get(&SO_CONTROL_signal);
 407:source\asw/clock.c ****     RTE_SC_CONTROL_set(&SO_CONTROL_signal, control);   
 408:source\asw/clock.c **** }
 382              		.loc 1 408 0
 383 0062 0DB0     		add	sp, sp, #52
 384              		.cfi_def_cfa_offset 20
 385              		@ sp needed
 386 0064 F0BD     		pop	{r4, r5, r6, r7, pc}
 387              	.LVL35:
 388              	.L26:
ARM GAS  C:\Users\saman\AppData\Local\Temp\ccOAgYwr.s 			page 26


 389 0066 00BF     		.align	2
 390              	.L25:
 391 0068 00000000 		.word	SO_CONTROL_signal
 392              		.cfi_endproc
 393              	.LFE160:
 394              		.size	CLOCK__updateDisplay, .-CLOCK__updateDisplay
 395              		.section	.text.CLOCK__updateTime,"ax",%progbits
 396              		.align	2
 397              		.thumb
 398              		.thumb_func
 399              		.type	CLOCK__updateTime, %function
 400              	CLOCK__updateTime:
 401              	.LFB161:
 409:source\asw/clock.c **** 
 410:source\asw/clock.c **** void CLOCK__updateTime()
 411:source\asw/clock.c **** {
 402              		.loc 1 411 0
 403              		.cfi_startproc
 404              		@ args = 0, pretend = 0, frame = 48
 405              		@ frame_needed = 0, uses_anonymous_args = 0
 406 0000 F0B5     		push	{r4, r5, r6, r7, lr}
 407              		.cfi_def_cfa_offset 20
 408              		.cfi_offset 4, -20
 409              		.cfi_offset 5, -16
 410              		.cfi_offset 6, -12
 411              		.cfi_offset 7, -8
 412              		.cfi_offset 14, -4
 413 0002 8DB0     		sub	sp, sp, #52
 414              		.cfi_def_cfa_offset 72
 415              	.LVL36:
 416              	.LBB97:
 417              	.LBB98:
 277:.\source\rte/sc_control.h **** }                                                                                                  
 418              		.loc 2 277 0
 419 0004 06AC     		add	r4, sp, #24
 420 0006 2C4D     		ldr	r5, .L35
 421 0008 0FCD     		ldmia	r5!, {r0, r1, r2, r3}
 422 000a 0FC4     		stmia	r4!, {r0, r1, r2, r3}
 423 000c 95E80300 		ldmia	r5, {r0, r1}
 424 0010 84E80300 		stmia	r4, {r0, r1}
 425              	.LVL37:
 426              	.LBE98:
 427              	.LBE97:
 412:source\asw/clock.c ****     //UART_LOG_PutString("CLOCK__updateTime\n");
 413:source\asw/clock.c ****     SC_CONTROL_data_t time = RTE_SC_CONTROL_get(&SO_CONTROL_signal);
 414:source\asw/clock.c ****     time.minute.value++;
 428              		.loc 1 414 0
 429 0014 9DF82E30 		ldrb	r3, [sp, #46]	@ zero_extendqisi2
 430 0018 0133     		adds	r3, r3, #1
 431 001a DBB2     		uxtb	r3, r3
 432 001c 8DF82E30 		strb	r3, [sp, #46]
 415:source\asw/clock.c ****     if(time.minute.value%60 == 0)
 433              		.loc 1 415 0
 434 0020 264A     		ldr	r2, .L35+4
 435 0022 A2FB0312 		umull	r1, r2, r2, r3
 436 0026 5209     		lsrs	r2, r2, #5
 437 0028 C2EB0212 		rsb	r2, r2, r2, lsl #4
ARM GAS  C:\Users\saman\AppData\Local\Temp\ccOAgYwr.s 			page 27


 438 002c 9100     		lsls	r1, r2, #2
 439 002e 5B1A     		subs	r3, r3, r1
 440 0030 13F0FF0F 		tst	r3, #255
 441 0034 16D1     		bne	.L28
 416:source\asw/clock.c ****     {
 417:source\asw/clock.c ****         //UART_LOG_PutString("1 hr\n");
 418:source\asw/clock.c ****         time.hour.value++;
 442              		.loc 1 418 0
 443 0036 9DF82230 		ldrb	r3, [sp, #34]	@ zero_extendqisi2
 444 003a 0133     		adds	r3, r3, #1
 445 003c DBB2     		uxtb	r3, r3
 446 003e 8DF82230 		strb	r3, [sp, #34]
 419:source\asw/clock.c ****         if(time.hour.value%24 == 0)
 447              		.loc 1 419 0
 448 0042 1F4A     		ldr	r2, .L35+8
 449 0044 A2FB0312 		umull	r1, r2, r2, r3
 450 0048 1209     		lsrs	r2, r2, #4
 451 004a 02EB4202 		add	r2, r2, r2, lsl #1
 452 004e D100     		lsls	r1, r2, #3
 453 0050 5B1A     		subs	r3, r3, r1
 454 0052 13F0FF0F 		tst	r3, #255
 455 0056 02D1     		bne	.L29
 420:source\asw/clock.c ****         {
 421:source\asw/clock.c ****             time.hour.value = 0;
 456              		.loc 1 421 0
 457 0058 0023     		movs	r3, #0
 458 005a 8DF82230 		strb	r3, [sp, #34]
 459              	.L29:
 422:source\asw/clock.c ****         }
 423:source\asw/clock.c ****         time.minute.value = 0;
 460              		.loc 1 423 0
 461 005e 0023     		movs	r3, #0
 462 0060 8DF82E30 		strb	r3, [sp, #46]
 463              	.L28:
 464              	.LVL38:
 465 0064 6C46     		mov	r4, sp
 466 0066 06AD     		add	r5, sp, #24
 467 0068 0FCD     		ldmia	r5!, {r0, r1, r2, r3}
 468 006a 0FC4     		stmia	r4!, {r0, r1, r2, r3}
 469 006c 95E80300 		ldmia	r5, {r0, r1}
 470 0070 84E80300 		stmia	r4, {r0, r1}
 471              	.LVL39:
 472              	.LBB99:
 473              	.LBB100:
 316:.\source\rte/sc_control.h ****    signal->value  = value;
 474              		.loc 2 316 0
 475 0074 104E     		ldr	r6, .L35
 476 0076 376A     		ldr	r7, [r6, #32]
 317:.\source\rte/sc_control.h ****    signal->age    = 0;
 477              		.loc 2 317 0
 478 0078 3446     		mov	r4, r6
 479 007a 6D46     		mov	r5, sp
 480 007c 0FCD     		ldmia	r5!, {r0, r1, r2, r3}
 481 007e 0FC4     		stmia	r4!, {r0, r1, r2, r3}
 482 0080 95E80300 		ldmia	r5, {r0, r1}
 483 0084 84E80300 		stmia	r4, {r0, r1}
 318:.\source\rte/sc_control.h ****    signal->status = RTE_SIGNALSTATUS_VALID;
ARM GAS  C:\Users\saman\AppData\Local\Temp\ccOAgYwr.s 			page 28


 484              		.loc 2 318 0
 485 0088 0023     		movs	r3, #0
 486 008a F361     		str	r3, [r6, #28]
 319:.\source\rte/sc_control.h ****    if (TRUE == signal->pSigCfg->resourceActive) ReleaseResource(signal->pSigCfg->resource);
 487              		.loc 2 319 0
 488 008c 0223     		movs	r3, #2
 489 008e 3376     		strb	r3, [r6, #24]
 323:.\source\rte/sc_control.h **** 
 490              		.loc 2 323 0
 491 0090 7D69     		ldr	r5, [r7, #20]
 492              	.LVL40:
 325:.\source\rte/sc_control.h ****       for( taskNum=0 ; taskNum < signal->pSigCfg->onUpdateTaskCount ;taskNum++){
 493              		.loc 2 325 0
 494 0092 BB68     		ldr	r3, [r7, #8]
 495 0094 73B1     		cbz	r3, .L27
 496 0096 3DB9     		cbnz	r5, .L33
 497 0098 0CE0     		b	.L27
 498              	.LVL41:
 499              	.L32:
 500              	.LBB101:
 501              		.loc 2 329 0
 502 009a 9968     		ldr	r1, [r3, #8]
 503 009c 55F82400 		ldr	r0, [r5, r4, lsl #2]
 504 00a0 FFF7FEFF 		bl	EE_oo_SetEvent
 505              	.LVL42:
 506              	.LBE101:
 326:.\source\rte/sc_control.h **** 		  
 507              		.loc 2 326 0
 508 00a4 0134     		adds	r4, r4, #1
 509              	.LVL43:
 510 00a6 00E0     		b	.L31
 511              	.LVL44:
 512              	.L33:
 325:.\source\rte/sc_control.h ****       for( taskNum=0 ; taskNum < signal->pSigCfg->onUpdateTaskCount ;taskNum++){
 513              		.loc 2 325 0
 514 00a8 0024     		movs	r4, #0
 515              	.LVL45:
 516              	.L31:
 326:.\source\rte/sc_control.h **** 		  
 517              		.loc 2 326 0
 518 00aa 034B     		ldr	r3, .L35
 519 00ac 1B6A     		ldr	r3, [r3, #32]
 520 00ae 1A69     		ldr	r2, [r3, #16]
 521 00b0 9442     		cmp	r4, r2
 522 00b2 F2D3     		bcc	.L32
 523              	.LVL46:
 524              	.L27:
 525              	.LBE100:
 526              	.LBE99:
 424:source\asw/clock.c ****     }
 425:source\asw/clock.c ****     RTE_SC_CONTROL_set(&SO_CONTROL_signal, time);
 426:source\asw/clock.c **** }
 527              		.loc 1 426 0
 528 00b4 0DB0     		add	sp, sp, #52
 529              		.cfi_def_cfa_offset 20
 530              		@ sp needed
 531 00b6 F0BD     		pop	{r4, r5, r6, r7, pc}
ARM GAS  C:\Users\saman\AppData\Local\Temp\ccOAgYwr.s 			page 29


 532              	.LVL47:
 533              	.L36:
 534              		.align	2
 535              	.L35:
 536 00b8 00000000 		.word	SO_CONTROL_signal
 537 00bc 89888888 		.word	-2004318071
 538 00c0 ABAAAAAA 		.word	-1431655765
 539              		.cfi_endproc
 540              	.LFE161:
 541              		.size	CLOCK__updateTime, .-CLOCK__updateTime
 542              		.section	.text.CLOCK__increment1Minute,"ax",%progbits
 543              		.align	2
 544              		.thumb
 545              		.thumb_func
 546              		.type	CLOCK__increment1Minute, %function
 547              	CLOCK__increment1Minute:
 548              	.LFB148:
 292:source\asw/clock.c ****     CLOCK__updateTime();
 549              		.loc 1 292 0
 550              		.cfi_startproc
 551              		@ args = 0, pretend = 0, frame = 0
 552              		@ frame_needed = 0, uses_anonymous_args = 0
 553 0000 08B5     		push	{r3, lr}
 554              		.cfi_def_cfa_offset 8
 555              		.cfi_offset 3, -8
 556              		.cfi_offset 14, -4
 293:source\asw/clock.c **** }
 557              		.loc 1 293 0
 558 0002 FFF7FEFF 		bl	CLOCK__updateTime
 559              	.LVL48:
 560 0006 08BD     		pop	{r3, pc}
 561              		.cfi_endproc
 562              	.LFE148:
 563              		.size	CLOCK__increment1Minute, .-CLOCK__increment1Minute
 564              		.section	.text.CLOCK__incrementHourandDisplay,"ax",%progbits
 565              		.align	2
 566              		.thumb
 567              		.thumb_func
 568              		.type	CLOCK__incrementHourandDisplay, %function
 569              	CLOCK__incrementHourandDisplay:
 570              	.LFB162:
 427:source\asw/clock.c **** 
 428:source\asw/clock.c **** void CLOCK__incrementHourandDisplay()
 429:source\asw/clock.c **** {
 571              		.loc 1 429 0
 572              		.cfi_startproc
 573              		@ args = 0, pretend = 0, frame = 48
 574              		@ frame_needed = 0, uses_anonymous_args = 0
 575 0000 F0B5     		push	{r4, r5, r6, r7, lr}
 576              		.cfi_def_cfa_offset 20
 577              		.cfi_offset 4, -20
 578              		.cfi_offset 5, -16
 579              		.cfi_offset 6, -12
 580              		.cfi_offset 7, -8
 581              		.cfi_offset 14, -4
 582 0002 8DB0     		sub	sp, sp, #52
 583              		.cfi_def_cfa_offset 72
ARM GAS  C:\Users\saman\AppData\Local\Temp\ccOAgYwr.s 			page 30


 584              	.LVL49:
 585              	.LBB102:
 586              	.LBB103:
 277:.\source\rte/sc_control.h **** }                                                                                                  
 587              		.loc 2 277 0
 588 0004 06AC     		add	r4, sp, #24
 589 0006 234D     		ldr	r5, .L46
 590 0008 0FCD     		ldmia	r5!, {r0, r1, r2, r3}
 591 000a 0FC4     		stmia	r4!, {r0, r1, r2, r3}
 592 000c 95E80300 		ldmia	r5, {r0, r1}
 593 0010 84E80300 		stmia	r4, {r0, r1}
 594              	.LVL50:
 595              	.LBE103:
 596              	.LBE102:
 430:source\asw/clock.c ****     SC_CONTROL_data_t control = RTE_SC_CONTROL_get(&SO_CONTROL_signal);
 431:source\asw/clock.c ****     control.hour.value++;
 597              		.loc 1 431 0
 598 0014 9DF82230 		ldrb	r3, [sp, #34]	@ zero_extendqisi2
 599 0018 0133     		adds	r3, r3, #1
 600 001a DBB2     		uxtb	r3, r3
 601 001c 8DF82230 		strb	r3, [sp, #34]
 432:source\asw/clock.c ****     if(control.hour.value%24 == 0)
 602              		.loc 1 432 0
 603 0020 1D4A     		ldr	r2, .L46+4
 604 0022 A2FB0312 		umull	r1, r2, r2, r3
 605 0026 1209     		lsrs	r2, r2, #4
 606 0028 02EB4202 		add	r2, r2, r2, lsl #1
 607 002c D100     		lsls	r1, r2, #3
 608 002e 5B1A     		subs	r3, r3, r1
 609 0030 13F0FF0F 		tst	r3, #255
 610 0034 02D1     		bne	.L40
 433:source\asw/clock.c ****     {
 434:source\asw/clock.c ****         control.hour.value = 0;
 611              		.loc 1 434 0
 612 0036 0023     		movs	r3, #0
 613 0038 8DF82230 		strb	r3, [sp, #34]
 614              	.L40:
 435:source\asw/clock.c ****     }    
 436:source\asw/clock.c ****     /*itoa(clock_hour.hour.value, buffer, 10);
 437:source\asw/clock.c ****     UART_LOG_PutString("hr value: ");
 438:source\asw/clock.c ****     UART_LOG_PutString(buffer);
 439:source\asw/clock.c ****     UART_LOG_PutString("\n");*/
 440:source\asw/clock.c ****     CLOCK__updateDisplay(); 
 615              		.loc 1 440 0
 616 003c FFF7FEFF 		bl	CLOCK__updateDisplay
 617              	.LVL51:
 618 0040 6C46     		mov	r4, sp
 619 0042 06AD     		add	r5, sp, #24
 620 0044 0FCD     		ldmia	r5!, {r0, r1, r2, r3}
 621 0046 0FC4     		stmia	r4!, {r0, r1, r2, r3}
 622 0048 95E80300 		ldmia	r5, {r0, r1}
 623 004c 84E80300 		stmia	r4, {r0, r1}
 624              	.LVL52:
 625              	.LBB104:
 626              	.LBB105:
 316:.\source\rte/sc_control.h ****    signal->value  = value;
 627              		.loc 2 316 0
ARM GAS  C:\Users\saman\AppData\Local\Temp\ccOAgYwr.s 			page 31


 628 0050 104E     		ldr	r6, .L46
 629 0052 376A     		ldr	r7, [r6, #32]
 317:.\source\rte/sc_control.h ****    signal->age    = 0;
 630              		.loc 2 317 0
 631 0054 3446     		mov	r4, r6
 632 0056 6D46     		mov	r5, sp
 633 0058 0FCD     		ldmia	r5!, {r0, r1, r2, r3}
 634 005a 0FC4     		stmia	r4!, {r0, r1, r2, r3}
 635 005c 95E80300 		ldmia	r5, {r0, r1}
 636 0060 84E80300 		stmia	r4, {r0, r1}
 318:.\source\rte/sc_control.h ****    signal->status = RTE_SIGNALSTATUS_VALID;
 637              		.loc 2 318 0
 638 0064 0023     		movs	r3, #0
 639 0066 F361     		str	r3, [r6, #28]
 319:.\source\rte/sc_control.h ****    if (TRUE == signal->pSigCfg->resourceActive) ReleaseResource(signal->pSigCfg->resource);
 640              		.loc 2 319 0
 641 0068 0223     		movs	r3, #2
 642 006a 3376     		strb	r3, [r6, #24]
 323:.\source\rte/sc_control.h **** 
 643              		.loc 2 323 0
 644 006c 7D69     		ldr	r5, [r7, #20]
 645              	.LVL53:
 325:.\source\rte/sc_control.h ****       for( taskNum=0 ; taskNum < signal->pSigCfg->onUpdateTaskCount ;taskNum++){
 646              		.loc 2 325 0
 647 006e BB68     		ldr	r3, [r7, #8]
 648 0070 73B1     		cbz	r3, .L39
 649 0072 3DB9     		cbnz	r5, .L44
 650 0074 0CE0     		b	.L39
 651              	.LVL54:
 652              	.L43:
 653              	.LBB106:
 654              		.loc 2 329 0
 655 0076 9968     		ldr	r1, [r3, #8]
 656 0078 55F82400 		ldr	r0, [r5, r4, lsl #2]
 657 007c FFF7FEFF 		bl	EE_oo_SetEvent
 658              	.LVL55:
 659              	.LBE106:
 326:.\source\rte/sc_control.h **** 		  
 660              		.loc 2 326 0
 661 0080 0134     		adds	r4, r4, #1
 662              	.LVL56:
 663 0082 00E0     		b	.L42
 664              	.LVL57:
 665              	.L44:
 325:.\source\rte/sc_control.h ****       for( taskNum=0 ; taskNum < signal->pSigCfg->onUpdateTaskCount ;taskNum++){
 666              		.loc 2 325 0
 667 0084 0024     		movs	r4, #0
 668              	.LVL58:
 669              	.L42:
 326:.\source\rte/sc_control.h **** 		  
 670              		.loc 2 326 0
 671 0086 034B     		ldr	r3, .L46
 672 0088 1B6A     		ldr	r3, [r3, #32]
 673 008a 1A69     		ldr	r2, [r3, #16]
 674 008c 9442     		cmp	r4, r2
 675 008e F2D3     		bcc	.L43
 676              	.LVL59:
ARM GAS  C:\Users\saman\AppData\Local\Temp\ccOAgYwr.s 			page 32


 677              	.L39:
 678              	.LBE105:
 679              	.LBE104:
 441:source\asw/clock.c ****     
 442:source\asw/clock.c ****     RTE_SC_CONTROL_set(&SO_CONTROL_signal, control);
 443:source\asw/clock.c **** }
 680              		.loc 1 443 0
 681 0090 0DB0     		add	sp, sp, #52
 682              		.cfi_def_cfa_offset 20
 683              		@ sp needed
 684 0092 F0BD     		pop	{r4, r5, r6, r7, pc}
 685              	.LVL60:
 686              	.L47:
 687              		.align	2
 688              	.L46:
 689 0094 00000000 		.word	SO_CONTROL_signal
 690 0098 ABAAAAAA 		.word	-1431655765
 691              		.cfi_endproc
 692              	.LFE162:
 693              		.size	CLOCK__incrementHourandDisplay, .-CLOCK__incrementHourandDisplay
 694              		.section	.text.CLOCK__incrementMinuteandDisplay,"ax",%progbits
 695              		.align	2
 696              		.thumb
 697              		.thumb_func
 698              		.type	CLOCK__incrementMinuteandDisplay, %function
 699              	CLOCK__incrementMinuteandDisplay:
 700              	.LFB163:
 444:source\asw/clock.c **** 
 445:source\asw/clock.c **** void CLOCK__incrementMinuteandDisplay()
 446:source\asw/clock.c **** {
 701              		.loc 1 446 0
 702              		.cfi_startproc
 703              		@ args = 0, pretend = 0, frame = 48
 704              		@ frame_needed = 0, uses_anonymous_args = 0
 705 0000 F0B5     		push	{r4, r5, r6, r7, lr}
 706              		.cfi_def_cfa_offset 20
 707              		.cfi_offset 4, -20
 708              		.cfi_offset 5, -16
 709              		.cfi_offset 6, -12
 710              		.cfi_offset 7, -8
 711              		.cfi_offset 14, -4
 712 0002 8DB0     		sub	sp, sp, #52
 713              		.cfi_def_cfa_offset 72
 714              	.LVL61:
 715              	.LBB107:
 716              	.LBB108:
 277:.\source\rte/sc_control.h **** }                                                                                                  
 717              		.loc 2 277 0
 718 0004 06AC     		add	r4, sp, #24
 719 0006 244D     		ldr	r5, .L55
 720 0008 0FCD     		ldmia	r5!, {r0, r1, r2, r3}
 721 000a 0FC4     		stmia	r4!, {r0, r1, r2, r3}
 722 000c 95E80300 		ldmia	r5, {r0, r1}
 723 0010 84E80300 		stmia	r4, {r0, r1}
 724              	.LVL62:
 725              	.LBE108:
 726              	.LBE107:
ARM GAS  C:\Users\saman\AppData\Local\Temp\ccOAgYwr.s 			page 33


 447:source\asw/clock.c ****     SC_CONTROL_data_t control = RTE_SC_CONTROL_get(&SO_CONTROL_signal);   
 448:source\asw/clock.c ****     control.minute.value++;
 727              		.loc 1 448 0
 728 0014 9DF82E30 		ldrb	r3, [sp, #46]	@ zero_extendqisi2
 729 0018 0133     		adds	r3, r3, #1
 730 001a DBB2     		uxtb	r3, r3
 731 001c 8DF82E30 		strb	r3, [sp, #46]
 449:source\asw/clock.c ****     if(control.minute.value%60 == 0)
 732              		.loc 1 449 0
 733 0020 1E4A     		ldr	r2, .L55+4
 734 0022 A2FB0312 		umull	r1, r2, r2, r3
 735 0026 5209     		lsrs	r2, r2, #5
 736 0028 C2EB0212 		rsb	r2, r2, r2, lsl #4
 737 002c 9100     		lsls	r1, r2, #2
 738 002e 5B1A     		subs	r3, r3, r1
 739 0030 13F0FF0F 		tst	r3, #255
 740 0034 04D1     		bne	.L49
 450:source\asw/clock.c ****     {
 451:source\asw/clock.c ****         control.minute.value = 0;
 741              		.loc 1 451 0
 742 0036 0023     		movs	r3, #0
 743 0038 8DF82E30 		strb	r3, [sp, #46]
 452:source\asw/clock.c ****         CLOCK__incrementHourandDisplay();
 744              		.loc 1 452 0
 745 003c FFF7FEFF 		bl	CLOCK__incrementHourandDisplay
 746              	.LVL63:
 747              	.L49:
 453:source\asw/clock.c ****     }
 454:source\asw/clock.c ****     /*itoa(clock_minute.minute.value, buffer, 10);
 455:source\asw/clock.c ****     UART_LOG_PutString("min value: ");
 456:source\asw/clock.c ****     UART_LOG_PutString(buffer);
 457:source\asw/clock.c ****     UART_LOG_PutString("\n");*/
 458:source\asw/clock.c ****     CLOCK__updateDisplay();
 748              		.loc 1 458 0
 749 0040 FFF7FEFF 		bl	CLOCK__updateDisplay
 750              	.LVL64:
 751 0044 6C46     		mov	r4, sp
 752 0046 06AD     		add	r5, sp, #24
 753 0048 0FCD     		ldmia	r5!, {r0, r1, r2, r3}
 754 004a 0FC4     		stmia	r4!, {r0, r1, r2, r3}
 755 004c 95E80300 		ldmia	r5, {r0, r1}
 756 0050 84E80300 		stmia	r4, {r0, r1}
 757              	.LVL65:
 758              	.LBB109:
 759              	.LBB110:
 316:.\source\rte/sc_control.h ****    signal->value  = value;
 760              		.loc 2 316 0
 761 0054 104E     		ldr	r6, .L55
 762 0056 376A     		ldr	r7, [r6, #32]
 317:.\source\rte/sc_control.h ****    signal->age    = 0;
 763              		.loc 2 317 0
 764 0058 3446     		mov	r4, r6
 765 005a 6D46     		mov	r5, sp
 766 005c 0FCD     		ldmia	r5!, {r0, r1, r2, r3}
 767 005e 0FC4     		stmia	r4!, {r0, r1, r2, r3}
 768 0060 95E80300 		ldmia	r5, {r0, r1}
 769 0064 84E80300 		stmia	r4, {r0, r1}
ARM GAS  C:\Users\saman\AppData\Local\Temp\ccOAgYwr.s 			page 34


 318:.\source\rte/sc_control.h ****    signal->status = RTE_SIGNALSTATUS_VALID;
 770              		.loc 2 318 0
 771 0068 0023     		movs	r3, #0
 772 006a F361     		str	r3, [r6, #28]
 319:.\source\rte/sc_control.h ****    if (TRUE == signal->pSigCfg->resourceActive) ReleaseResource(signal->pSigCfg->resource);
 773              		.loc 2 319 0
 774 006c 0223     		movs	r3, #2
 775 006e 3376     		strb	r3, [r6, #24]
 323:.\source\rte/sc_control.h **** 
 776              		.loc 2 323 0
 777 0070 7D69     		ldr	r5, [r7, #20]
 778              	.LVL66:
 325:.\source\rte/sc_control.h ****       for( taskNum=0 ; taskNum < signal->pSigCfg->onUpdateTaskCount ;taskNum++){
 779              		.loc 2 325 0
 780 0072 BB68     		ldr	r3, [r7, #8]
 781 0074 73B1     		cbz	r3, .L48
 782 0076 3DB9     		cbnz	r5, .L53
 783 0078 0CE0     		b	.L48
 784              	.LVL67:
 785              	.L52:
 786              	.LBB111:
 787              		.loc 2 329 0
 788 007a 9968     		ldr	r1, [r3, #8]
 789 007c 55F82400 		ldr	r0, [r5, r4, lsl #2]
 790 0080 FFF7FEFF 		bl	EE_oo_SetEvent
 791              	.LVL68:
 792              	.LBE111:
 326:.\source\rte/sc_control.h **** 		  
 793              		.loc 2 326 0
 794 0084 0134     		adds	r4, r4, #1
 795              	.LVL69:
 796 0086 00E0     		b	.L51
 797              	.LVL70:
 798              	.L53:
 325:.\source\rte/sc_control.h ****       for( taskNum=0 ; taskNum < signal->pSigCfg->onUpdateTaskCount ;taskNum++){
 799              		.loc 2 325 0
 800 0088 0024     		movs	r4, #0
 801              	.LVL71:
 802              	.L51:
 326:.\source\rte/sc_control.h **** 		  
 803              		.loc 2 326 0
 804 008a 034B     		ldr	r3, .L55
 805 008c 1B6A     		ldr	r3, [r3, #32]
 806 008e 1A69     		ldr	r2, [r3, #16]
 807 0090 9442     		cmp	r4, r2
 808 0092 F2D3     		bcc	.L52
 809              	.LVL72:
 810              	.L48:
 811              	.LBE110:
 812              	.LBE109:
 459:source\asw/clock.c ****     RTE_SC_CONTROL_set(&SO_CONTROL_signal, control);
 460:source\asw/clock.c **** }
 813              		.loc 1 460 0
 814 0094 0DB0     		add	sp, sp, #52
 815              		.cfi_def_cfa_offset 20
 816              		@ sp needed
 817 0096 F0BD     		pop	{r4, r5, r6, r7, pc}
ARM GAS  C:\Users\saman\AppData\Local\Temp\ccOAgYwr.s 			page 35


 818              	.LVL73:
 819              	.L56:
 820              		.align	2
 821              	.L55:
 822 0098 00000000 		.word	SO_CONTROL_signal
 823 009c 89888888 		.word	-2004318071
 824              		.cfi_endproc
 825              	.LFE163:
 826              		.size	CLOCK__incrementMinuteandDisplay, .-CLOCK__incrementMinuteandDisplay
 827              		.section	.text.CLOCK__incrementWidget,"ax",%progbits
 828              		.align	2
 829              		.thumb
 830              		.thumb_func
 831              		.type	CLOCK__incrementWidget, %function
 832              	CLOCK__incrementWidget:
 833              	.LFB157:
 357:source\asw/clock.c ****     SC_INPUT_data_t input = RTE_SC_INPUT_get(&SO_INPUT_signal);
 834              		.loc 1 357 0
 835              		.cfi_startproc
 836              		@ args = 0, pretend = 0, frame = 72
 837              		@ frame_needed = 0, uses_anonymous_args = 0
 838 0000 00B5     		push	{lr}
 839              		.cfi_def_cfa_offset 4
 840              		.cfi_offset 14, -4
 841 0002 93B0     		sub	sp, sp, #76
 842              		.cfi_def_cfa_offset 80
 843              	.LVL74:
 844              	.LBB112:
 845              	.LBB113:
 846              		.loc 3 277 0
 847 0004 4422     		movs	r2, #68
 848 0006 0849     		ldr	r1, .L61
 849 0008 01A8     		add	r0, sp, #4
 850 000a FFF7FEFF 		bl	memcpy
 851              	.LVL75:
 852              	.LBE113:
 853              	.LBE112:
 359:source\asw/clock.c ****     {
 854              		.loc 1 359 0
 855 000e 9DF81430 		ldrb	r3, [sp, #20]	@ zero_extendqisi2
 856 0012 13B9     		cbnz	r3, .L58
 362:source\asw/clock.c ****     }
 857              		.loc 1 362 0
 858 0014 FFF7FEFF 		bl	CLOCK__incrementHourandDisplay
 859              	.LVL76:
 860 0018 03E0     		b	.L57
 861              	.L58:
 364:source\asw/clock.c ****     {
 862              		.loc 1 364 0
 863 001a 012B     		cmp	r3, #1
 864 001c 01D1     		bne	.L57
 367:source\asw/clock.c ****     }
 865              		.loc 1 367 0
 866 001e FFF7FEFF 		bl	CLOCK__incrementMinuteandDisplay
 867              	.LVL77:
 868              	.L57:
 369:source\asw/clock.c **** 
ARM GAS  C:\Users\saman\AppData\Local\Temp\ccOAgYwr.s 			page 36


 869              		.loc 1 369 0
 870 0022 13B0     		add	sp, sp, #76
 871              		.cfi_def_cfa_offset 4
 872              		@ sp needed
 873 0024 5DF804FB 		ldr	pc, [sp], #4
 874              	.L62:
 875              		.align	2
 876              	.L61:
 877 0028 00000000 		.word	SO_INPUT_signal
 878              		.cfi_endproc
 879              	.LFE157:
 880              		.size	CLOCK__incrementWidget, .-CLOCK__incrementWidget
 881              		.section	.text.CLOCK__dispatch_Wrapper,"ax",%progbits
 882              		.align	2
 883              		.thumb
 884              		.thumb_func
 885              		.type	CLOCK__dispatch_Wrapper, %function
 886              	CLOCK__dispatch_Wrapper:
 887              	.LFB146:
 211:source\asw/clock.c ****     SC_INPUT_data_t input = RTE_SC_INPUT_get(&SO_INPUT_signal);
 888              		.loc 1 211 0
 889              		.cfi_startproc
 890              		@ args = 0, pretend = 0, frame = 408
 891              		@ frame_needed = 0, uses_anonymous_args = 0
 892              	.LVL78:
 893 0000 2DE9F043 		push	{r4, r5, r6, r7, r8, r9, lr}
 894              		.cfi_def_cfa_offset 28
 895              		.cfi_offset 4, -28
 896              		.cfi_offset 5, -24
 897              		.cfi_offset 6, -20
 898              		.cfi_offset 7, -16
 899              		.cfi_offset 8, -12
 900              		.cfi_offset 9, -8
 901              		.cfi_offset 14, -4
 902 0004 E7B0     		sub	sp, sp, #412
 903              		.cfi_def_cfa_offset 440
 904 0006 8046     		mov	r8, r0
 905 0008 0E46     		mov	r6, r1
 906              	.LVL79:
 907              	.LBB114:
 908              	.LBB115:
 909              		.loc 3 277 0
 910 000a 564C     		ldr	r4, .L77
 911 000c 4425     		movs	r5, #68
 912 000e 2A46     		mov	r2, r5
 913 0010 2146     		mov	r1, r4
 914              	.LVL80:
 915 0012 55A8     		add	r0, sp, #340
 916              	.LVL81:
 917 0014 FFF7FEFF 		bl	memcpy
 918              	.LVL82:
 919              	.LBE115:
 920              	.LBE114:
 222:source\asw/clock.c ****     //UART_LOG_PutString("CLOCK__dispatch_Wrapper active widget: ");
 921              		.loc 1 222 0
 922 0018 4FF00009 		mov	r9, #0
 923 001c 8DF85691 		strb	r9, [sp, #342]
ARM GAS  C:\Users\saman\AppData\Local\Temp\ccOAgYwr.s 			page 37


 224:source\asw/clock.c ****     
 924              		.loc 1 224 0
 925 0020 8DF86461 		strb	r6, [sp, #356]
 926              	.LVL83:
 927 0024 2A46     		mov	r2, r5
 928 0026 55A9     		add	r1, sp, #340
 929 0028 6846     		mov	r0, sp
 930 002a FFF7FEFF 		bl	memcpy
 931              	.LVL84:
 932              	.LBB116:
 933              	.LBB117:
 278:.\source\rte/sc_input.h **** }                                                                                                  
 279:.\source\rte/sc_input.h ****                                                                                                    
 280:.\source\rte/sc_input.h **** /**
 281:.\source\rte/sc_input.h ****  * Returns the current application value of the passed signal instance threadsafe.
 282:.\source\rte/sc_input.h ****  *
 283:.\source\rte/sc_input.h ****  * @param  SC_INPUT_t * const signal: Pointer to the signal object
 284:.\source\rte/sc_input.h ****  * @param  SC_INPUT_data_t* data: Pointer to the return data Pointer to the signal object
 285:.\source\rte/sc_input.h ****  * @return RC_SUCCESS
 286:.\source\rte/sc_input.h ****  *
 287:.\source\rte/sc_input.h ****  **/
 288:.\source\rte/sc_input.h **** inline RC_t RTE_SC_INPUT_getThreadSafe( const SC_INPUT_t * const signal, SC_INPUT_data_t * const da
 289:.\source\rte/sc_input.h **** {    
 290:.\source\rte/sc_input.h ****    if (TRUE == signal->pSigCfg->resourceActive) GetResource(signal->pSigCfg->resource);
 291:.\source\rte/sc_input.h ****    *data = signal->value;
 292:.\source\rte/sc_input.h ****    if (TRUE == signal->pSigCfg->resourceActive) ReleaseResource(signal->pSigCfg->resource);        
 293:.\source\rte/sc_input.h **** 
 294:.\source\rte/sc_input.h ****    return RC_SUCCESS;                                                                   
 295:.\source\rte/sc_input.h ****    
 296:.\source\rte/sc_input.h **** }                                                                                                  
 297:.\source\rte/sc_input.h ****                                                                                                    
 298:.\source\rte/sc_input.h **** /**
 299:.\source\rte/sc_input.h ****  * Sets a new application value to the passed signal instance by passing the new value.
 300:.\source\rte/sc_input.h ****  * The corresponding driver raw value will be calculated immediately by using the default conversio
 301:.\source\rte/sc_input.h ****  * signal specific scaling function.
 302:.\source\rte/sc_input.h ****  * The signal age will be set to 0 and the new status will be 'RTE_SIGNALSTATUS_VALID'.
 303:.\source\rte/sc_input.h ****  *
 304:.\source\rte/sc_input.h ****  * @param  SC_INPUT_t * const signal: Pointer to the signal object
 305:.\source\rte/sc_input.h ****  * @param  sc_input_data_t const value: value for the application data buffer
 306:.\source\rte/sc_input.h ****  * @return RC_t: standard return code, currently only RC_SUCCESS
 307:.\source\rte/sc_input.h ****  *
 308:.\source\rte/sc_input.h ****  **/
 309:.\source\rte/sc_input.h **** inline RC_t RTE_SC_INPUT_set(SC_INPUT_t * const signal, const SC_INPUT_data_t value  )
 310:.\source\rte/sc_input.h **** {
 311:.\source\rte/sc_input.h **** 
 312:.\source\rte/sc_input.h ****    RC_t ret = RC_SUCCESS;
 313:.\source\rte/sc_input.h ****    size_t taskNum=0;
 314:.\source\rte/sc_input.h **** 
 315:.\source\rte/sc_input.h **** 
 316:.\source\rte/sc_input.h ****    if (TRUE == signal->pSigCfg->resourceActive) GetResource(signal->pSigCfg->resource);
 934              		.loc 3 316 0
 935 002e E76C     		ldr	r7, [r4, #76]
 317:.\source\rte/sc_input.h ****    signal->value  = value;
 936              		.loc 3 317 0
 937 0030 2A46     		mov	r2, r5
 938 0032 6946     		mov	r1, sp
 939 0034 2046     		mov	r0, r4
ARM GAS  C:\Users\saman\AppData\Local\Temp\ccOAgYwr.s 			page 38


 940 0036 FFF7FEFF 		bl	memcpy
 941              	.LVL85:
 318:.\source\rte/sc_input.h ****    signal->age    = 0;
 942              		.loc 3 318 0
 943 003a C4F84890 		str	r9, [r4, #72]
 319:.\source\rte/sc_input.h ****    signal->status = RTE_SIGNALSTATUS_VALID;
 944              		.loc 3 319 0
 945 003e 0223     		movs	r3, #2
 946 0040 84F84430 		strb	r3, [r4, #68]
 320:.\source\rte/sc_input.h ****    if (TRUE == signal->pSigCfg->resourceActive) ReleaseResource(signal->pSigCfg->resource);
 321:.\source\rte/sc_input.h **** 
 322:.\source\rte/sc_input.h ****    //Pointer to the Taskarray, containing the tasks receiving the onUpdate events
 323:.\source\rte/sc_input.h ****    TaskTypeArray* pTaskArray = signal->pSigCfg->onUpdateTasks;
 947              		.loc 3 323 0
 948 0044 7D69     		ldr	r5, [r7, #20]
 949              	.LVL86:
 324:.\source\rte/sc_input.h **** 
 325:.\source\rte/sc_input.h ****    if (0 != signal->pSigCfg->evOnUpdate && NULL != pTaskArray){
 950              		.loc 3 325 0
 951 0046 BB68     		ldr	r3, [r7, #8]
 952 0048 73B1     		cbz	r3, .L64
 953 004a 3DB9     		cbnz	r5, .L73
 954 004c 0CE0     		b	.L64
 955              	.LVL87:
 956              	.L66:
 957              	.LBB118:
 326:.\source\rte/sc_input.h ****       for( taskNum=0 ; taskNum < signal->pSigCfg->onUpdateTaskCount ;taskNum++){
 327:.\source\rte/sc_input.h **** 		  
 328:.\source\rte/sc_input.h ****           TaskType task = (*pTaskArray)[taskNum];
 329:.\source\rte/sc_input.h **** 	      SetEvent( task, signal->pSigCfg->evOnUpdate);
 958              		.loc 3 329 0
 959 004e 9968     		ldr	r1, [r3, #8]
 960 0050 55F82400 		ldr	r0, [r5, r4, lsl #2]
 961 0054 FFF7FEFF 		bl	EE_oo_SetEvent
 962              	.LVL88:
 963              	.LBE118:
 326:.\source\rte/sc_input.h ****       for( taskNum=0 ; taskNum < signal->pSigCfg->onUpdateTaskCount ;taskNum++){
 964              		.loc 3 326 0
 965 0058 0134     		adds	r4, r4, #1
 966              	.LVL89:
 967 005a 00E0     		b	.L65
 968              	.LVL90:
 969              	.L73:
 325:.\source\rte/sc_input.h ****       for( taskNum=0 ; taskNum < signal->pSigCfg->onUpdateTaskCount ;taskNum++){
 970              		.loc 3 325 0
 971 005c 0024     		movs	r4, #0
 972              	.LVL91:
 973              	.L65:
 326:.\source\rte/sc_input.h ****       for( taskNum=0 ; taskNum < signal->pSigCfg->onUpdateTaskCount ;taskNum++){
 974              		.loc 3 326 0
 975 005e 414B     		ldr	r3, .L77
 976 0060 DB6C     		ldr	r3, [r3, #76]
 977 0062 1A69     		ldr	r2, [r3, #16]
 978 0064 9442     		cmp	r4, r2
 979 0066 F2D3     		bcc	.L66
 980              	.LVL92:
 981              	.L64:
ARM GAS  C:\Users\saman\AppData\Local\Temp\ccOAgYwr.s 			page 39


 982              	.LBE117:
 983              	.LBE116:
 233:source\asw/clock.c ****     {
 984              		.loc 1 233 0
 985 0068 002E     		cmp	r6, #0
 986 006a 3CD1     		bne	.L67
 987              	.LBB119:
 235:source\asw/clock.c ****         
 988              		.loc 1 235 0
 989 006c 9DF86831 		ldrb	r3, [sp, #360]	@ zero_extendqisi2
 990              	.LVL93:
 246:source\asw/clock.c ****         STATE_processEvent(&widgetFSM,ev);
 991              		.loc 1 246 0
 992 0070 3D4E     		ldr	r6, .L77+4
 993 0072 F381     		strh	r3, [r6, #14]	@ movhi
 247:source\asw/clock.c ****         
 994              		.loc 1 247 0
 995 0074 4146     		mov	r1, r8
 996 0076 3046     		mov	r0, r6
 997 0078 FFF7FEFF 		bl	STATE_processEvent
 998              	.LVL94:
 999              	.LBB120:
 1000              	.LBB121:
 277:.\source\rte/sc_input.h **** }                                                                                                  
 1001              		.loc 3 277 0
 1002 007c 394C     		ldr	r4, .L77
 1003 007e 4425     		movs	r5, #68
 1004 0080 2A46     		mov	r2, r5
 1005 0082 2146     		mov	r1, r4
 1006 0084 22A8     		add	r0, sp, #136
 1007 0086 FFF7FEFF 		bl	memcpy
 1008              	.LVL95:
 1009              	.LBE121:
 1010              	.LBE120:
 255:source\asw/clock.c ****         input.m_clock_data.m_hours.m_widgetState = widgetFSM.m_state;
 1011              		.loc 1 255 0
 1012 008a 2A46     		mov	r2, r5
 1013 008c 22A9     		add	r1, sp, #136
 1014 008e 55A8     		add	r0, sp, #340
 1015 0090 FFF7FEFF 		bl	memcpy
 1016              	.LVL96:
 256:source\asw/clock.c ****         RTE_SC_INPUT_set(&SO_INPUT_signal, input);
 1017              		.loc 1 256 0
 1018 0094 F389     		ldrh	r3, [r6, #14]
 1019 0096 8DF86831 		strb	r3, [sp, #360]
 1020              	.LVL97:
 1021 009a 2A46     		mov	r2, r5
 1022 009c 55A9     		add	r1, sp, #340
 1023 009e 0DEB0500 		add	r0, sp, r5
 1024 00a2 FFF7FEFF 		bl	memcpy
 1025              	.LVL98:
 1026              	.LBB122:
 1027              	.LBB123:
 316:.\source\rte/sc_input.h ****    signal->value  = value;
 1028              		.loc 3 316 0
 1029 00a6 E66C     		ldr	r6, [r4, #76]
 317:.\source\rte/sc_input.h ****    signal->age    = 0;
ARM GAS  C:\Users\saman\AppData\Local\Temp\ccOAgYwr.s 			page 40


 1030              		.loc 3 317 0
 1031 00a8 2A46     		mov	r2, r5
 1032 00aa 0DEB0501 		add	r1, sp, r5
 1033 00ae 2046     		mov	r0, r4
 1034 00b0 FFF7FEFF 		bl	memcpy
 1035              	.LVL99:
 318:.\source\rte/sc_input.h ****    signal->status = RTE_SIGNALSTATUS_VALID;
 1036              		.loc 3 318 0
 1037 00b4 0023     		movs	r3, #0
 1038 00b6 A364     		str	r3, [r4, #72]
 319:.\source\rte/sc_input.h ****    if (TRUE == signal->pSigCfg->resourceActive) ReleaseResource(signal->pSigCfg->resource);
 1039              		.loc 3 319 0
 1040 00b8 0223     		movs	r3, #2
 1041 00ba 84F84430 		strb	r3, [r4, #68]
 323:.\source\rte/sc_input.h **** 
 1042              		.loc 3 323 0
 1043 00be 7569     		ldr	r5, [r6, #20]
 1044              	.LVL100:
 325:.\source\rte/sc_input.h ****       for( taskNum=0 ; taskNum < signal->pSigCfg->onUpdateTaskCount ;taskNum++){
 1045              		.loc 3 325 0
 1046 00c0 B368     		ldr	r3, [r6, #8]
 1047 00c2 002B     		cmp	r3, #0
 1048 00c4 4AD0     		beq	.L63
 1049 00c6 3DB9     		cbnz	r5, .L74
 1050 00c8 48E0     		b	.L63
 1051              	.LVL101:
 1052              	.L70:
 1053              	.LBB124:
 1054              		.loc 3 329 0
 1055 00ca 9968     		ldr	r1, [r3, #8]
 1056 00cc 55F82400 		ldr	r0, [r5, r4, lsl #2]
 1057 00d0 FFF7FEFF 		bl	EE_oo_SetEvent
 1058              	.LVL102:
 1059              	.LBE124:
 326:.\source\rte/sc_input.h **** 		  
 1060              		.loc 3 326 0
 1061 00d4 0134     		adds	r4, r4, #1
 1062              	.LVL103:
 1063 00d6 00E0     		b	.L69
 1064              	.LVL104:
 1065              	.L74:
 325:.\source\rte/sc_input.h ****       for( taskNum=0 ; taskNum < signal->pSigCfg->onUpdateTaskCount ;taskNum++){
 1066              		.loc 3 325 0
 1067 00d8 0024     		movs	r4, #0
 1068              	.LVL105:
 1069              	.L69:
 326:.\source\rte/sc_input.h **** 		  
 1070              		.loc 3 326 0
 1071 00da 224B     		ldr	r3, .L77
 1072 00dc DB6C     		ldr	r3, [r3, #76]
 1073 00de 1A69     		ldr	r2, [r3, #16]
 1074 00e0 9442     		cmp	r4, r2
 1075 00e2 F2D3     		bcc	.L70
 1076 00e4 3AE0     		b	.L63
 1077              	.LVL106:
 1078              	.L67:
 1079              	.LBE123:
ARM GAS  C:\Users\saman\AppData\Local\Temp\ccOAgYwr.s 			page 41


 1080              	.LBE122:
 1081              	.LBE119:
 259:source\asw/clock.c ****     {
 1082              		.loc 1 259 0
 1083 00e6 012E     		cmp	r6, #1
 1084 00e8 38D1     		bne	.L63
 1085              	.LBB125:
 261:source\asw/clock.c ****         
 1086              		.loc 1 261 0
 1087 00ea 9DF88031 		ldrb	r3, [sp, #384]	@ zero_extendqisi2
 1088              	.LVL107:
 268:source\asw/clock.c ****         STATE_processEvent(&widgetFSM,ev);
 1089              		.loc 1 268 0
 1090 00ee 1E4E     		ldr	r6, .L77+4
 1091 00f0 F381     		strh	r3, [r6, #14]	@ movhi
 269:source\asw/clock.c ****         /*UART_LOG_PutString("Minute widget state: after process ");
 1092              		.loc 1 269 0
 1093 00f2 4146     		mov	r1, r8
 1094 00f4 3046     		mov	r0, r6
 1095 00f6 FFF7FEFF 		bl	STATE_processEvent
 1096              	.LVL108:
 1097              	.LBB126:
 1098              	.LBB127:
 277:.\source\rte/sc_input.h **** }                                                                                                  
 1099              		.loc 3 277 0
 1100 00fa 1A4C     		ldr	r4, .L77
 1101 00fc 4425     		movs	r5, #68
 1102 00fe 2A46     		mov	r2, r5
 1103 0100 2146     		mov	r1, r4
 1104 0102 44A8     		add	r0, sp, #272
 1105 0104 FFF7FEFF 		bl	memcpy
 1106              	.LVL109:
 1107              	.LBE127:
 1108              	.LBE126:
 274:source\asw/clock.c ****         
 1109              		.loc 1 274 0
 1110 0108 2A46     		mov	r2, r5
 1111 010a 44A9     		add	r1, sp, #272
 1112 010c 55A8     		add	r0, sp, #340
 1113 010e FFF7FEFF 		bl	memcpy
 1114              	.LVL110:
 276:source\asw/clock.c ****         
 1115              		.loc 1 276 0
 1116 0112 F389     		ldrh	r3, [r6, #14]
 1117 0114 8DF88031 		strb	r3, [sp, #384]
 1118              	.LVL111:
 1119 0118 2A46     		mov	r2, r5
 1120 011a 55A9     		add	r1, sp, #340
 1121 011c 33A8     		add	r0, sp, #204
 1122 011e FFF7FEFF 		bl	memcpy
 1123              	.LVL112:
 1124              	.LBB128:
 1125              	.LBB129:
 316:.\source\rte/sc_input.h ****    signal->value  = value;
 1126              		.loc 3 316 0
 1127 0122 E66C     		ldr	r6, [r4, #76]
 317:.\source\rte/sc_input.h ****    signal->age    = 0;
ARM GAS  C:\Users\saman\AppData\Local\Temp\ccOAgYwr.s 			page 42


 1128              		.loc 3 317 0
 1129 0124 2A46     		mov	r2, r5
 1130 0126 33A9     		add	r1, sp, #204
 1131 0128 2046     		mov	r0, r4
 1132 012a FFF7FEFF 		bl	memcpy
 1133              	.LVL113:
 318:.\source\rte/sc_input.h ****    signal->status = RTE_SIGNALSTATUS_VALID;
 1134              		.loc 3 318 0
 1135 012e 0023     		movs	r3, #0
 1136 0130 A364     		str	r3, [r4, #72]
 319:.\source\rte/sc_input.h ****    if (TRUE == signal->pSigCfg->resourceActive) ReleaseResource(signal->pSigCfg->resource);
 1137              		.loc 3 319 0
 1138 0132 0223     		movs	r3, #2
 1139 0134 84F84430 		strb	r3, [r4, #68]
 323:.\source\rte/sc_input.h **** 
 1140              		.loc 3 323 0
 1141 0138 7569     		ldr	r5, [r6, #20]
 1142              	.LVL114:
 325:.\source\rte/sc_input.h ****       for( taskNum=0 ; taskNum < signal->pSigCfg->onUpdateTaskCount ;taskNum++){
 1143              		.loc 3 325 0
 1144 013a B368     		ldr	r3, [r6, #8]
 1145 013c 73B1     		cbz	r3, .L63
 1146 013e 3DB9     		cbnz	r5, .L75
 1147 0140 0CE0     		b	.L63
 1148              	.LVL115:
 1149              	.L72:
 1150              	.LBB130:
 1151              		.loc 3 329 0
 1152 0142 9968     		ldr	r1, [r3, #8]
 1153 0144 55F82400 		ldr	r0, [r5, r4, lsl #2]
 1154 0148 FFF7FEFF 		bl	EE_oo_SetEvent
 1155              	.LVL116:
 1156              	.LBE130:
 326:.\source\rte/sc_input.h **** 		  
 1157              		.loc 3 326 0
 1158 014c 0134     		adds	r4, r4, #1
 1159              	.LVL117:
 1160 014e 00E0     		b	.L71
 1161              	.LVL118:
 1162              	.L75:
 325:.\source\rte/sc_input.h ****       for( taskNum=0 ; taskNum < signal->pSigCfg->onUpdateTaskCount ;taskNum++){
 1163              		.loc 3 325 0
 1164 0150 0024     		movs	r4, #0
 1165              	.LVL119:
 1166              	.L71:
 326:.\source\rte/sc_input.h **** 		  
 1167              		.loc 3 326 0
 1168 0152 044B     		ldr	r3, .L77
 1169 0154 DB6C     		ldr	r3, [r3, #76]
 1170 0156 1A69     		ldr	r2, [r3, #16]
 1171 0158 9442     		cmp	r4, r2
 1172 015a F2D3     		bcc	.L72
 1173              	.LVL120:
 1174              	.L63:
 1175              	.LBE129:
 1176              	.LBE128:
 1177              	.LBE125:
ARM GAS  C:\Users\saman\AppData\Local\Temp\ccOAgYwr.s 			page 43


 280:source\asw/clock.c **** 
 1178              		.loc 1 280 0
 1179 015c 67B0     		add	sp, sp, #412
 1180              		.cfi_def_cfa_offset 28
 1181              		@ sp needed
 1182 015e BDE8F083 		pop	{r4, r5, r6, r7, r8, r9, pc}
 1183              	.L78:
 1184 0162 00BF     		.align	2
 1185              	.L77:
 1186 0164 00000000 		.word	SO_INPUT_signal
 1187 0168 00000000 		.word	.LANCHOR0
 1188              		.cfi_endproc
 1189              	.LFE146:
 1190              		.size	CLOCK__dispatch_Wrapper, .-CLOCK__dispatch_Wrapper
 1191              		.section	.text.CLOCK__dispatch_KL_Hours,"ax",%progbits
 1192              		.align	2
 1193              		.thumb
 1194              		.thumb_func
 1195              		.type	CLOCK__dispatch_KL_Hours, %function
 1196              	CLOCK__dispatch_KL_Hours:
 1197              	.LFB147:
 283:source\asw/clock.c ****     //UART_LOG_PutString("CLOCK__dispatch_KL_Hours\n");
 1198              		.loc 1 283 0
 1199              		.cfi_startproc
 1200              		@ args = 0, pretend = 0, frame = 136
 1201              		@ frame_needed = 0, uses_anonymous_args = 0
 1202 0000 70B5     		push	{r4, r5, r6, lr}
 1203              		.cfi_def_cfa_offset 16
 1204              		.cfi_offset 4, -16
 1205              		.cfi_offset 5, -12
 1206              		.cfi_offset 6, -8
 1207              		.cfi_offset 14, -4
 1208 0002 A2B0     		sub	sp, sp, #136
 1209              		.cfi_def_cfa_offset 152
 1210              	.LVL121:
 1211              	.LBB131:
 1212              	.LBB132:
 277:.\source\rte/sc_input.h **** }                                                                                                  
 1213              		.loc 3 277 0
 1214 0004 194C     		ldr	r4, .L85
 1215 0006 4425     		movs	r5, #68
 1216 0008 2A46     		mov	r2, r5
 1217 000a 2146     		mov	r1, r4
 1218 000c 0DEB0500 		add	r0, sp, r5
 1219 0010 FFF7FEFF 		bl	memcpy
 1220              	.LVL122:
 1221              	.LBE132:
 1222              	.LBE131:
 286:source\asw/clock.c ****     RTE_SC_INPUT_set(&SO_INPUT_signal, input);
 1223              		.loc 1 286 0
 1224 0014 0323     		movs	r3, #3
 1225 0016 8DF85830 		strb	r3, [sp, #88]
 1226              	.LVL123:
 1227 001a 2A46     		mov	r2, r5
 1228 001c 0DEB0501 		add	r1, sp, r5
 1229 0020 6846     		mov	r0, sp
 1230 0022 FFF7FEFF 		bl	memcpy
ARM GAS  C:\Users\saman\AppData\Local\Temp\ccOAgYwr.s 			page 44


 1231              	.LVL124:
 1232              	.LBB133:
 1233              	.LBB134:
 316:.\source\rte/sc_input.h ****    signal->value  = value;
 1234              		.loc 3 316 0
 1235 0026 E66C     		ldr	r6, [r4, #76]
 317:.\source\rte/sc_input.h ****    signal->age    = 0;
 1236              		.loc 3 317 0
 1237 0028 2A46     		mov	r2, r5
 1238 002a 6946     		mov	r1, sp
 1239 002c 2046     		mov	r0, r4
 1240 002e FFF7FEFF 		bl	memcpy
 1241              	.LVL125:
 318:.\source\rte/sc_input.h ****    signal->status = RTE_SIGNALSTATUS_VALID;
 1242              		.loc 3 318 0
 1243 0032 0023     		movs	r3, #0
 1244 0034 A364     		str	r3, [r4, #72]
 319:.\source\rte/sc_input.h ****    if (TRUE == signal->pSigCfg->resourceActive) ReleaseResource(signal->pSigCfg->resource);
 1245              		.loc 3 319 0
 1246 0036 0223     		movs	r3, #2
 1247 0038 84F84430 		strb	r3, [r4, #68]
 323:.\source\rte/sc_input.h **** 
 1248              		.loc 3 323 0
 1249 003c 7569     		ldr	r5, [r6, #20]
 1250              	.LVL126:
 325:.\source\rte/sc_input.h ****       for( taskNum=0 ; taskNum < signal->pSigCfg->onUpdateTaskCount ;taskNum++){
 1251              		.loc 3 325 0
 1252 003e B368     		ldr	r3, [r6, #8]
 1253 0040 73B1     		cbz	r3, .L80
 1254 0042 3DB9     		cbnz	r5, .L83
 1255 0044 0CE0     		b	.L80
 1256              	.LVL127:
 1257              	.L82:
 1258              	.LBB135:
 1259              		.loc 3 329 0
 1260 0046 9968     		ldr	r1, [r3, #8]
 1261 0048 55F82400 		ldr	r0, [r5, r4, lsl #2]
 1262 004c FFF7FEFF 		bl	EE_oo_SetEvent
 1263              	.LVL128:
 1264              	.LBE135:
 326:.\source\rte/sc_input.h **** 		  
 1265              		.loc 3 326 0
 1266 0050 0134     		adds	r4, r4, #1
 1267              	.LVL129:
 1268 0052 00E0     		b	.L81
 1269              	.LVL130:
 1270              	.L83:
 325:.\source\rte/sc_input.h ****       for( taskNum=0 ; taskNum < signal->pSigCfg->onUpdateTaskCount ;taskNum++){
 1271              		.loc 3 325 0
 1272 0054 0024     		movs	r4, #0
 1273              	.LVL131:
 1274              	.L81:
 326:.\source\rte/sc_input.h **** 		  
 1275              		.loc 3 326 0
 1276 0056 054B     		ldr	r3, .L85
 1277 0058 DB6C     		ldr	r3, [r3, #76]
 1278 005a 1A69     		ldr	r2, [r3, #16]
ARM GAS  C:\Users\saman\AppData\Local\Temp\ccOAgYwr.s 			page 45


 1279 005c 9442     		cmp	r4, r2
 1280 005e F2D3     		bcc	.L82
 1281              	.LVL132:
 1282              	.L80:
 1283              	.LBE134:
 1284              	.LBE133:
 288:source\asw/clock.c **** }
 1285              		.loc 1 288 0
 1286 0060 0021     		movs	r1, #0
 1287 0062 0120     		movs	r0, #1
 1288 0064 FFF7FEFF 		bl	CLOCK__dispatch_Wrapper
 1289              	.LVL133:
 289:source\asw/clock.c **** 
 1290              		.loc 1 289 0
 1291 0068 22B0     		add	sp, sp, #136
 1292              		.cfi_def_cfa_offset 16
 1293              		@ sp needed
 1294 006a 70BD     		pop	{r4, r5, r6, pc}
 1295              	.L86:
 1296              		.align	2
 1297              	.L85:
 1298 006c 00000000 		.word	SO_INPUT_signal
 1299              		.cfi_endproc
 1300              	.LFE147:
 1301              		.size	CLOCK__dispatch_KL_Hours, .-CLOCK__dispatch_KL_Hours
 1302              		.section	.text.CLOCK__dispatch_250MS_Hours,"ax",%progbits
 1303              		.align	2
 1304              		.thumb
 1305              		.thumb_func
 1306              		.type	CLOCK__dispatch_250MS_Hours, %function
 1307              	CLOCK__dispatch_250MS_Hours:
 1308              	.LFB152:
 324:source\asw/clock.c ****     //UART_LOG_PutString("CLOCK__dispatch_250MS_Hours\n");
 1309              		.loc 1 324 0
 1310              		.cfi_startproc
 1311              		@ args = 0, pretend = 0, frame = 0
 1312              		@ frame_needed = 0, uses_anonymous_args = 0
 1313 0000 08B5     		push	{r3, lr}
 1314              		.cfi_def_cfa_offset 8
 1315              		.cfi_offset 3, -8
 1316              		.cfi_offset 14, -4
 326:source\asw/clock.c **** }
 1317              		.loc 1 326 0
 1318 0002 0021     		movs	r1, #0
 1319 0004 0420     		movs	r0, #4
 1320 0006 FFF7FEFF 		bl	CLOCK__dispatch_Wrapper
 1321              	.LVL134:
 1322 000a 08BD     		pop	{r3, pc}
 1323              		.cfi_endproc
 1324              	.LFE152:
 1325              		.size	CLOCK__dispatch_250MS_Hours, .-CLOCK__dispatch_250MS_Hours
 1326              		.section	.text.CLOCK__dispatch_KRLP_Hours,"ax",%progbits
 1327              		.align	2
 1328              		.thumb
 1329              		.thumb_func
 1330              		.type	CLOCK__dispatch_KRLP_Hours, %function
 1331              	CLOCK__dispatch_KRLP_Hours:
ARM GAS  C:\Users\saman\AppData\Local\Temp\ccOAgYwr.s 			page 46


 1332              	.LFB151:
 315:source\asw/clock.c ****     //UART_LOG_PutString("CLOCK__dispatch_KRLP_Hours\n");
 1333              		.loc 1 315 0
 1334              		.cfi_startproc
 1335              		@ args = 0, pretend = 0, frame = 136
 1336              		@ frame_needed = 0, uses_anonymous_args = 0
 1337 0000 70B5     		push	{r4, r5, r6, lr}
 1338              		.cfi_def_cfa_offset 16
 1339              		.cfi_offset 4, -16
 1340              		.cfi_offset 5, -12
 1341              		.cfi_offset 6, -8
 1342              		.cfi_offset 14, -4
 1343 0002 A2B0     		sub	sp, sp, #136
 1344              		.cfi_def_cfa_offset 152
 1345              	.LVL135:
 1346              	.LBB136:
 1347              	.LBB137:
 277:.\source\rte/sc_input.h **** }                                                                                                  
 1348              		.loc 3 277 0
 1349 0004 194C     		ldr	r4, .L95
 1350 0006 4425     		movs	r5, #68
 1351 0008 2A46     		mov	r2, r5
 1352 000a 2146     		mov	r1, r4
 1353 000c 0DEB0500 		add	r0, sp, r5
 1354 0010 FFF7FEFF 		bl	memcpy
 1355              	.LVL136:
 1356              	.LBE137:
 1357              	.LBE136:
 318:source\asw/clock.c ****     RTE_SC_INPUT_set(&SO_INPUT_signal, input);
 1358              		.loc 1 318 0
 1359 0014 0423     		movs	r3, #4
 1360 0016 8DF85830 		strb	r3, [sp, #88]
 1361              	.LVL137:
 1362 001a 2A46     		mov	r2, r5
 1363 001c 0DEB0501 		add	r1, sp, r5
 1364 0020 6846     		mov	r0, sp
 1365 0022 FFF7FEFF 		bl	memcpy
 1366              	.LVL138:
 1367              	.LBB138:
 1368              	.LBB139:
 316:.\source\rte/sc_input.h ****    signal->value  = value;
 1369              		.loc 3 316 0
 1370 0026 E66C     		ldr	r6, [r4, #76]
 317:.\source\rte/sc_input.h ****    signal->age    = 0;
 1371              		.loc 3 317 0
 1372 0028 2A46     		mov	r2, r5
 1373 002a 6946     		mov	r1, sp
 1374 002c 2046     		mov	r0, r4
 1375 002e FFF7FEFF 		bl	memcpy
 1376              	.LVL139:
 318:.\source\rte/sc_input.h ****    signal->status = RTE_SIGNALSTATUS_VALID;
 1377              		.loc 3 318 0
 1378 0032 0023     		movs	r3, #0
 1379 0034 A364     		str	r3, [r4, #72]
 319:.\source\rte/sc_input.h ****    if (TRUE == signal->pSigCfg->resourceActive) ReleaseResource(signal->pSigCfg->resource);
 1380              		.loc 3 319 0
 1381 0036 0223     		movs	r3, #2
ARM GAS  C:\Users\saman\AppData\Local\Temp\ccOAgYwr.s 			page 47


 1382 0038 84F84430 		strb	r3, [r4, #68]
 323:.\source\rte/sc_input.h **** 
 1383              		.loc 3 323 0
 1384 003c 7569     		ldr	r5, [r6, #20]
 1385              	.LVL140:
 325:.\source\rte/sc_input.h ****       for( taskNum=0 ; taskNum < signal->pSigCfg->onUpdateTaskCount ;taskNum++){
 1386              		.loc 3 325 0
 1387 003e B368     		ldr	r3, [r6, #8]
 1388 0040 73B1     		cbz	r3, .L90
 1389 0042 3DB9     		cbnz	r5, .L93
 1390 0044 0CE0     		b	.L90
 1391              	.LVL141:
 1392              	.L92:
 1393              	.LBB140:
 1394              		.loc 3 329 0
 1395 0046 9968     		ldr	r1, [r3, #8]
 1396 0048 55F82400 		ldr	r0, [r5, r4, lsl #2]
 1397 004c FFF7FEFF 		bl	EE_oo_SetEvent
 1398              	.LVL142:
 1399              	.LBE140:
 326:.\source\rte/sc_input.h **** 		  
 1400              		.loc 3 326 0
 1401 0050 0134     		adds	r4, r4, #1
 1402              	.LVL143:
 1403 0052 00E0     		b	.L91
 1404              	.LVL144:
 1405              	.L93:
 325:.\source\rte/sc_input.h ****       for( taskNum=0 ; taskNum < signal->pSigCfg->onUpdateTaskCount ;taskNum++){
 1406              		.loc 3 325 0
 1407 0054 0024     		movs	r4, #0
 1408              	.LVL145:
 1409              	.L91:
 326:.\source\rte/sc_input.h **** 		  
 1410              		.loc 3 326 0
 1411 0056 054B     		ldr	r3, .L95
 1412 0058 DB6C     		ldr	r3, [r3, #76]
 1413 005a 1A69     		ldr	r2, [r3, #16]
 1414 005c 9442     		cmp	r4, r2
 1415 005e F2D3     		bcc	.L92
 1416              	.LVL146:
 1417              	.L90:
 1418              	.LBE139:
 1419              	.LBE138:
 320:source\asw/clock.c **** }
 1420              		.loc 1 320 0
 1421 0060 0021     		movs	r1, #0
 1422 0062 0320     		movs	r0, #3
 1423 0064 FFF7FEFF 		bl	CLOCK__dispatch_Wrapper
 1424              	.LVL147:
 321:source\asw/clock.c **** 
 1425              		.loc 1 321 0
 1426 0068 22B0     		add	sp, sp, #136
 1427              		.cfi_def_cfa_offset 16
 1428              		@ sp needed
 1429 006a 70BD     		pop	{r4, r5, r6, pc}
 1430              	.L96:
 1431              		.align	2
ARM GAS  C:\Users\saman\AppData\Local\Temp\ccOAgYwr.s 			page 48


 1432              	.L95:
 1433 006c 00000000 		.word	SO_INPUT_signal
 1434              		.cfi_endproc
 1435              	.LFE151:
 1436              		.size	CLOCK__dispatch_KRLP_Hours, .-CLOCK__dispatch_KRLP_Hours
 1437              		.section	.text.CLOCK__dispatch_KR_Hours,"ax",%progbits
 1438              		.align	2
 1439              		.thumb
 1440              		.thumb_func
 1441              		.type	CLOCK__dispatch_KR_Hours, %function
 1442              	CLOCK__dispatch_KR_Hours:
 1443              	.LFB150:
 309:source\asw/clock.c ****     //UART_LOG_PutString("CLOCK__dispatch_KR_Hours\n");
 1444              		.loc 1 309 0
 1445              		.cfi_startproc
 1446              		@ args = 0, pretend = 0, frame = 0
 1447              		@ frame_needed = 0, uses_anonymous_args = 0
 1448 0000 08B5     		push	{r3, lr}
 1449              		.cfi_def_cfa_offset 8
 1450              		.cfi_offset 3, -8
 1451              		.cfi_offset 14, -4
 311:source\asw/clock.c **** }
 1452              		.loc 1 311 0
 1453 0002 0021     		movs	r1, #0
 1454 0004 0220     		movs	r0, #2
 1455 0006 FFF7FEFF 		bl	CLOCK__dispatch_Wrapper
 1456              	.LVL148:
 1457 000a 08BD     		pop	{r3, pc}
 1458              		.cfi_endproc
 1459              	.LFE150:
 1460              		.size	CLOCK__dispatch_KR_Hours, .-CLOCK__dispatch_KR_Hours
 1461              		.section	.text.CLOCK__dispatch_KL_HoursMin,"ax",%progbits
 1462              		.align	2
 1463              		.thumb
 1464              		.thumb_func
 1465              		.type	CLOCK__dispatch_KL_HoursMin, %function
 1466              	CLOCK__dispatch_KL_HoursMin:
 1467              	.LFB149:
 297:source\asw/clock.c ****     //UART_LOG_PutString("CLOCK__dispatch_KL_HoursMin\n");
 1468              		.loc 1 297 0
 1469              		.cfi_startproc
 1470              		@ args = 0, pretend = 0, frame = 136
 1471              		@ frame_needed = 0, uses_anonymous_args = 0
 1472 0000 70B5     		push	{r4, r5, r6, lr}
 1473              		.cfi_def_cfa_offset 16
 1474              		.cfi_offset 4, -16
 1475              		.cfi_offset 5, -12
 1476              		.cfi_offset 6, -8
 1477              		.cfi_offset 14, -4
 1478 0002 A2B0     		sub	sp, sp, #136
 1479              		.cfi_def_cfa_offset 152
 1480              	.LVL149:
 1481              	.LBB141:
 1482              	.LBB142:
 277:.\source\rte/sc_input.h **** }                                                                                                  
 1483              		.loc 3 277 0
 1484 0004 1D4C     		ldr	r4, .L105
ARM GAS  C:\Users\saman\AppData\Local\Temp\ccOAgYwr.s 			page 49


 1485 0006 4425     		movs	r5, #68
 1486 0008 2A46     		mov	r2, r5
 1487 000a 2146     		mov	r1, r4
 1488 000c 0DEB0500 		add	r0, sp, r5
 1489 0010 FFF7FEFF 		bl	memcpy
 1490              	.LVL150:
 1491              	.LBE142:
 1492              	.LBE141:
 300:source\asw/clock.c ****     input.m_clock_data.m_minutes.m_widgetState = CLOCK_W_ISDISPLAYING;
 1493              		.loc 1 300 0
 1494 0014 0423     		movs	r3, #4
 1495 0016 8DF85830 		strb	r3, [sp, #88]
 301:source\asw/clock.c ****     RTE_SC_INPUT_set(&SO_INPUT_signal, input);
 1496              		.loc 1 301 0
 1497 001a 0323     		movs	r3, #3
 1498 001c 8DF87030 		strb	r3, [sp, #112]
 1499              	.LVL151:
 1500 0020 2A46     		mov	r2, r5
 1501 0022 0DEB0501 		add	r1, sp, r5
 1502 0026 6846     		mov	r0, sp
 1503 0028 FFF7FEFF 		bl	memcpy
 1504              	.LVL152:
 1505              	.LBB143:
 1506              	.LBB144:
 316:.\source\rte/sc_input.h ****    signal->value  = value;
 1507              		.loc 3 316 0
 1508 002c E66C     		ldr	r6, [r4, #76]
 317:.\source\rte/sc_input.h ****    signal->age    = 0;
 1509              		.loc 3 317 0
 1510 002e 2A46     		mov	r2, r5
 1511 0030 6946     		mov	r1, sp
 1512 0032 2046     		mov	r0, r4
 1513 0034 FFF7FEFF 		bl	memcpy
 1514              	.LVL153:
 318:.\source\rte/sc_input.h ****    signal->status = RTE_SIGNALSTATUS_VALID;
 1515              		.loc 3 318 0
 1516 0038 0023     		movs	r3, #0
 1517 003a A364     		str	r3, [r4, #72]
 319:.\source\rte/sc_input.h ****    if (TRUE == signal->pSigCfg->resourceActive) ReleaseResource(signal->pSigCfg->resource);
 1518              		.loc 3 319 0
 1519 003c 0223     		movs	r3, #2
 1520 003e 84F84430 		strb	r3, [r4, #68]
 323:.\source\rte/sc_input.h **** 
 1521              		.loc 3 323 0
 1522 0042 7569     		ldr	r5, [r6, #20]
 1523              	.LVL154:
 325:.\source\rte/sc_input.h ****       for( taskNum=0 ; taskNum < signal->pSigCfg->onUpdateTaskCount ;taskNum++){
 1524              		.loc 3 325 0
 1525 0044 B368     		ldr	r3, [r6, #8]
 1526 0046 73B1     		cbz	r3, .L100
 1527 0048 3DB9     		cbnz	r5, .L103
 1528 004a 0CE0     		b	.L100
 1529              	.LVL155:
 1530              	.L102:
 1531              	.LBB145:
 1532              		.loc 3 329 0
 1533 004c 9968     		ldr	r1, [r3, #8]
ARM GAS  C:\Users\saman\AppData\Local\Temp\ccOAgYwr.s 			page 50


 1534 004e 55F82400 		ldr	r0, [r5, r4, lsl #2]
 1535 0052 FFF7FEFF 		bl	EE_oo_SetEvent
 1536              	.LVL156:
 1537              	.LBE145:
 326:.\source\rte/sc_input.h **** 		  
 1538              		.loc 3 326 0
 1539 0056 0134     		adds	r4, r4, #1
 1540              	.LVL157:
 1541 0058 00E0     		b	.L101
 1542              	.LVL158:
 1543              	.L103:
 325:.\source\rte/sc_input.h ****       for( taskNum=0 ; taskNum < signal->pSigCfg->onUpdateTaskCount ;taskNum++){
 1544              		.loc 3 325 0
 1545 005a 0024     		movs	r4, #0
 1546              	.LVL159:
 1547              	.L101:
 326:.\source\rte/sc_input.h **** 		  
 1548              		.loc 3 326 0
 1549 005c 074B     		ldr	r3, .L105
 1550 005e DB6C     		ldr	r3, [r3, #76]
 1551 0060 1A69     		ldr	r2, [r3, #16]
 1552 0062 9442     		cmp	r4, r2
 1553 0064 F2D3     		bcc	.L102
 1554              	.LVL160:
 1555              	.L100:
 1556              	.LBE144:
 1557              	.LBE143:
 304:source\asw/clock.c ****     CLOCK__dispatch_Wrapper(EV_KEYLEFT, CLOCK_MINWIDGET);
 1558              		.loc 1 304 0
 1559 0066 0021     		movs	r1, #0
 1560 0068 0120     		movs	r0, #1
 1561 006a FFF7FEFF 		bl	CLOCK__dispatch_Wrapper
 1562              	.LVL161:
 305:source\asw/clock.c **** }
 1563              		.loc 1 305 0
 1564 006e 0121     		movs	r1, #1
 1565 0070 0846     		mov	r0, r1
 1566 0072 FFF7FEFF 		bl	CLOCK__dispatch_Wrapper
 1567              	.LVL162:
 306:source\asw/clock.c **** 
 1568              		.loc 1 306 0
 1569 0076 22B0     		add	sp, sp, #136
 1570              		.cfi_def_cfa_offset 16
 1571              		@ sp needed
 1572 0078 70BD     		pop	{r4, r5, r6, pc}
 1573              	.L106:
 1574 007a 00BF     		.align	2
 1575              	.L105:
 1576 007c 00000000 		.word	SO_INPUT_signal
 1577              		.cfi_endproc
 1578              	.LFE149:
 1579              		.size	CLOCK__dispatch_KL_HoursMin, .-CLOCK__dispatch_KL_HoursMin
 1580              		.section	.text.CLOCK__dispatch_250MS_Min,"ax",%progbits
 1581              		.align	2
 1582              		.thumb
 1583              		.thumb_func
 1584              		.type	CLOCK__dispatch_250MS_Min, %function
ARM GAS  C:\Users\saman\AppData\Local\Temp\ccOAgYwr.s 			page 51


 1585              	CLOCK__dispatch_250MS_Min:
 1586              	.LFB156:
 351:source\asw/clock.c ****     //UART_LOG_PutString("CLOCK__dispatch_250MS_Min\n");
 1587              		.loc 1 351 0
 1588              		.cfi_startproc
 1589              		@ args = 0, pretend = 0, frame = 0
 1590              		@ frame_needed = 0, uses_anonymous_args = 0
 1591 0000 08B5     		push	{r3, lr}
 1592              		.cfi_def_cfa_offset 8
 1593              		.cfi_offset 3, -8
 1594              		.cfi_offset 14, -4
 353:source\asw/clock.c **** }
 1595              		.loc 1 353 0
 1596 0002 0121     		movs	r1, #1
 1597 0004 0420     		movs	r0, #4
 1598 0006 FFF7FEFF 		bl	CLOCK__dispatch_Wrapper
 1599              	.LVL163:
 1600 000a 08BD     		pop	{r3, pc}
 1601              		.cfi_endproc
 1602              	.LFE156:
 1603              		.size	CLOCK__dispatch_250MS_Min, .-CLOCK__dispatch_250MS_Min
 1604              		.section	.text.CLOCK__dispatch_KRLP_Min,"ax",%progbits
 1605              		.align	2
 1606              		.thumb
 1607              		.thumb_func
 1608              		.type	CLOCK__dispatch_KRLP_Min, %function
 1609              	CLOCK__dispatch_KRLP_Min:
 1610              	.LFB155:
 342:source\asw/clock.c ****     //UART_LOG_PutString("CLOCK__dispatch_KRLP_Min\n");
 1611              		.loc 1 342 0
 1612              		.cfi_startproc
 1613              		@ args = 0, pretend = 0, frame = 136
 1614              		@ frame_needed = 0, uses_anonymous_args = 0
 1615 0000 70B5     		push	{r4, r5, r6, lr}
 1616              		.cfi_def_cfa_offset 16
 1617              		.cfi_offset 4, -16
 1618              		.cfi_offset 5, -12
 1619              		.cfi_offset 6, -8
 1620              		.cfi_offset 14, -4
 1621 0002 A2B0     		sub	sp, sp, #136
 1622              		.cfi_def_cfa_offset 152
 1623              	.LVL164:
 1624              	.LBB146:
 1625              	.LBB147:
 277:.\source\rte/sc_input.h **** }                                                                                                  
 1626              		.loc 3 277 0
 1627 0004 194C     		ldr	r4, .L115
 1628 0006 4425     		movs	r5, #68
 1629 0008 2A46     		mov	r2, r5
 1630 000a 2146     		mov	r1, r4
 1631 000c 0DEB0500 		add	r0, sp, r5
 1632 0010 FFF7FEFF 		bl	memcpy
 1633              	.LVL165:
 1634              	.LBE147:
 1635              	.LBE146:
 345:source\asw/clock.c ****     RTE_SC_INPUT_set(&SO_INPUT_signal, input);
 1636              		.loc 1 345 0
ARM GAS  C:\Users\saman\AppData\Local\Temp\ccOAgYwr.s 			page 52


 1637 0014 0423     		movs	r3, #4
 1638 0016 8DF87030 		strb	r3, [sp, #112]
 1639              	.LVL166:
 1640 001a 2A46     		mov	r2, r5
 1641 001c 0DEB0501 		add	r1, sp, r5
 1642 0020 6846     		mov	r0, sp
 1643 0022 FFF7FEFF 		bl	memcpy
 1644              	.LVL167:
 1645              	.LBB148:
 1646              	.LBB149:
 316:.\source\rte/sc_input.h ****    signal->value  = value;
 1647              		.loc 3 316 0
 1648 0026 E66C     		ldr	r6, [r4, #76]
 317:.\source\rte/sc_input.h ****    signal->age    = 0;
 1649              		.loc 3 317 0
 1650 0028 2A46     		mov	r2, r5
 1651 002a 6946     		mov	r1, sp
 1652 002c 2046     		mov	r0, r4
 1653 002e FFF7FEFF 		bl	memcpy
 1654              	.LVL168:
 318:.\source\rte/sc_input.h ****    signal->status = RTE_SIGNALSTATUS_VALID;
 1655              		.loc 3 318 0
 1656 0032 0023     		movs	r3, #0
 1657 0034 A364     		str	r3, [r4, #72]
 319:.\source\rte/sc_input.h ****    if (TRUE == signal->pSigCfg->resourceActive) ReleaseResource(signal->pSigCfg->resource);
 1658              		.loc 3 319 0
 1659 0036 0223     		movs	r3, #2
 1660 0038 84F84430 		strb	r3, [r4, #68]
 323:.\source\rte/sc_input.h **** 
 1661              		.loc 3 323 0
 1662 003c 7569     		ldr	r5, [r6, #20]
 1663              	.LVL169:
 325:.\source\rte/sc_input.h ****       for( taskNum=0 ; taskNum < signal->pSigCfg->onUpdateTaskCount ;taskNum++){
 1664              		.loc 3 325 0
 1665 003e B368     		ldr	r3, [r6, #8]
 1666 0040 73B1     		cbz	r3, .L110
 1667 0042 3DB9     		cbnz	r5, .L113
 1668 0044 0CE0     		b	.L110
 1669              	.LVL170:
 1670              	.L112:
 1671              	.LBB150:
 1672              		.loc 3 329 0
 1673 0046 9968     		ldr	r1, [r3, #8]
 1674 0048 55F82400 		ldr	r0, [r5, r4, lsl #2]
 1675 004c FFF7FEFF 		bl	EE_oo_SetEvent
 1676              	.LVL171:
 1677              	.LBE150:
 326:.\source\rte/sc_input.h **** 		  
 1678              		.loc 3 326 0
 1679 0050 0134     		adds	r4, r4, #1
 1680              	.LVL172:
 1681 0052 00E0     		b	.L111
 1682              	.LVL173:
 1683              	.L113:
 325:.\source\rte/sc_input.h ****       for( taskNum=0 ; taskNum < signal->pSigCfg->onUpdateTaskCount ;taskNum++){
 1684              		.loc 3 325 0
 1685 0054 0024     		movs	r4, #0
ARM GAS  C:\Users\saman\AppData\Local\Temp\ccOAgYwr.s 			page 53


 1686              	.LVL174:
 1687              	.L111:
 326:.\source\rte/sc_input.h **** 		  
 1688              		.loc 3 326 0
 1689 0056 054B     		ldr	r3, .L115
 1690 0058 DB6C     		ldr	r3, [r3, #76]
 1691 005a 1A69     		ldr	r2, [r3, #16]
 1692 005c 9442     		cmp	r4, r2
 1693 005e F2D3     		bcc	.L112
 1694              	.LVL175:
 1695              	.L110:
 1696              	.LBE149:
 1697              	.LBE148:
 347:source\asw/clock.c **** }
 1698              		.loc 1 347 0
 1699 0060 0121     		movs	r1, #1
 1700 0062 0320     		movs	r0, #3
 1701 0064 FFF7FEFF 		bl	CLOCK__dispatch_Wrapper
 1702              	.LVL176:
 348:source\asw/clock.c **** 
 1703              		.loc 1 348 0
 1704 0068 22B0     		add	sp, sp, #136
 1705              		.cfi_def_cfa_offset 16
 1706              		@ sp needed
 1707 006a 70BD     		pop	{r4, r5, r6, pc}
 1708              	.L116:
 1709              		.align	2
 1710              	.L115:
 1711 006c 00000000 		.word	SO_INPUT_signal
 1712              		.cfi_endproc
 1713              	.LFE155:
 1714              		.size	CLOCK__dispatch_KRLP_Min, .-CLOCK__dispatch_KRLP_Min
 1715              		.section	.text.CLOCK__dispatch_KR_Min,"ax",%progbits
 1716              		.align	2
 1717              		.thumb
 1718              		.thumb_func
 1719              		.type	CLOCK__dispatch_KR_Min, %function
 1720              	CLOCK__dispatch_KR_Min:
 1721              	.LFB154:
 336:source\asw/clock.c ****     //UART_LOG_PutString("CLOCK__dispatch_KR_Min\n");
 1722              		.loc 1 336 0
 1723              		.cfi_startproc
 1724              		@ args = 0, pretend = 0, frame = 0
 1725              		@ frame_needed = 0, uses_anonymous_args = 0
 1726 0000 08B5     		push	{r3, lr}
 1727              		.cfi_def_cfa_offset 8
 1728              		.cfi_offset 3, -8
 1729              		.cfi_offset 14, -4
 338:source\asw/clock.c **** }
 1730              		.loc 1 338 0
 1731 0002 0121     		movs	r1, #1
 1732 0004 0220     		movs	r0, #2
 1733 0006 FFF7FEFF 		bl	CLOCK__dispatch_Wrapper
 1734              	.LVL177:
 1735 000a 08BD     		pop	{r3, pc}
 1736              		.cfi_endproc
 1737              	.LFE154:
ARM GAS  C:\Users\saman\AppData\Local\Temp\ccOAgYwr.s 			page 54


 1738              		.size	CLOCK__dispatch_KR_Min, .-CLOCK__dispatch_KR_Min
 1739              		.section	.text.CLOCK__dispatch_KL_Min,"ax",%progbits
 1740              		.align	2
 1741              		.thumb
 1742              		.thumb_func
 1743              		.type	CLOCK__dispatch_KL_Min, %function
 1744              	CLOCK__dispatch_KL_Min:
 1745              	.LFB153:
 330:source\asw/clock.c ****     //UART_LOG_PutString("CLOCK__dispatch_KL_Min\n");
 1746              		.loc 1 330 0
 1747              		.cfi_startproc
 1748              		@ args = 0, pretend = 0, frame = 0
 1749              		@ frame_needed = 0, uses_anonymous_args = 0
 1750 0000 08B5     		push	{r3, lr}
 1751              		.cfi_def_cfa_offset 8
 1752              		.cfi_offset 3, -8
 1753              		.cfi_offset 14, -4
 332:source\asw/clock.c **** }
 1754              		.loc 1 332 0
 1755 0002 0121     		movs	r1, #1
 1756 0004 0846     		mov	r0, r1
 1757 0006 FFF7FEFF 		bl	CLOCK__dispatch_Wrapper
 1758              	.LVL178:
 1759 000a 08BD     		pop	{r3, pc}
 1760              		.cfi_endproc
 1761              	.LFE153:
 1762              		.size	CLOCK__dispatch_KL_Min, .-CLOCK__dispatch_KL_Min
 1763              		.section	.text.statemachine_init,"ax",%progbits
 1764              		.align	2
 1765              		.global	statemachine_init
 1766              		.thumb
 1767              		.thumb_func
 1768              		.type	statemachine_init, %function
 1769              	statemachine_init:
 1770              	.LFB144:
 155:source\asw/clock.c ****     //UART_LOG_PutString("statemachine_init");
 1771              		.loc 1 155 0
 1772              		.cfi_startproc
 1773              		@ args = 0, pretend = 0, frame = 48
 1774              		@ frame_needed = 0, uses_anonymous_args = 0
 1775 0000 2DE9F041 		push	{r4, r5, r6, r7, r8, lr}
 1776              		.cfi_def_cfa_offset 24
 1777              		.cfi_offset 4, -24
 1778              		.cfi_offset 5, -20
 1779              		.cfi_offset 6, -16
 1780              		.cfi_offset 7, -12
 1781              		.cfi_offset 8, -8
 1782              		.cfi_offset 14, -4
 1783 0004 8CB0     		sub	sp, sp, #48
 1784              		.cfi_def_cfa_offset 72
 158:source\asw/clock.c ****     
 1785              		.loc 1 158 0
 1786 0006 2E4E     		ldr	r6, .L127
 1787 0008 4FF00008 		mov	r8, #0
 1788 000c A6F81E80 		strh	r8, [r6, #30]	@ movhi
 1789              	.LVL179:
 1790              	.LBB151:
ARM GAS  C:\Users\saman\AppData\Local\Temp\ccOAgYwr.s 			page 55


 1791              	.LBB152:
 277:.\source\rte/sc_control.h **** }                                                                                                  
 1792              		.loc 2 277 0
 1793 0010 2C4F     		ldr	r7, .L127+4
 1794 0012 06AD     		add	r5, sp, #24
 1795 0014 3C46     		mov	r4, r7
 1796 0016 0FCC     		ldmia	r4!, {r0, r1, r2, r3}
 1797 0018 0FC5     		stmia	r5!, {r0, r1, r2, r3}
 1798 001a 94E80300 		ldmia	r4, {r0, r1}
 1799 001e 85E80300 		stmia	r5, {r0, r1}
 1800              	.LVL180:
 1801              	.LBE152:
 1802              	.LBE151:
 162:source\asw/clock.c ****     control.minute.font_type.size = 4;
 1803              		.loc 1 162 0
 1804 0022 0423     		movs	r3, #4
 1805 0024 8DF81A30 		strb	r3, [sp, #26]
 163:source\asw/clock.c ****     
 1806              		.loc 1 163 0
 1807 0028 8DF82630 		strb	r3, [sp, #38]
 165:source\asw/clock.c ****     control.hour.font_type.y_pos = 60;
 1808              		.loc 1 165 0
 1809 002c 0A23     		movs	r3, #10
 1810 002e 8DF82030 		strb	r3, [sp, #32]
 166:source\asw/clock.c ****     
 1811              		.loc 1 166 0
 1812 0032 3C23     		movs	r3, #60
 1813 0034 8DF82130 		strb	r3, [sp, #33]
 168:source\asw/clock.c ****     control.minute.font_type.y_pos = 60;
 1814              		.loc 1 168 0
 1815 0038 4B22     		movs	r2, #75
 1816 003a 8DF82C20 		strb	r2, [sp, #44]
 169:source\asw/clock.c ****     
 1817              		.loc 1 169 0
 1818 003e 8DF82D30 		strb	r3, [sp, #45]
 171:source\asw/clock.c ****     control.minute.font_type.bg_colour = BLACK;
 1819              		.loc 1 171 0
 1820 0042 ADF81C80 		strh	r8, [sp, #28]	@ movhi
 172:source\asw/clock.c ****     
 1821              		.loc 1 172 0
 1822 0046 ADF82880 		strh	r8, [sp, #40]	@ movhi
 174:source\asw/clock.c ****     control.minute.font_type.widget = WHITE;
 1823              		.loc 1 174 0
 1824 004a 4FF6FF73 		movw	r3, #65535
 1825 004e ADF81E30 		strh	r3, [sp, #30]	@ movhi
 175:source\asw/clock.c ****     
 1826              		.loc 1 175 0
 1827 0052 ADF82A30 		strh	r3, [sp, #42]	@ movhi
 178:source\asw/clock.c ****     
 1828              		.loc 1 178 0
 1829 0056 06F11005 		add	r5, r6, #16
 1830 005a 2846     		mov	r0, r5
 1831 005c FFF7FEFF 		bl	STATE_initState
 1832              	.LVL181:
 180:source\asw/clock.c ****     RTE_SC_CONTROL_set(&SO_CONTROL_signal, control);
 1833              		.loc 1 180 0
 1834 0060 2846     		mov	r0, r5
ARM GAS  C:\Users\saman\AppData\Local\Temp\ccOAgYwr.s 			page 56


 1835 0062 FFF7FEFF 		bl	STATE_initState
 1836              	.LVL182:
 1837 0066 6D46     		mov	r5, sp
 1838 0068 06AE     		add	r6, sp, #24
 1839 006a 0FCE     		ldmia	r6!, {r0, r1, r2, r3}
 1840 006c 0FC5     		stmia	r5!, {r0, r1, r2, r3}
 1841 006e 96E80300 		ldmia	r6, {r0, r1}
 1842 0072 85E80300 		stmia	r5, {r0, r1}
 1843              	.LVL183:
 1844              	.LBB153:
 1845              	.LBB154:
 316:.\source\rte/sc_control.h ****    signal->value  = value;
 1846              		.loc 2 316 0
 1847 0076 D7F820E0 		ldr	lr, [r7, #32]
 317:.\source\rte/sc_control.h ****    signal->age    = 0;
 1848              		.loc 2 317 0
 1849 007a 3E46     		mov	r6, r7
 1850 007c 6D46     		mov	r5, sp
 1851 007e 0FCD     		ldmia	r5!, {r0, r1, r2, r3}
 1852 0080 0FC6     		stmia	r6!, {r0, r1, r2, r3}
 1853 0082 95E80300 		ldmia	r5, {r0, r1}
 1854 0086 84E80300 		stmia	r4, {r0, r1}
 318:.\source\rte/sc_control.h ****    signal->status = RTE_SIGNALSTATUS_VALID;
 1855              		.loc 2 318 0
 1856 008a C7F81C80 		str	r8, [r7, #28]
 319:.\source\rte/sc_control.h ****    if (TRUE == signal->pSigCfg->resourceActive) ReleaseResource(signal->pSigCfg->resource);
 1857              		.loc 2 319 0
 1858 008e 0223     		movs	r3, #2
 1859 0090 3B76     		strb	r3, [r7, #24]
 323:.\source\rte/sc_control.h **** 
 1860              		.loc 2 323 0
 1861 0092 DEF81450 		ldr	r5, [lr, #20]
 1862              	.LVL184:
 325:.\source\rte/sc_control.h ****       for( taskNum=0 ; taskNum < signal->pSigCfg->onUpdateTaskCount ;taskNum++){
 1863              		.loc 2 325 0
 1864 0096 DEF80830 		ldr	r3, [lr, #8]
 1865 009a 73B1     		cbz	r3, .L121
 1866 009c 3DB9     		cbnz	r5, .L125
 1867 009e 0CE0     		b	.L121
 1868              	.LVL185:
 1869              	.L124:
 1870              	.LBB155:
 1871              		.loc 2 329 0
 1872 00a0 9968     		ldr	r1, [r3, #8]
 1873 00a2 55F82400 		ldr	r0, [r5, r4, lsl #2]
 1874 00a6 FFF7FEFF 		bl	EE_oo_SetEvent
 1875              	.LVL186:
 1876              	.LBE155:
 326:.\source\rte/sc_control.h **** 		  
 1877              		.loc 2 326 0
 1878 00aa 0134     		adds	r4, r4, #1
 1879              	.LVL187:
 1880 00ac 00E0     		b	.L123
 1881              	.LVL188:
 1882              	.L125:
 325:.\source\rte/sc_control.h ****       for( taskNum=0 ; taskNum < signal->pSigCfg->onUpdateTaskCount ;taskNum++){
 1883              		.loc 2 325 0
ARM GAS  C:\Users\saman\AppData\Local\Temp\ccOAgYwr.s 			page 57


 1884 00ae 0024     		movs	r4, #0
 1885              	.LVL189:
 1886              	.L123:
 326:.\source\rte/sc_control.h **** 		  
 1887              		.loc 2 326 0
 1888 00b0 044B     		ldr	r3, .L127+4
 1889 00b2 1B6A     		ldr	r3, [r3, #32]
 1890 00b4 1A69     		ldr	r2, [r3, #16]
 1891 00b6 9442     		cmp	r4, r2
 1892 00b8 F2D3     		bcc	.L124
 1893              	.LVL190:
 1894              	.L121:
 1895              	.LBE154:
 1896              	.LBE153:
 182:source\asw/clock.c **** void ProcessEvent(STATE_event_t event)
 1897              		.loc 1 182 0
 1898 00ba 0CB0     		add	sp, sp, #48
 1899              		.cfi_def_cfa_offset 24
 1900              		@ sp needed
 1901 00bc BDE8F081 		pop	{r4, r5, r6, r7, r8, pc}
 1902              	.LVL191:
 1903              	.L128:
 1904              		.align	2
 1905              	.L127:
 1906 00c0 00000000 		.word	.LANCHOR0
 1907 00c4 00000000 		.word	SO_CONTROL_signal
 1908              		.cfi_endproc
 1909              	.LFE144:
 1910              		.size	statemachine_init, .-statemachine_init
 1911              		.section	.text.ProcessEvent,"ax",%progbits
 1912              		.align	2
 1913              		.global	ProcessEvent
 1914              		.thumb
 1915              		.thumb_func
 1916              		.type	ProcessEvent, %function
 1917              	ProcessEvent:
 1918              	.LFB145:
 184:source\asw/clock.c ****     SC_INPUT_data_t input;
 1919              		.loc 1 184 0
 1920              		.cfi_startproc
 1921              		@ args = 0, pretend = 0, frame = 0
 1922              		@ frame_needed = 0, uses_anonymous_args = 0
 1923              	.LVL192:
 1924 0000 08B5     		push	{r3, lr}
 1925              		.cfi_def_cfa_offset 8
 1926              		.cfi_offset 3, -8
 1927              		.cfi_offset 14, -4
 1928              	.LVL193:
 188:source\asw/clock.c ****     
 1929              		.loc 1 188 0
 1930 0002 0146     		mov	r1, r0
 1931 0004 0148     		ldr	r0, .L131
 1932              	.LVL194:
 1933 0006 FFF7FEFF 		bl	STATE_processEvent
 1934              	.LVL195:
 1935 000a 08BD     		pop	{r3, pc}
 1936              	.L132:
ARM GAS  C:\Users\saman\AppData\Local\Temp\ccOAgYwr.s 			page 58


 1937              		.align	2
 1938              	.L131:
 1939 000c 10000000 		.word	.LANCHOR0+16
 1940              		.cfi_endproc
 1941              	.LFE145:
 1942              		.size	ProcessEvent, .-ProcessEvent
 1943              		.global	widgetFSM
 1944              		.global	containerFSM
 1945              		.global	STATE_CLOCK_W_ISAUTOINCREMENT_Transitions
 1946              		.global	STATE_CLOCK_W_ISEDITING_Transitions
 1947              		.global	STATE_CLOCK_W_ISDISPLAYING_Transitions
 1948              		.global	STATE_CLOCK_C_ISEDITINGMINUTES_Transitions
 1949              		.global	STATE_CLOCK_C_ISEDITINGHOURS_Transitions
 1950              		.global	STATE_CLOCK_C_ISDISPLAYING_Transitions
 1951              		.comm	buffer,100,4
 1952              		.section	.rodata
 1953              		.align	2
 1954              		.type	CLOCK_Widget_Actions, %object
 1955              		.size	CLOCK_Widget_Actions, 36
 1956              	CLOCK_Widget_Actions:
 1957 0000 0300     		.short	3
 1958 0002 0000     		.space	2
 1959 0004 00000000 		.word	CLOCK__updateDisplay
 1960 0008 00000000 		.word	0
 1961 000c 0400     		.short	4
 1962 000e 0000     		.space	2
 1963 0010 00000000 		.word	CLOCK__updateDisplay
 1964 0014 00000000 		.word	0
 1965 0018 0500     		.short	5
 1966 001a 0000     		.space	2
 1967 001c 00000000 		.word	CLOCK__updateDisplay
 1968 0020 00000000 		.word	0
 1969              		.type	CLOCK_Widget_Transitions, %object
 1970              		.size	CLOCK_Widget_Transitions, 36
 1971              	CLOCK_Widget_Transitions:
 1972 0024 0300     		.short	3
 1973 0026 0000     		.space	2
 1974 0028 00000000 		.word	STATE_CLOCK_W_ISDISPLAYING_Transitions
 1975 002c 0100     		.short	1
 1976 002e 0000     		.space	2
 1977 0030 0400     		.short	4
 1978 0032 0000     		.space	2
 1979 0034 00000000 		.word	STATE_CLOCK_W_ISEDITING_Transitions
 1980 0038 0300     		.short	3
 1981 003a 0000     		.space	2
 1982 003c 0500     		.short	5
 1983 003e 0000     		.space	2
 1984 0040 00000000 		.word	STATE_CLOCK_W_ISAUTOINCREMENT_Transitions
 1985 0044 0300     		.short	3
 1986 0046 0000     		.space	2
 1987              		.type	STATE_CLOCK_W_ISAUTOINCREMENT_Transitions, %object
 1988              		.size	STATE_CLOCK_W_ISAUTOINCREMENT_Transitions, 36
 1989              	STATE_CLOCK_W_ISAUTOINCREMENT_Transitions:
 1990 0048 0200     		.short	2
 1991 004a 0400     		.short	4
 1992 004c 00000000 		.word	0
 1993 0050 00000000 		.word	CLOCK__incrementWidget
ARM GAS  C:\Users\saman\AppData\Local\Temp\ccOAgYwr.s 			page 59


 1994 0054 0400     		.short	4
 1995 0056 0500     		.short	5
 1996 0058 00000000 		.word	0
 1997 005c 00000000 		.word	CLOCK__incrementWidget
 1998 0060 0100     		.short	1
 1999 0062 0400     		.short	4
 2000 0064 00000000 		.word	0
 2001 0068 00000000 		.word	CLOCK__setDisplayFonts
 2002              		.type	STATE_CLOCK_W_ISEDITING_Transitions, %object
 2003              		.size	STATE_CLOCK_W_ISEDITING_Transitions, 36
 2004              	STATE_CLOCK_W_ISEDITING_Transitions:
 2005 006c 0200     		.short	2
 2006 006e 0400     		.short	4
 2007 0070 00000000 		.word	0
 2008 0074 00000000 		.word	CLOCK__incrementWidget
 2009 0078 0300     		.short	3
 2010 007a 0500     		.short	5
 2011 007c 00000000 		.word	0
 2012 0080 00000000 		.word	0
 2013 0084 0100     		.short	1
 2014 0086 0300     		.short	3
 2015 0088 00000000 		.word	0
 2016 008c 00000000 		.word	CLOCK__setDisplayFonts
 2017              		.type	STATE_CLOCK_W_ISDISPLAYING_Transitions, %object
 2018              		.size	STATE_CLOCK_W_ISDISPLAYING_Transitions, 12
 2019              	STATE_CLOCK_W_ISDISPLAYING_Transitions:
 2020 0090 0100     		.short	1
 2021 0092 0400     		.short	4
 2022 0094 00000000 		.word	0
 2023 0098 00000000 		.word	CLOCK__setEditFonts
 2024              		.type	CLOCK_Container_Actions, %object
 2025              		.size	CLOCK_Container_Actions, 12
 2026              	CLOCK_Container_Actions:
 2027 009c 0000     		.short	0
 2028 009e 0000     		.space	2
 2029 00a0 00000000 		.word	CLOCK__updateDisplay
 2030 00a4 00000000 		.word	0
 2031              		.type	CLOCK_Container_Transitions, %object
 2032              		.size	CLOCK_Container_Transitions, 36
 2033              	CLOCK_Container_Transitions:
 2034 00a8 0000     		.short	0
 2035 00aa 0000     		.space	2
 2036 00ac 00000000 		.word	STATE_CLOCK_C_ISDISPLAYING_Transitions
 2037 00b0 0200     		.short	2
 2038 00b2 0000     		.space	2
 2039 00b4 0100     		.short	1
 2040 00b6 0000     		.space	2
 2041 00b8 00000000 		.word	STATE_CLOCK_C_ISEDITINGHOURS_Transitions
 2042 00bc 0400     		.short	4
 2043 00be 0000     		.space	2
 2044 00c0 0200     		.short	2
 2045 00c2 0000     		.space	2
 2046 00c4 00000000 		.word	STATE_CLOCK_C_ISEDITINGMINUTES_Transitions
 2047 00c8 0400     		.short	4
 2048 00ca 0000     		.space	2
 2049              		.type	STATE_CLOCK_C_ISEDITINGMINUTES_Transitions, %object
 2050              		.size	STATE_CLOCK_C_ISEDITINGMINUTES_Transitions, 48
ARM GAS  C:\Users\saman\AppData\Local\Temp\ccOAgYwr.s 			page 60


 2051              	STATE_CLOCK_C_ISEDITINGMINUTES_Transitions:
 2052 00cc 0100     		.short	1
 2053 00ce 0000     		.short	0
 2054 00d0 00000000 		.word	0
 2055 00d4 00000000 		.word	CLOCK__dispatch_KL_Min
 2056 00d8 0200     		.short	2
 2057 00da 0200     		.short	2
 2058 00dc 00000000 		.word	0
 2059 00e0 00000000 		.word	CLOCK__dispatch_KR_Min
 2060 00e4 0300     		.short	3
 2061 00e6 0200     		.short	2
 2062 00e8 00000000 		.word	0
 2063 00ec 00000000 		.word	CLOCK__dispatch_KRLP_Min
 2064 00f0 0400     		.short	4
 2065 00f2 0200     		.short	2
 2066 00f4 00000000 		.word	0
 2067 00f8 00000000 		.word	CLOCK__dispatch_250MS_Min
 2068              		.type	STATE_CLOCK_C_ISEDITINGHOURS_Transitions, %object
 2069              		.size	STATE_CLOCK_C_ISEDITINGHOURS_Transitions, 48
 2070              	STATE_CLOCK_C_ISEDITINGHOURS_Transitions:
 2071 00fc 0100     		.short	1
 2072 00fe 0200     		.short	2
 2073 0100 00000000 		.word	0
 2074 0104 00000000 		.word	CLOCK__dispatch_KL_HoursMin
 2075 0108 0200     		.short	2
 2076 010a 0100     		.short	1
 2077 010c 00000000 		.word	0
 2078 0110 00000000 		.word	CLOCK__dispatch_KR_Hours
 2079 0114 0300     		.short	3
 2080 0116 0100     		.short	1
 2081 0118 00000000 		.word	0
 2082 011c 00000000 		.word	CLOCK__dispatch_KRLP_Hours
 2083 0120 0400     		.short	4
 2084 0122 0100     		.short	1
 2085 0124 00000000 		.word	0
 2086 0128 00000000 		.word	CLOCK__dispatch_250MS_Hours
 2087              		.type	STATE_CLOCK_C_ISDISPLAYING_Transitions, %object
 2088              		.size	STATE_CLOCK_C_ISDISPLAYING_Transitions, 24
 2089              	STATE_CLOCK_C_ISDISPLAYING_Transitions:
 2090 012c 0100     		.short	1
 2091 012e 0100     		.short	1
 2092 0130 00000000 		.word	0
 2093 0134 00000000 		.word	CLOCK__dispatch_KL_Hours
 2094 0138 0500     		.short	5
 2095 013a 0000     		.short	0
 2096 013c 00000000 		.word	0
 2097 0140 00000000 		.word	CLOCK__increment1Minute
 2098              		.data
 2099              		.align	2
 2100              		.set	.LANCHOR0,. + 0
 2101              		.type	widgetFSM, %object
 2102              		.size	widgetFSM, 16
 2103              	widgetFSM:
 2104 0000 24000000 		.word	CLOCK_Widget_Transitions
 2105 0004 0300     		.short	3
 2106 0006 0000     		.space	2
 2107 0008 00000000 		.word	CLOCK_Widget_Actions
ARM GAS  C:\Users\saman\AppData\Local\Temp\ccOAgYwr.s 			page 61


 2108 000c 0300     		.short	3
 2109 000e 0300     		.short	3
 2110              		.type	containerFSM, %object
 2111              		.size	containerFSM, 16
 2112              	containerFSM:
 2113 0010 A8000000 		.word	CLOCK_Container_Transitions
 2114 0014 0300     		.short	3
 2115 0016 0000     		.space	2
 2116 0018 9C000000 		.word	CLOCK_Container_Actions
 2117 001c 0100     		.short	1
 2118 001e 0000     		.short	0
 2119              		.text
 2120              	.Letext0:
 2121              		.file 4 ".\\source\\bsw/global.h"
 2122              		.file 5 "c:\\program files (x86)\\cypress\\psoc creator\\4.4\\psoc creator\\import\\gnu\\arm\\5.4.
 2123              		.file 6 "c:\\program files (x86)\\cypress\\psoc creator\\4.4\\psoc creator\\import\\gnu\\arm\\5.4.
 2124              		.file 7 "c:\\program files (x86)\\cypress\\psoc creator\\4.4\\psoc creator\\import\\gnu\\arm\\5.4.
 2125              		.file 8 ".\\source\\bsw\\tft/tft.h"
 2126              		.file 9 "source\\asw\\clock_type.h"
 2127              		.file 10 "source\\asw\\statemachine.h"
 2128              		.file 11 "source\\asw\\clock.h"
 2129              		.file 12 "Generated_Source\\PSoC5/ErikaOS_common_ee_types.inc"
 2130              		.file 13 "Generated_Source\\PSoC5/ErikaOS_cortex_mx_ee_cpu.inc"
 2131              		.file 14 "Generated_Source\\PSoC5/ErikaOS_ee_oo_common.inc"
 2132              		.file 15 ".\\source\\rte/rte_types.h"
 2133              		.file 16 ".\\source\\rte/rte.h"
 2134              		.file 17 ".\\source\\rte/sc_input_type.h"
 2135              		.file 18 ".\\source\\rte/sc_control_type.h"
 2136              		.file 19 "Generated_Source\\PSoC5/ErikaOS_ee_oo_intfunc.inc"
 2137              		.file 20 "Generated_Source\\PSoC5/ErikaOS_cortex_mx_ee_context.inc"
 2138              		.file 21 "Generated_Source\\PSoC5/ErikaOS_common_ee_primitives.inc"
 2139              		.file 22 "Generated_Source\\PSoC5/core_cm3.h"
 2140              		.file 23 ".\\source\\rte/sp_common.h"
 2141              		.file 24 "Generated_Source\\PSoC5/ErikaOS_ee_oo_kernel.inc"
 2142              		.section	.debug_info,"",%progbits
 2143              	.Ldebug_info0:
 2144 0000 8A1B0000 		.4byte	0x1b8a
 2145 0004 0400     		.2byte	0x4
 2146 0006 00000000 		.4byte	.Ldebug_abbrev0
 2147 000a 04       		.byte	0x4
 2148 000b 01       		.uleb128 0x1
 2149 000c 940A0000 		.4byte	.LASF233
 2150 0010 0C       		.byte	0xc
 2151 0011 110D0000 		.4byte	.LASF234
 2152 0015 89070000 		.4byte	.LASF235
 2153 0019 00000000 		.4byte	.Ldebug_ranges0+0
 2154 001d 00000000 		.4byte	0
 2155 0021 00000000 		.4byte	.Ldebug_line0
 2156 0025 02       		.uleb128 0x2
 2157 0026 01       		.byte	0x1
 2158 0027 06       		.byte	0x6
 2159 0028 6C020000 		.4byte	.LASF0
 2160 002c 03       		.uleb128 0x3
 2161 002d E20D0000 		.4byte	.LASF3
 2162 0031 04       		.byte	0x4
 2163 0032 91       		.byte	0x91
 2164 0033 37000000 		.4byte	0x37
ARM GAS  C:\Users\saman\AppData\Local\Temp\ccOAgYwr.s 			page 62


 2165 0037 02       		.uleb128 0x2
 2166 0038 01       		.byte	0x1
 2167 0039 08       		.byte	0x8
 2168 003a 9A090000 		.4byte	.LASF1
 2169 003e 02       		.uleb128 0x2
 2170 003f 02       		.byte	0x2
 2171 0040 05       		.byte	0x5
 2172 0041 F90B0000 		.4byte	.LASF2
 2173 0045 03       		.uleb128 0x3
 2174 0046 E7040000 		.4byte	.LASF4
 2175 004a 04       		.byte	0x4
 2176 004b 93       		.byte	0x93
 2177 004c 50000000 		.4byte	0x50
 2178 0050 02       		.uleb128 0x2
 2179 0051 02       		.byte	0x2
 2180 0052 07       		.byte	0x7
 2181 0053 2D040000 		.4byte	.LASF5
 2182 0057 02       		.uleb128 0x2
 2183 0058 04       		.byte	0x4
 2184 0059 05       		.byte	0x5
 2185 005a 3E030000 		.4byte	.LASF6
 2186 005e 03       		.uleb128 0x3
 2187 005f 6E0B0000 		.4byte	.LASF7
 2188 0063 04       		.byte	0x4
 2189 0064 96       		.byte	0x96
 2190 0065 69000000 		.4byte	0x69
 2191 0069 02       		.uleb128 0x2
 2192 006a 04       		.byte	0x4
 2193 006b 07       		.byte	0x7
 2194 006c 25050000 		.4byte	.LASF8
 2195 0070 02       		.uleb128 0x2
 2196 0071 04       		.byte	0x4
 2197 0072 04       		.byte	0x4
 2198 0073 990B0000 		.4byte	.LASF9
 2199 0077 02       		.uleb128 0x2
 2200 0078 08       		.byte	0x8
 2201 0079 04       		.byte	0x4
 2202 007a DD030000 		.4byte	.LASF10
 2203 007e 02       		.uleb128 0x2
 2204 007f 08       		.byte	0x8
 2205 0080 05       		.byte	0x5
 2206 0081 5E020000 		.4byte	.LASF11
 2207 0085 02       		.uleb128 0x2
 2208 0086 08       		.byte	0x8
 2209 0087 07       		.byte	0x7
 2210 0088 B4050000 		.4byte	.LASF12
 2211 008c 03       		.uleb128 0x3
 2212 008d 49070000 		.4byte	.LASF13
 2213 0091 04       		.byte	0x4
 2214 0092 9C       		.byte	0x9c
 2215 0093 37000000 		.4byte	0x37
 2216 0097 02       		.uleb128 0x2
 2217 0098 01       		.byte	0x1
 2218 0099 08       		.byte	0x8
 2219 009a B60B0000 		.4byte	.LASF14
 2220 009e 04       		.uleb128 0x4
 2221 009f 01       		.byte	0x1
ARM GAS  C:\Users\saman\AppData\Local\Temp\ccOAgYwr.s 			page 63


 2222 00a0 25000000 		.4byte	0x25
 2223 00a4 04       		.byte	0x4
 2224 00a5 CF       		.byte	0xcf
 2225 00a6 47010000 		.4byte	0x147
 2226 00aa 05       		.uleb128 0x5
 2227 00ab 5F050000 		.4byte	.LASF15
 2228 00af 00       		.byte	0
 2229 00b0 06       		.uleb128 0x6
 2230 00b1 DF050000 		.4byte	.LASF16
 2231 00b5 7F       		.sleb128 -1
 2232 00b6 06       		.uleb128 0x6
 2233 00b7 37050000 		.4byte	.LASF17
 2234 00bb 7E       		.sleb128 -2
 2235 00bc 06       		.uleb128 0x6
 2236 00bd C2080000 		.4byte	.LASF18
 2237 00c1 7D       		.sleb128 -3
 2238 00c2 06       		.uleb128 0x6
 2239 00c3 F0060000 		.4byte	.LASF19
 2240 00c7 7C       		.sleb128 -4
 2241 00c8 06       		.uleb128 0x6
 2242 00c9 CA0D0000 		.4byte	.LASF20
 2243 00cd 7B       		.sleb128 -5
 2244 00ce 06       		.uleb128 0x6
 2245 00cf 520C0000 		.4byte	.LASF21
 2246 00d3 7A       		.sleb128 -6
 2247 00d4 06       		.uleb128 0x6
 2248 00d5 28080000 		.4byte	.LASF22
 2249 00d9 79       		.sleb128 -7
 2250 00da 06       		.uleb128 0x6
 2251 00db E8050000 		.4byte	.LASF23
 2252 00df 78       		.sleb128 -8
 2253 00e0 06       		.uleb128 0x6
 2254 00e1 11030000 		.4byte	.LASF24
 2255 00e5 77       		.sleb128 -9
 2256 00e6 06       		.uleb128 0x6
 2257 00e7 57090000 		.4byte	.LASF25
 2258 00eb 76       		.sleb128 -10
 2259 00ec 06       		.uleb128 0x6
 2260 00ed 9C010000 		.4byte	.LASF26
 2261 00f1 75       		.sleb128 -11
 2262 00f2 06       		.uleb128 0x6
 2263 00f3 C6030000 		.4byte	.LASF27
 2264 00f7 74       		.sleb128 -12
 2265 00f8 06       		.uleb128 0x6
 2266 00f9 13050000 		.4byte	.LASF28
 2267 00fd 73       		.sleb128 -13
 2268 00fe 06       		.uleb128 0x6
 2269 00ff 7E0B0000 		.4byte	.LASF29
 2270 0103 72       		.sleb128 -14
 2271 0104 06       		.uleb128 0x6
 2272 0105 E6000000 		.4byte	.LASF30
 2273 0109 71       		.sleb128 -15
 2274 010a 06       		.uleb128 0x6
 2275 010b 8B0C0000 		.4byte	.LASF31
 2276 010f 70       		.sleb128 -16
 2277 0110 06       		.uleb128 0x6
 2278 0111 3A080000 		.4byte	.LASF32
ARM GAS  C:\Users\saman\AppData\Local\Temp\ccOAgYwr.s 			page 64


 2279 0115 6F       		.sleb128 -17
 2280 0116 06       		.uleb128 0x6
 2281 0117 44060000 		.4byte	.LASF33
 2282 011b 6E       		.sleb128 -18
 2283 011c 06       		.uleb128 0x6
 2284 011d 4A0B0000 		.4byte	.LASF34
 2285 0121 6D       		.sleb128 -19
 2286 0122 06       		.uleb128 0x6
 2287 0123 80060000 		.4byte	.LASF35
 2288 0127 6C       		.sleb128 -20
 2289 0128 06       		.uleb128 0x6
 2290 0129 8A010000 		.4byte	.LASF36
 2291 012d 6B       		.sleb128 -21
 2292 012e 06       		.uleb128 0x6
 2293 012f 11080000 		.4byte	.LASF37
 2294 0133 6A       		.sleb128 -22
 2295 0134 06       		.uleb128 0x6
 2296 0135 43000000 		.4byte	.LASF38
 2297 0139 69       		.sleb128 -23
 2298 013a 06       		.uleb128 0x6
 2299 013b F0040000 		.4byte	.LASF39
 2300 013f 68       		.sleb128 -24
 2301 0140 06       		.uleb128 0x6
 2302 0141 310C0000 		.4byte	.LASF40
 2303 0145 67       		.sleb128 -25
 2304 0146 00       		.byte	0
 2305 0147 03       		.uleb128 0x3
 2306 0148 E1000000 		.4byte	.LASF41
 2307 014c 04       		.byte	0x4
 2308 014d EA       		.byte	0xea
 2309 014e 9E000000 		.4byte	0x9e
 2310 0152 03       		.uleb128 0x3
 2311 0153 BB0B0000 		.4byte	.LASF42
 2312 0157 05       		.byte	0x5
 2313 0158 3F       		.byte	0x3f
 2314 0159 57000000 		.4byte	0x57
 2315 015d 07       		.uleb128 0x7
 2316 015e 04       		.byte	0x4
 2317 015f 05       		.byte	0x5
 2318 0160 696E7400 		.ascii	"int\000"
 2319 0164 02       		.uleb128 0x2
 2320 0165 04       		.byte	0x4
 2321 0166 07       		.byte	0x7
 2322 0167 D2040000 		.4byte	.LASF43
 2323 016b 03       		.uleb128 0x3
 2324 016c 62000000 		.4byte	.LASF44
 2325 0170 06       		.byte	0x6
 2326 0171 D8       		.byte	0xd8
 2327 0172 64010000 		.4byte	0x164
 2328 0176 02       		.uleb128 0x2
 2329 0177 08       		.byte	0x8
 2330 0178 04       		.byte	0x4
 2331 0179 3D070000 		.4byte	.LASF45
 2332 017d 02       		.uleb128 0x2
 2333 017e 04       		.byte	0x4
 2334 017f 07       		.byte	0x7
 2335 0180 1A070000 		.4byte	.LASF46
ARM GAS  C:\Users\saman\AppData\Local\Temp\ccOAgYwr.s 			page 65


 2336 0184 03       		.uleb128 0x3
 2337 0185 92090000 		.4byte	.LASF47
 2338 0189 07       		.byte	0x7
 2339 018a 2C       		.byte	0x2c
 2340 018b 52010000 		.4byte	0x152
 2341 018f 04       		.uleb128 0x4
 2342 0190 02       		.byte	0x2
 2343 0191 50000000 		.4byte	0x50
 2344 0195 08       		.byte	0x8
 2345 0196 5C       		.byte	0x5c
 2346 0197 2D020000 		.4byte	0x22d
 2347 019b 08       		.uleb128 0x8
 2348 019c 12020000 		.4byte	.LASF48
 2349 01a0 FFFF     		.2byte	0xffff
 2350 01a2 05       		.uleb128 0x5
 2351 01a3 C50B0000 		.4byte	.LASF49
 2352 01a7 00       		.byte	0
 2353 01a8 08       		.uleb128 0x8
 2354 01a9 F40B0000 		.4byte	.LASF50
 2355 01ad 00F8     		.2byte	0xf800
 2356 01af 08       		.uleb128 0x8
 2357 01b0 E0080000 		.4byte	.LASF51
 2358 01b4 1FF8     		.2byte	0xf81f
 2359 01b6 08       		.uleb128 0x8
 2360 01b7 9D000000 		.4byte	.LASF52
 2361 01bb FF07     		.2byte	0x7ff
 2362 01bd 08       		.uleb128 0x8
 2363 01be AE050000 		.4byte	.LASF53
 2364 01c2 E0FF     		.2byte	0xffe0
 2365 01c4 09       		.uleb128 0x9
 2366 01c5 52454400 		.ascii	"RED\000"
 2367 01c9 1F       		.byte	0x1f
 2368 01ca 08       		.uleb128 0x8
 2369 01cb 5A000000 		.4byte	.LASF54
 2370 01cf 1FF8     		.2byte	0xf81f
 2371 01d1 08       		.uleb128 0x8
 2372 01d2 120C0000 		.4byte	.LASF55
 2373 01d6 E007     		.2byte	0x7e0
 2374 01d8 08       		.uleb128 0x8
 2375 01d9 3F0B0000 		.4byte	.LASF56
 2376 01dd E0FF     		.2byte	0xffe0
 2377 01df 08       		.uleb128 0x8
 2378 01e0 AF030000 		.4byte	.LASF57
 2379 01e4 FF07     		.2byte	0x7ff
 2380 01e6 08       		.uleb128 0x8
 2381 01e7 97030000 		.4byte	.LASF58
 2382 01eb 3D02     		.2byte	0x23d
 2383 01ed 08       		.uleb128 0x8
 2384 01ee 7F040000 		.4byte	.LASF59
 2385 01f2 3FE0     		.2byte	0xe03f
 2386 01f4 08       		.uleb128 0x8
 2387 01f5 23080000 		.4byte	.LASF60
 2388 01f9 210C     		.2byte	0xc21
 2389 01fb 08       		.uleb128 0x8
 2390 01fc CA020000 		.4byte	.LASF61
 2391 0200 89F3     		.2byte	0xf389
 2392 0202 08       		.uleb128 0x8
ARM GAS  C:\Users\saman\AppData\Local\Temp\ccOAgYwr.s 			page 66


 2393 0203 B0060000 		.4byte	.LASF62
 2394 0207 BE3E     		.2byte	0x3ebe
 2395 0209 08       		.uleb128 0x8
 2396 020a 6E0E0000 		.4byte	.LASF63
 2397 020e 2A1A     		.2byte	0x1a2a
 2398 0210 08       		.uleb128 0x8
 2399 0211 680C0000 		.4byte	.LASF64
 2400 0215 21F8     		.2byte	0xf821
 2401 0217 08       		.uleb128 0x8
 2402 0218 85040000 		.4byte	.LASF65
 2403 021c 6318     		.2byte	0x1863
 2404 021e 08       		.uleb128 0x8
 2405 021f 3A060000 		.4byte	.LASF66
 2406 0223 658A     		.2byte	0x8a65
 2407 0225 08       		.uleb128 0x8
 2408 0226 22060000 		.4byte	.LASF67
 2409 022a D448     		.2byte	0x48d4
 2410 022c 00       		.byte	0
 2411 022d 03       		.uleb128 0x3
 2412 022e 18020000 		.4byte	.LASF68
 2413 0232 08       		.byte	0x8
 2414 0233 72       		.byte	0x72
 2415 0234 8F010000 		.4byte	0x18f
 2416 0238 04       		.uleb128 0x4
 2417 0239 01       		.byte	0x1
 2418 023a 37000000 		.4byte	0x37
 2419 023e 09       		.byte	0x9
 2420 023f 14       		.byte	0x14
 2421 0240 69020000 		.4byte	0x269
 2422 0244 05       		.uleb128 0x5
 2423 0245 4A0C0000 		.4byte	.LASF69
 2424 0249 00       		.byte	0
 2425 024a 05       		.uleb128 0x5
 2426 024b 16000000 		.4byte	.LASF70
 2427 024f 01       		.byte	0x1
 2428 0250 05       		.uleb128 0x5
 2429 0251 73040000 		.4byte	.LASF71
 2430 0255 02       		.byte	0x2
 2431 0256 05       		.uleb128 0x5
 2432 0257 590E0000 		.4byte	.LASF72
 2433 025b 03       		.byte	0x3
 2434 025c 05       		.uleb128 0x5
 2435 025d D4030000 		.4byte	.LASF73
 2436 0261 04       		.byte	0x4
 2437 0262 05       		.uleb128 0x5
 2438 0263 DF040000 		.4byte	.LASF74
 2439 0267 05       		.byte	0x5
 2440 0268 00       		.byte	0
 2441 0269 03       		.uleb128 0x3
 2442 026a 12070000 		.4byte	.LASF75
 2443 026e 09       		.byte	0x9
 2444 026f 1C       		.byte	0x1c
 2445 0270 38020000 		.4byte	0x238
 2446 0274 04       		.uleb128 0x4
 2447 0275 01       		.byte	0x1
 2448 0276 37000000 		.4byte	0x37
 2449 027a 09       		.byte	0x9
ARM GAS  C:\Users\saman\AppData\Local\Temp\ccOAgYwr.s 			page 67


 2450 027b 23       		.byte	0x23
 2451 027c A5020000 		.4byte	0x2a5
 2452 0280 05       		.uleb128 0x5
 2453 0281 C7010000 		.4byte	.LASF76
 2454 0285 00       		.byte	0
 2455 0286 05       		.uleb128 0x5
 2456 0287 80030000 		.4byte	.LASF77
 2457 028b 01       		.byte	0x1
 2458 028c 05       		.uleb128 0x5
 2459 028d 320A0000 		.4byte	.LASF78
 2460 0291 02       		.byte	0x2
 2461 0292 05       		.uleb128 0x5
 2462 0293 C30C0000 		.4byte	.LASF79
 2463 0297 03       		.byte	0x3
 2464 0298 05       		.uleb128 0x5
 2465 0299 B8090000 		.4byte	.LASF80
 2466 029d 04       		.byte	0x4
 2467 029e 05       		.uleb128 0x5
 2468 029f 6A050000 		.4byte	.LASF81
 2469 02a3 05       		.byte	0x5
 2470 02a4 00       		.byte	0
 2471 02a5 03       		.uleb128 0x3
 2472 02a6 330E0000 		.4byte	.LASF82
 2473 02aa 09       		.byte	0x9
 2474 02ab 2D       		.byte	0x2d
 2475 02ac 74020000 		.4byte	0x274
 2476 02b0 03       		.uleb128 0x3
 2477 02b1 59060000 		.4byte	.LASF83
 2478 02b5 09       		.byte	0x9
 2479 02b6 2F       		.byte	0x2f
 2480 02b7 69020000 		.4byte	0x269
 2481 02bb 04       		.uleb128 0x4
 2482 02bc 01       		.byte	0x1
 2483 02bd 37000000 		.4byte	0x37
 2484 02c1 09       		.byte	0x9
 2485 02c2 34       		.byte	0x34
 2486 02c3 DA020000 		.4byte	0x2da
 2487 02c7 05       		.uleb128 0x5
 2488 02c8 F4010000 		.4byte	.LASF84
 2489 02cc 00       		.byte	0
 2490 02cd 05       		.uleb128 0x5
 2491 02ce BA060000 		.4byte	.LASF85
 2492 02d2 01       		.byte	0x1
 2493 02d3 05       		.uleb128 0x5
 2494 02d4 35060000 		.4byte	.LASF86
 2495 02d8 02       		.byte	0x2
 2496 02d9 00       		.byte	0
 2497 02da 03       		.uleb128 0x3
 2498 02db 00000000 		.4byte	.LASF87
 2499 02df 09       		.byte	0x9
 2500 02e0 38       		.byte	0x38
 2501 02e1 BB020000 		.4byte	0x2bb
 2502 02e5 0A       		.uleb128 0xa
 2503 02e6 08       		.byte	0x8
 2504 02e7 09       		.byte	0x9
 2505 02e8 3A       		.byte	0x3a
 2506 02e9 2A030000 		.4byte	0x32a
ARM GAS  C:\Users\saman\AppData\Local\Temp\ccOAgYwr.s 			page 68


 2507 02ed 0B       		.uleb128 0xb
 2508 02ee D1050000 		.4byte	.LASF88
 2509 02f2 09       		.byte	0x9
 2510 02f3 3C       		.byte	0x3c
 2511 02f4 2C000000 		.4byte	0x2c
 2512 02f8 00       		.byte	0
 2513 02f9 0B       		.uleb128 0xb
 2514 02fa 8C0D0000 		.4byte	.LASF89
 2515 02fe 09       		.byte	0x9
 2516 02ff 3D       		.byte	0x3d
 2517 0300 2D020000 		.4byte	0x22d
 2518 0304 02       		.byte	0x2
 2519 0305 0B       		.uleb128 0xb
 2520 0306 190A0000 		.4byte	.LASF90
 2521 030a 09       		.byte	0x9
 2522 030b 3E       		.byte	0x3e
 2523 030c 2D020000 		.4byte	0x22d
 2524 0310 04       		.byte	0x4
 2525 0311 0B       		.uleb128 0xb
 2526 0312 AC040000 		.4byte	.LASF91
 2527 0316 09       		.byte	0x9
 2528 0317 3F       		.byte	0x3f
 2529 0318 2C000000 		.4byte	0x2c
 2530 031c 06       		.byte	0x6
 2531 031d 0B       		.uleb128 0xb
 2532 031e 00040000 		.4byte	.LASF92
 2533 0322 09       		.byte	0x9
 2534 0323 40       		.byte	0x40
 2535 0324 2C000000 		.4byte	0x2c
 2536 0328 07       		.byte	0x7
 2537 0329 00       		.byte	0
 2538 032a 03       		.uleb128 0x3
 2539 032b 85090000 		.4byte	.LASF93
 2540 032f 09       		.byte	0x9
 2541 0330 41       		.byte	0x41
 2542 0331 E5020000 		.4byte	0x2e5
 2543 0335 0A       		.uleb128 0xa
 2544 0336 0C       		.byte	0xc
 2545 0337 09       		.byte	0x9
 2546 0338 43       		.byte	0x43
 2547 0339 62030000 		.4byte	0x362
 2548 033d 0B       		.uleb128 0xb
 2549 033e 190A0000 		.4byte	.LASF90
 2550 0342 09       		.byte	0x9
 2551 0343 45       		.byte	0x45
 2552 0344 DA020000 		.4byte	0x2da
 2553 0348 00       		.byte	0
 2554 0349 0B       		.uleb128 0xb
 2555 034a F4070000 		.4byte	.LASF94
 2556 034e 09       		.byte	0x9
 2557 034f 46       		.byte	0x46
 2558 0350 2A030000 		.4byte	0x32a
 2559 0354 02       		.byte	0x2
 2560 0355 0B       		.uleb128 0xb
 2561 0356 B9040000 		.4byte	.LASF95
 2562 035a 09       		.byte	0x9
 2563 035b 47       		.byte	0x47
ARM GAS  C:\Users\saman\AppData\Local\Temp\ccOAgYwr.s 			page 69


 2564 035c 2C000000 		.4byte	0x2c
 2565 0360 0A       		.byte	0xa
 2566 0361 00       		.byte	0
 2567 0362 03       		.uleb128 0x3
 2568 0363 1D040000 		.4byte	.LASF96
 2569 0367 09       		.byte	0x9
 2570 0368 48       		.byte	0x48
 2571 0369 35030000 		.4byte	0x335
 2572 036d 03       		.uleb128 0x3
 2573 036e EA0E0000 		.4byte	.LASF97
 2574 0372 0A       		.byte	0xa
 2575 0373 31       		.byte	0x31
 2576 0374 78030000 		.4byte	0x378
 2577 0378 0C       		.uleb128 0xc
 2578 0379 04       		.byte	0x4
 2579 037a 7E030000 		.4byte	0x37e
 2580 037e 0D       		.uleb128 0xd
 2581 037f 85030000 		.4byte	0x385
 2582 0383 0E       		.uleb128 0xe
 2583 0384 00       		.byte	0
 2584 0385 03       		.uleb128 0x3
 2585 0386 2D030000 		.4byte	.LASF98
 2586 038a 0A       		.byte	0xa
 2587 038b 36       		.byte	0x36
 2588 038c 90030000 		.4byte	0x390
 2589 0390 0C       		.uleb128 0xc
 2590 0391 04       		.byte	0x4
 2591 0392 96030000 		.4byte	0x396
 2592 0396 0F       		.uleb128 0xf
 2593 0397 8C000000 		.4byte	0x8c
 2594 039b A1030000 		.4byte	0x3a1
 2595 039f 0E       		.uleb128 0xe
 2596 03a0 00       		.byte	0
 2597 03a1 0A       		.uleb128 0xa
 2598 03a2 0C       		.byte	0xc
 2599 03a3 0A       		.byte	0xa
 2600 03a4 3D       		.byte	0x3d
 2601 03a5 DA030000 		.4byte	0x3da
 2602 03a9 0B       		.uleb128 0xb
 2603 03aa CB050000 		.4byte	.LASF99
 2604 03ae 0A       		.byte	0xa
 2605 03af 3F       		.byte	0x3f
 2606 03b0 45000000 		.4byte	0x45
 2607 03b4 00       		.byte	0
 2608 03b5 0B       		.uleb128 0xb
 2609 03b6 07010000 		.4byte	.LASF100
 2610 03ba 0A       		.byte	0xa
 2611 03bb 40       		.byte	0x40
 2612 03bc 45000000 		.4byte	0x45
 2613 03c0 02       		.byte	0x2
 2614 03c1 0B       		.uleb128 0xb
 2615 03c2 AE0E0000 		.4byte	.LASF101
 2616 03c6 0A       		.byte	0xa
 2617 03c7 41       		.byte	0x41
 2618 03c8 85030000 		.4byte	0x385
 2619 03cc 04       		.byte	0x4
 2620 03cd 0B       		.uleb128 0xb
ARM GAS  C:\Users\saman\AppData\Local\Temp\ccOAgYwr.s 			page 70


 2621 03ce F80C0000 		.4byte	.LASF102
 2622 03d2 0A       		.byte	0xa
 2623 03d3 42       		.byte	0x42
 2624 03d4 6D030000 		.4byte	0x36d
 2625 03d8 08       		.byte	0x8
 2626 03d9 00       		.byte	0
 2627 03da 03       		.uleb128 0x3
 2628 03db 53070000 		.4byte	.LASF103
 2629 03df 0A       		.byte	0xa
 2630 03e0 44       		.byte	0x44
 2631 03e1 A1030000 		.4byte	0x3a1
 2632 03e5 03       		.uleb128 0x3
 2633 03e6 CA090000 		.4byte	.LASF104
 2634 03ea 0A       		.byte	0xa
 2635 03eb 46       		.byte	0x46
 2636 03ec F0030000 		.4byte	0x3f0
 2637 03f0 10       		.uleb128 0x10
 2638 03f1 DA030000 		.4byte	0x3da
 2639 03f5 FB030000 		.4byte	0x3fb
 2640 03f9 11       		.uleb128 0x11
 2641 03fa 00       		.byte	0
 2642 03fb 0A       		.uleb128 0xa
 2643 03fc 0C       		.byte	0xc
 2644 03fd 0A       		.byte	0xa
 2645 03fe 4B       		.byte	0x4b
 2646 03ff 28040000 		.4byte	0x428
 2647 0403 0B       		.uleb128 0xb
 2648 0404 30000000 		.4byte	.LASF105
 2649 0408 0A       		.byte	0xa
 2650 0409 4D       		.byte	0x4d
 2651 040a 45000000 		.4byte	0x45
 2652 040e 00       		.byte	0
 2653 040f 0B       		.uleb128 0xb
 2654 0410 B4020000 		.4byte	.LASF106
 2655 0414 0A       		.byte	0xa
 2656 0415 4E       		.byte	0x4e
 2657 0416 2E040000 		.4byte	0x42e
 2658 041a 04       		.byte	0x4
 2659 041b 0B       		.uleb128 0xb
 2660 041c D1050000 		.4byte	.LASF88
 2661 0420 0A       		.byte	0xa
 2662 0421 4F       		.byte	0x4f
 2663 0422 33040000 		.4byte	0x433
 2664 0426 08       		.byte	0x8
 2665 0427 00       		.byte	0
 2666 0428 0C       		.uleb128 0xc
 2667 0429 04       		.byte	0x4
 2668 042a F0030000 		.4byte	0x3f0
 2669 042e 12       		.uleb128 0x12
 2670 042f 28040000 		.4byte	0x428
 2671 0433 12       		.uleb128 0x12
 2672 0434 45000000 		.4byte	0x45
 2673 0438 03       		.uleb128 0x3
 2674 0439 D7070000 		.4byte	.LASF107
 2675 043d 0A       		.byte	0xa
 2676 043e 50       		.byte	0x50
 2677 043f FB030000 		.4byte	0x3fb
ARM GAS  C:\Users\saman\AppData\Local\Temp\ccOAgYwr.s 			page 71


 2678 0443 10       		.uleb128 0x10
 2679 0444 38040000 		.4byte	0x438
 2680 0448 4E040000 		.4byte	0x44e
 2681 044c 11       		.uleb128 0x11
 2682 044d 00       		.byte	0
 2683 044e 0A       		.uleb128 0xa
 2684 044f 0C       		.byte	0xc
 2685 0450 0A       		.byte	0xa
 2686 0451 59       		.byte	0x59
 2687 0452 7B040000 		.4byte	0x47b
 2688 0456 0B       		.uleb128 0xb
 2689 0457 27030000 		.4byte	.LASF108
 2690 045b 0A       		.byte	0xa
 2691 045c 5B       		.byte	0x5b
 2692 045d 45000000 		.4byte	0x45
 2693 0461 00       		.byte	0
 2694 0462 0B       		.uleb128 0xb
 2695 0463 29060000 		.4byte	.LASF109
 2696 0467 0A       		.byte	0xa
 2697 0468 5C       		.byte	0x5c
 2698 0469 6D030000 		.4byte	0x36d
 2699 046d 04       		.byte	0x4
 2700 046e 0B       		.uleb128 0xb
 2701 046f A4030000 		.4byte	.LASF110
 2702 0473 0A       		.byte	0xa
 2703 0474 5D       		.byte	0x5d
 2704 0475 6D030000 		.4byte	0x36d
 2705 0479 08       		.byte	0x8
 2706 047a 00       		.byte	0
 2707 047b 03       		.uleb128 0x3
 2708 047c CA060000 		.4byte	.LASF111
 2709 0480 0A       		.byte	0xa
 2710 0481 5E       		.byte	0x5e
 2711 0482 4E040000 		.4byte	0x44e
 2712 0486 10       		.uleb128 0x10
 2713 0487 7B040000 		.4byte	0x47b
 2714 048b 91040000 		.4byte	0x491
 2715 048f 11       		.uleb128 0x11
 2716 0490 00       		.byte	0
 2717 0491 0A       		.uleb128 0xa
 2718 0492 10       		.byte	0x10
 2719 0493 0A       		.byte	0xa
 2720 0494 65       		.byte	0x65
 2721 0495 D6040000 		.4byte	0x4d6
 2722 0499 0B       		.uleb128 0xb
 2723 049a 00070000 		.4byte	.LASF112
 2724 049e 0A       		.byte	0xa
 2725 049f 67       		.byte	0x67
 2726 04a0 D6040000 		.4byte	0x4d6
 2727 04a4 00       		.byte	0
 2728 04a5 0B       		.uleb128 0xb
 2729 04a6 93060000 		.4byte	.LASF113
 2730 04aa 0A       		.byte	0xa
 2731 04ab 68       		.byte	0x68
 2732 04ac 33040000 		.4byte	0x433
 2733 04b0 04       		.byte	0x4
 2734 04b1 0B       		.uleb128 0xb
ARM GAS  C:\Users\saman\AppData\Local\Temp\ccOAgYwr.s 			page 72


 2735 04b2 47030000 		.4byte	.LASF114
 2736 04b6 0A       		.byte	0xa
 2737 04b7 69       		.byte	0x69
 2738 04b8 DC040000 		.4byte	0x4dc
 2739 04bc 08       		.byte	0x8
 2740 04bd 0B       		.uleb128 0xb
 2741 04be D80C0000 		.4byte	.LASF115
 2742 04c2 0A       		.byte	0xa
 2743 04c3 6A       		.byte	0x6a
 2744 04c4 33040000 		.4byte	0x433
 2745 04c8 0C       		.byte	0xc
 2746 04c9 0B       		.uleb128 0xb
 2747 04ca 910B0000 		.4byte	.LASF116
 2748 04ce 0A       		.byte	0xa
 2749 04cf 6B       		.byte	0x6b
 2750 04d0 45000000 		.4byte	0x45
 2751 04d4 0E       		.byte	0xe
 2752 04d5 00       		.byte	0
 2753 04d6 0C       		.uleb128 0xc
 2754 04d7 04       		.byte	0x4
 2755 04d8 43040000 		.4byte	0x443
 2756 04dc 0C       		.uleb128 0xc
 2757 04dd 04       		.byte	0x4
 2758 04de 86040000 		.4byte	0x486
 2759 04e2 03       		.uleb128 0x3
 2760 04e3 210F0000 		.4byte	.LASF117
 2761 04e7 0A       		.byte	0xa
 2762 04e8 6C       		.byte	0x6c
 2763 04e9 91040000 		.4byte	0x491
 2764 04ed 0A       		.uleb128 0xa
 2765 04ee 18       		.byte	0x18
 2766 04ef 0B       		.byte	0xb
 2767 04f0 13       		.byte	0x13
 2768 04f1 32050000 		.4byte	0x532
 2769 04f5 0B       		.uleb128 0xb
 2770 04f6 0F010000 		.4byte	.LASF118
 2771 04fa 0B       		.byte	0xb
 2772 04fb 15       		.byte	0x15
 2773 04fc A5020000 		.4byte	0x2a5
 2774 0500 00       		.byte	0
 2775 0501 0B       		.uleb128 0xb
 2776 0502 6D010000 		.4byte	.LASF119
 2777 0506 0B       		.byte	0xb
 2778 0507 16       		.byte	0x16
 2779 0508 32050000 		.4byte	0x532
 2780 050c 04       		.byte	0x4
 2781 050d 0B       		.uleb128 0xb
 2782 050e 76090000 		.4byte	.LASF120
 2783 0512 0B       		.byte	0xb
 2784 0513 17       		.byte	0x17
 2785 0514 38050000 		.4byte	0x538
 2786 0518 08       		.byte	0x8
 2787 0519 0B       		.uleb128 0xb
 2788 051a F1030000 		.4byte	.LASF121
 2789 051e 0B       		.byte	0xb
 2790 051f 18       		.byte	0x18
 2791 0520 2C000000 		.4byte	0x2c
ARM GAS  C:\Users\saman\AppData\Local\Temp\ccOAgYwr.s 			page 73


 2792 0524 0C       		.byte	0xc
 2793 0525 0B       		.uleb128 0xb
 2794 0526 A9060000 		.4byte	.LASF122
 2795 052a 0B       		.byte	0xb
 2796 052b 19       		.byte	0x19
 2797 052c 2A030000 		.4byte	0x32a
 2798 0530 0E       		.byte	0xe
 2799 0531 00       		.byte	0
 2800 0532 0C       		.uleb128 0xc
 2801 0533 04       		.byte	0x4
 2802 0534 E5030000 		.4byte	0x3e5
 2803 0538 0C       		.uleb128 0xc
 2804 0539 04       		.byte	0x4
 2805 053a 7B040000 		.4byte	0x47b
 2806 053e 03       		.uleb128 0x3
 2807 053f 21000000 		.4byte	.LASF123
 2808 0543 0B       		.byte	0xb
 2809 0544 1A       		.byte	0x1a
 2810 0545 ED040000 		.4byte	0x4ed
 2811 0549 0A       		.uleb128 0xa
 2812 054a 40       		.byte	0x40
 2813 054b 0B       		.byte	0xb
 2814 054c 1C       		.byte	0x1c
 2815 054d 9A050000 		.4byte	0x59a
 2816 0551 0B       		.uleb128 0xb
 2817 0552 220E0000 		.4byte	.LASF124
 2818 0556 0B       		.byte	0xb
 2819 0557 1E       		.byte	0x1e
 2820 0558 A5020000 		.4byte	0x2a5
 2821 055c 00       		.byte	0
 2822 055d 0B       		.uleb128 0xb
 2823 055e 6D010000 		.4byte	.LASF119
 2824 0562 0B       		.byte	0xb
 2825 0563 1F       		.byte	0x1f
 2826 0564 32050000 		.4byte	0x532
 2827 0568 04       		.byte	0x4
 2828 0569 0B       		.uleb128 0xb
 2829 056a 76090000 		.4byte	.LASF120
 2830 056e 0B       		.byte	0xb
 2831 056f 20       		.byte	0x20
 2832 0570 38050000 		.4byte	0x538
 2833 0574 08       		.byte	0x8
 2834 0575 0B       		.uleb128 0xb
 2835 0576 030C0000 		.4byte	.LASF125
 2836 057a 0B       		.byte	0xb
 2837 057b 21       		.byte	0x21
 2838 057c DA020000 		.4byte	0x2da
 2839 0580 0C       		.byte	0xc
 2840 0581 0B       		.uleb128 0xb
 2841 0582 FB0D0000 		.4byte	.LASF126
 2842 0586 0B       		.byte	0xb
 2843 0587 22       		.byte	0x22
 2844 0588 3E050000 		.4byte	0x53e
 2845 058c 10       		.byte	0x10
 2846 058d 0B       		.uleb128 0xb
 2847 058e 4C0D0000 		.4byte	.LASF127
 2848 0592 0B       		.byte	0xb
ARM GAS  C:\Users\saman\AppData\Local\Temp\ccOAgYwr.s 			page 74


 2849 0593 23       		.byte	0x23
 2850 0594 3E050000 		.4byte	0x53e
 2851 0598 28       		.byte	0x28
 2852 0599 00       		.byte	0
 2853 059a 03       		.uleb128 0x3
 2854 059b 4B0A0000 		.4byte	.LASF128
 2855 059f 0B       		.byte	0xb
 2856 05a0 24       		.byte	0x24
 2857 05a1 49050000 		.4byte	0x549
 2858 05a5 03       		.uleb128 0x3
 2859 05a6 D90D0000 		.4byte	.LASF129
 2860 05aa 0C       		.byte	0xc
 2861 05ab 53       		.byte	0x53
 2862 05ac 5D010000 		.4byte	0x15d
 2863 05b0 03       		.uleb128 0x3
 2864 05b1 AB0D0000 		.4byte	.LASF130
 2865 05b5 0C       		.byte	0xc
 2866 05b6 54       		.byte	0x54
 2867 05b7 64010000 		.4byte	0x164
 2868 05bb 03       		.uleb128 0x3
 2869 05bc 01050000 		.4byte	.LASF131
 2870 05c0 0D       		.byte	0xd
 2871 05c1 4D       		.byte	0x4d
 2872 05c2 B0050000 		.4byte	0x5b0
 2873 05c6 03       		.uleb128 0x3
 2874 05c7 FC0E0000 		.4byte	.LASF132
 2875 05cb 0D       		.byte	0xd
 2876 05cc 4F       		.byte	0x4f
 2877 05cd B0050000 		.4byte	0x5b0
 2878 05d1 03       		.uleb128 0x3
 2879 05d2 B2040000 		.4byte	.LASF133
 2880 05d6 0D       		.byte	0xd
 2881 05d7 78       		.byte	0x78
 2882 05d8 A5050000 		.4byte	0x5a5
 2883 05dc 13       		.uleb128 0x13
 2884 05dd D6050000 		.4byte	.LASF134
 2885 05e1 0E       		.byte	0xe
 2886 05e2 F701     		.2byte	0x1f7
 2887 05e4 D1050000 		.4byte	0x5d1
 2888 05e8 13       		.uleb128 0x13
 2889 05e9 B40E0000 		.4byte	.LASF135
 2890 05ed 0E       		.byte	0xe
 2891 05ee 2C02     		.2byte	0x22c
 2892 05f0 BB050000 		.4byte	0x5bb
 2893 05f4 03       		.uleb128 0x3
 2894 05f5 EA0C0000 		.4byte	.LASF136
 2895 05f9 0F       		.byte	0xf
 2896 05fa 19       		.byte	0x19
 2897 05fb FF050000 		.4byte	0x5ff
 2898 05ff 10       		.uleb128 0x10
 2899 0600 DC050000 		.4byte	0x5dc
 2900 0604 0A060000 		.4byte	0x60a
 2901 0608 11       		.uleb128 0x11
 2902 0609 00       		.byte	0
 2903 060a 03       		.uleb128 0x3
 2904 060b C9000000 		.4byte	.LASF137
 2905 060f 0F       		.byte	0xf
ARM GAS  C:\Users\saman\AppData\Local\Temp\ccOAgYwr.s 			page 75


 2906 0610 2D       		.byte	0x2d
 2907 0611 5E000000 		.4byte	0x5e
 2908 0615 04       		.uleb128 0x4
 2909 0616 01       		.byte	0x1
 2910 0617 37000000 		.4byte	0x37
 2911 061b 10       		.byte	0x10
 2912 061c 59       		.byte	0x59
 2913 061d 3A060000 		.4byte	0x63a
 2914 0621 05       		.uleb128 0x5
 2915 0622 67060000 		.4byte	.LASF138
 2916 0626 00       		.byte	0
 2917 0627 05       		.uleb128 0x5
 2918 0628 2A020000 		.4byte	.LASF139
 2919 062c 01       		.byte	0x1
 2920 062d 05       		.uleb128 0x5
 2921 062e 06040000 		.4byte	.LASF140
 2922 0632 02       		.byte	0x2
 2923 0633 05       		.uleb128 0x5
 2924 0634 6C0D0000 		.4byte	.LASF141
 2925 0638 03       		.byte	0x3
 2926 0639 00       		.byte	0
 2927 063a 03       		.uleb128 0x3
 2928 063b 730C0000 		.4byte	.LASF142
 2929 063f 10       		.byte	0x10
 2930 0640 5E       		.byte	0x5e
 2931 0641 15060000 		.4byte	0x615
 2932 0645 0A       		.uleb128 0xa
 2933 0646 44       		.byte	0x44
 2934 0647 11       		.byte	0x11
 2935 0648 21       		.byte	0x21
 2936 0649 7E060000 		.4byte	0x67e
 2937 064d 0B       		.uleb128 0xb
 2938 064e D0080000 		.4byte	.LASF143
 2939 0652 11       		.byte	0x11
 2940 0653 22       		.byte	0x22
 2941 0654 2C000000 		.4byte	0x2c
 2942 0658 00       		.byte	0
 2943 0659 0B       		.uleb128 0xb
 2944 065a D50B0000 		.4byte	.LASF144
 2945 065e 11       		.byte	0x11
 2946 065f 23       		.byte	0x23
 2947 0660 2C000000 		.4byte	0x2c
 2948 0664 01       		.byte	0x1
 2949 0665 0B       		.uleb128 0xb
 2950 0666 860C0000 		.4byte	.LASF145
 2951 066a 11       		.byte	0x11
 2952 066b 24       		.byte	0x24
 2953 066c 69020000 		.4byte	0x269
 2954 0670 02       		.byte	0x2
 2955 0671 0B       		.uleb128 0xb
 2956 0672 E5080000 		.4byte	.LASF146
 2957 0676 11       		.byte	0x11
 2958 0677 25       		.byte	0x25
 2959 0678 9A050000 		.4byte	0x59a
 2960 067c 04       		.byte	0x4
 2961 067d 00       		.byte	0
 2962 067e 03       		.uleb128 0x3
ARM GAS  C:\Users\saman\AppData\Local\Temp\ccOAgYwr.s 			page 76


 2963 067f 840A0000 		.4byte	.LASF147
 2964 0683 11       		.byte	0x11
 2965 0684 28       		.byte	0x28
 2966 0685 45060000 		.4byte	0x645
 2967 0689 03       		.uleb128 0x3
 2968 068a 9A050000 		.4byte	.LASF148
 2969 068e 03       		.byte	0x3
 2970 068f 26       		.byte	0x26
 2971 0690 94060000 		.4byte	0x694
 2972 0694 0C       		.uleb128 0xc
 2973 0695 04       		.byte	0x4
 2974 0696 9A060000 		.4byte	0x69a
 2975 069a 14       		.uleb128 0x14
 2976 069b 47010000 		.4byte	0x147
 2977 069f A9060000 		.4byte	0x6a9
 2978 06a3 15       		.uleb128 0x15
 2979 06a4 AF060000 		.4byte	0x6af
 2980 06a8 00       		.byte	0
 2981 06a9 0C       		.uleb128 0xc
 2982 06aa 04       		.byte	0x4
 2983 06ab 7E060000 		.4byte	0x67e
 2984 06af 12       		.uleb128 0x12
 2985 06b0 A9060000 		.4byte	0x6a9
 2986 06b4 03       		.uleb128 0x3
 2987 06b5 9C0C0000 		.4byte	.LASF149
 2988 06b9 03       		.byte	0x3
 2989 06ba 2C       		.byte	0x2c
 2990 06bb BF060000 		.4byte	0x6bf
 2991 06bf 0C       		.uleb128 0xc
 2992 06c0 04       		.byte	0x4
 2993 06c1 C5060000 		.4byte	0x6c5
 2994 06c5 14       		.uleb128 0x14
 2995 06c6 47010000 		.4byte	0x147
 2996 06ca D4060000 		.4byte	0x6d4
 2997 06ce 15       		.uleb128 0x15
 2998 06cf DF060000 		.4byte	0x6df
 2999 06d3 00       		.byte	0
 3000 06d4 0C       		.uleb128 0xc
 3001 06d5 04       		.byte	0x4
 3002 06d6 DA060000 		.4byte	0x6da
 3003 06da 12       		.uleb128 0x12
 3004 06db 7E060000 		.4byte	0x67e
 3005 06df 12       		.uleb128 0x12
 3006 06e0 D4060000 		.4byte	0x6d4
 3007 06e4 16       		.uleb128 0x16
 3008 06e5 580A0000 		.4byte	.LASF161
 3009 06e9 28       		.byte	0x28
 3010 06ea 03       		.byte	0x3
 3011 06eb 36       		.byte	0x36
 3012 06ec 69070000 		.4byte	0x769
 3013 06f0 0B       		.uleb128 0xb
 3014 06f1 100A0000 		.4byte	.LASF150
 3015 06f5 03       		.byte	0x3
 3016 06f6 3B       		.byte	0x3b
 3017 06f7 69070000 		.4byte	0x769
 3018 06fb 00       		.byte	0
 3019 06fc 0B       		.uleb128 0xb
ARM GAS  C:\Users\saman\AppData\Local\Temp\ccOAgYwr.s 			page 77


 3020 06fd 09050000 		.4byte	.LASF151
 3021 0701 03       		.byte	0x3
 3022 0702 40       		.byte	0x40
 3023 0703 6E070000 		.4byte	0x76e
 3024 0707 04       		.byte	0x4
 3025 0708 0B       		.uleb128 0xb
 3026 0709 94020000 		.4byte	.LASF152
 3027 070d 03       		.byte	0x3
 3028 070e 45       		.byte	0x45
 3029 070f 73070000 		.4byte	0x773
 3030 0713 08       		.byte	0x8
 3031 0714 0B       		.uleb128 0xb
 3032 0715 350B0000 		.4byte	.LASF153
 3033 0719 03       		.byte	0x3
 3034 071a 4B       		.byte	0x4b
 3035 071b 73070000 		.4byte	0x773
 3036 071f 0C       		.byte	0xc
 3037 0720 0B       		.uleb128 0xb
 3038 0721 40040000 		.4byte	.LASF154
 3039 0725 03       		.byte	0x3
 3040 0726 50       		.byte	0x50
 3041 0727 78070000 		.4byte	0x778
 3042 072b 10       		.byte	0x10
 3043 072c 0B       		.uleb128 0xb
 3044 072d 760A0000 		.4byte	.LASF155
 3045 0731 03       		.byte	0x3
 3046 0732 55       		.byte	0x55
 3047 0733 83070000 		.4byte	0x783
 3048 0737 14       		.byte	0x14
 3049 0738 0B       		.uleb128 0xb
 3050 0739 65090000 		.4byte	.LASF156
 3051 073d 03       		.byte	0x3
 3052 073e 5A       		.byte	0x5a
 3053 073f 78070000 		.4byte	0x778
 3054 0743 18       		.byte	0x18
 3055 0744 0B       		.uleb128 0xb
 3056 0745 DD0E0000 		.4byte	.LASF157
 3057 0749 03       		.byte	0x3
 3058 074a 5F       		.byte	0x5f
 3059 074b 83070000 		.4byte	0x783
 3060 074f 1C       		.byte	0x1c
 3061 0750 0B       		.uleb128 0xb
 3062 0751 E50B0000 		.4byte	.LASF158
 3063 0755 03       		.byte	0x3
 3064 0756 65       		.byte	0x65
 3065 0757 88070000 		.4byte	0x788
 3066 075b 20       		.byte	0x20
 3067 075c 0B       		.uleb128 0xb
 3068 075d 3A000000 		.4byte	.LASF159
 3069 0761 03       		.byte	0x3
 3070 0762 6A       		.byte	0x6a
 3071 0763 8D070000 		.4byte	0x78d
 3072 0767 24       		.byte	0x24
 3073 0768 00       		.byte	0
 3074 0769 12       		.uleb128 0x12
 3075 076a 89060000 		.4byte	0x689
 3076 076e 12       		.uleb128 0x12
ARM GAS  C:\Users\saman\AppData\Local\Temp\ccOAgYwr.s 			page 78


 3077 076f B4060000 		.4byte	0x6b4
 3078 0773 12       		.uleb128 0x12
 3079 0774 E8050000 		.4byte	0x5e8
 3080 0778 12       		.uleb128 0x12
 3081 0779 6B010000 		.4byte	0x16b
 3082 077d 0C       		.uleb128 0xc
 3083 077e 04       		.byte	0x4
 3084 077f F4050000 		.4byte	0x5f4
 3085 0783 12       		.uleb128 0x12
 3086 0784 7D070000 		.4byte	0x77d
 3087 0788 12       		.uleb128 0x12
 3088 0789 8C000000 		.4byte	0x8c
 3089 078d 12       		.uleb128 0x12
 3090 078e 0A060000 		.4byte	0x60a
 3091 0792 03       		.uleb128 0x3
 3092 0793 670A0000 		.4byte	.LASF160
 3093 0797 03       		.byte	0x3
 3094 0798 6D       		.byte	0x6d
 3095 0799 9D070000 		.4byte	0x79d
 3096 079d 12       		.uleb128 0x12
 3097 079e E4060000 		.4byte	0x6e4
 3098 07a2 16       		.uleb128 0x16
 3099 07a3 AC080000 		.4byte	.LASF162
 3100 07a7 50       		.byte	0x50
 3101 07a8 03       		.byte	0x3
 3102 07a9 79       		.byte	0x79
 3103 07aa DF070000 		.4byte	0x7df
 3104 07ae 0B       		.uleb128 0xb
 3105 07af B9040000 		.4byte	.LASF95
 3106 07b3 03       		.byte	0x3
 3107 07b4 7F       		.byte	0x7f
 3108 07b5 7E060000 		.4byte	0x67e
 3109 07b9 00       		.byte	0
 3110 07ba 0B       		.uleb128 0xb
 3111 07bb 850D0000 		.4byte	.LASF163
 3112 07bf 03       		.byte	0x3
 3113 07c0 84       		.byte	0x84
 3114 07c1 3A060000 		.4byte	0x63a
 3115 07c5 44       		.byte	0x44
 3116 07c6 17       		.uleb128 0x17
 3117 07c7 61676500 		.ascii	"age\000"
 3118 07cb 03       		.byte	0x3
 3119 07cc 89       		.byte	0x89
 3120 07cd 5E000000 		.4byte	0x5e
 3121 07d1 48       		.byte	0x48
 3122 07d2 0B       		.uleb128 0xb
 3123 07d3 F2080000 		.4byte	.LASF164
 3124 07d7 03       		.byte	0x3
 3125 07d8 8E       		.byte	0x8e
 3126 07d9 E5070000 		.4byte	0x7e5
 3127 07dd 4C       		.byte	0x4c
 3128 07de 00       		.byte	0
 3129 07df 0C       		.uleb128 0xc
 3130 07e0 04       		.byte	0x4
 3131 07e1 92070000 		.4byte	0x792
 3132 07e5 12       		.uleb128 0x12
 3133 07e6 DF070000 		.4byte	0x7df
ARM GAS  C:\Users\saman\AppData\Local\Temp\ccOAgYwr.s 			page 79


 3134 07ea 03       		.uleb128 0x3
 3135 07eb B7080000 		.4byte	.LASF165
 3136 07ef 03       		.byte	0x3
 3137 07f0 91       		.byte	0x91
 3138 07f1 A2070000 		.4byte	0x7a2
 3139 07f5 0A       		.uleb128 0xa
 3140 07f6 18       		.byte	0x18
 3141 07f7 12       		.byte	0x12
 3142 07f8 21       		.byte	0x21
 3143 07f9 16080000 		.4byte	0x816
 3144 07fd 0B       		.uleb128 0xb
 3145 07fe A7040000 		.4byte	.LASF166
 3146 0802 12       		.byte	0x12
 3147 0803 23       		.byte	0x23
 3148 0804 62030000 		.4byte	0x362
 3149 0808 00       		.byte	0
 3150 0809 0B       		.uleb128 0xb
 3151 080a 450D0000 		.4byte	.LASF167
 3152 080e 12       		.byte	0x12
 3153 080f 24       		.byte	0x24
 3154 0810 62030000 		.4byte	0x362
 3155 0814 0C       		.byte	0xc
 3156 0815 00       		.byte	0
 3157 0816 03       		.uleb128 0x3
 3158 0817 1B090000 		.4byte	.LASF168
 3159 081b 12       		.byte	0x12
 3160 081c 27       		.byte	0x27
 3161 081d F5070000 		.4byte	0x7f5
 3162 0821 03       		.uleb128 0x3
 3163 0822 560D0000 		.4byte	.LASF169
 3164 0826 02       		.byte	0x2
 3165 0827 26       		.byte	0x26
 3166 0828 2C080000 		.4byte	0x82c
 3167 082c 0C       		.uleb128 0xc
 3168 082d 04       		.byte	0x4
 3169 082e 32080000 		.4byte	0x832
 3170 0832 14       		.uleb128 0x14
 3171 0833 47010000 		.4byte	0x147
 3172 0837 41080000 		.4byte	0x841
 3173 083b 15       		.uleb128 0x15
 3174 083c 47080000 		.4byte	0x847
 3175 0840 00       		.byte	0
 3176 0841 0C       		.uleb128 0xc
 3177 0842 04       		.byte	0x4
 3178 0843 16080000 		.4byte	0x816
 3179 0847 12       		.uleb128 0x12
 3180 0848 41080000 		.4byte	0x841
 3181 084c 03       		.uleb128 0x3
 3182 084d 70080000 		.4byte	.LASF170
 3183 0851 02       		.byte	0x2
 3184 0852 2C       		.byte	0x2c
 3185 0853 57080000 		.4byte	0x857
 3186 0857 0C       		.uleb128 0xc
 3187 0858 04       		.byte	0x4
 3188 0859 5D080000 		.4byte	0x85d
 3189 085d 14       		.uleb128 0x14
 3190 085e 47010000 		.4byte	0x147
ARM GAS  C:\Users\saman\AppData\Local\Temp\ccOAgYwr.s 			page 80


 3191 0862 6C080000 		.4byte	0x86c
 3192 0866 15       		.uleb128 0x15
 3193 0867 77080000 		.4byte	0x877
 3194 086b 00       		.byte	0
 3195 086c 0C       		.uleb128 0xc
 3196 086d 04       		.byte	0x4
 3197 086e 72080000 		.4byte	0x872
 3198 0872 12       		.uleb128 0x12
 3199 0873 16080000 		.4byte	0x816
 3200 0877 12       		.uleb128 0x12
 3201 0878 6C080000 		.4byte	0x86c
 3202 087c 16       		.uleb128 0x16
 3203 087d 4E080000 		.4byte	.LASF171
 3204 0881 28       		.byte	0x28
 3205 0882 02       		.byte	0x2
 3206 0883 36       		.byte	0x36
 3207 0884 01090000 		.4byte	0x901
 3208 0888 0B       		.uleb128 0xb
 3209 0889 100A0000 		.4byte	.LASF150
 3210 088d 02       		.byte	0x2
 3211 088e 3B       		.byte	0x3b
 3212 088f 01090000 		.4byte	0x901
 3213 0893 00       		.byte	0
 3214 0894 0B       		.uleb128 0xb
 3215 0895 09050000 		.4byte	.LASF151
 3216 0899 02       		.byte	0x2
 3217 089a 40       		.byte	0x40
 3218 089b 06090000 		.4byte	0x906
 3219 089f 04       		.byte	0x4
 3220 08a0 0B       		.uleb128 0xb
 3221 08a1 94020000 		.4byte	.LASF152
 3222 08a5 02       		.byte	0x2
 3223 08a6 45       		.byte	0x45
 3224 08a7 73070000 		.4byte	0x773
 3225 08ab 08       		.byte	0x8
 3226 08ac 0B       		.uleb128 0xb
 3227 08ad 350B0000 		.4byte	.LASF153
 3228 08b1 02       		.byte	0x2
 3229 08b2 4B       		.byte	0x4b
 3230 08b3 73070000 		.4byte	0x773
 3231 08b7 0C       		.byte	0xc
 3232 08b8 0B       		.uleb128 0xb
 3233 08b9 40040000 		.4byte	.LASF154
 3234 08bd 02       		.byte	0x2
 3235 08be 50       		.byte	0x50
 3236 08bf 78070000 		.4byte	0x778
 3237 08c3 10       		.byte	0x10
 3238 08c4 0B       		.uleb128 0xb
 3239 08c5 760A0000 		.4byte	.LASF155
 3240 08c9 02       		.byte	0x2
 3241 08ca 55       		.byte	0x55
 3242 08cb 83070000 		.4byte	0x783
 3243 08cf 14       		.byte	0x14
 3244 08d0 0B       		.uleb128 0xb
 3245 08d1 65090000 		.4byte	.LASF156
 3246 08d5 02       		.byte	0x2
 3247 08d6 5A       		.byte	0x5a
ARM GAS  C:\Users\saman\AppData\Local\Temp\ccOAgYwr.s 			page 81


 3248 08d7 78070000 		.4byte	0x778
 3249 08db 18       		.byte	0x18
 3250 08dc 0B       		.uleb128 0xb
 3251 08dd DD0E0000 		.4byte	.LASF157
 3252 08e1 02       		.byte	0x2
 3253 08e2 5F       		.byte	0x5f
 3254 08e3 83070000 		.4byte	0x783
 3255 08e7 1C       		.byte	0x1c
 3256 08e8 0B       		.uleb128 0xb
 3257 08e9 E50B0000 		.4byte	.LASF158
 3258 08ed 02       		.byte	0x2
 3259 08ee 65       		.byte	0x65
 3260 08ef 88070000 		.4byte	0x788
 3261 08f3 20       		.byte	0x20
 3262 08f4 0B       		.uleb128 0xb
 3263 08f5 3A000000 		.4byte	.LASF159
 3264 08f9 02       		.byte	0x2
 3265 08fa 6A       		.byte	0x6a
 3266 08fb 8D070000 		.4byte	0x78d
 3267 08ff 24       		.byte	0x24
 3268 0900 00       		.byte	0
 3269 0901 12       		.uleb128 0x12
 3270 0902 21080000 		.4byte	0x821
 3271 0906 12       		.uleb128 0x12
 3272 0907 4C080000 		.4byte	0x84c
 3273 090b 03       		.uleb128 0x3
 3274 090c 5F080000 		.4byte	.LASF172
 3275 0910 02       		.byte	0x2
 3276 0911 6D       		.byte	0x6d
 3277 0912 16090000 		.4byte	0x916
 3278 0916 12       		.uleb128 0x12
 3279 0917 7C080000 		.4byte	0x87c
 3280 091b 16       		.uleb128 0x16
 3281 091c E4030000 		.4byte	.LASF173
 3282 0920 24       		.byte	0x24
 3283 0921 02       		.byte	0x2
 3284 0922 79       		.byte	0x79
 3285 0923 58090000 		.4byte	0x958
 3286 0927 0B       		.uleb128 0xb
 3287 0928 B9040000 		.4byte	.LASF95
 3288 092c 02       		.byte	0x2
 3289 092d 7F       		.byte	0x7f
 3290 092e 16080000 		.4byte	0x816
 3291 0932 00       		.byte	0
 3292 0933 0B       		.uleb128 0xb
 3293 0934 850D0000 		.4byte	.LASF163
 3294 0938 02       		.byte	0x2
 3295 0939 84       		.byte	0x84
 3296 093a 3A060000 		.4byte	0x63a
 3297 093e 18       		.byte	0x18
 3298 093f 17       		.uleb128 0x17
 3299 0940 61676500 		.ascii	"age\000"
 3300 0944 02       		.byte	0x2
 3301 0945 89       		.byte	0x89
 3302 0946 5E000000 		.4byte	0x5e
 3303 094a 1C       		.byte	0x1c
 3304 094b 0B       		.uleb128 0xb
ARM GAS  C:\Users\saman\AppData\Local\Temp\ccOAgYwr.s 			page 82


 3305 094c F2080000 		.4byte	.LASF164
 3306 0950 02       		.byte	0x2
 3307 0951 8E       		.byte	0x8e
 3308 0952 5E090000 		.4byte	0x95e
 3309 0956 20       		.byte	0x20
 3310 0957 00       		.byte	0
 3311 0958 0C       		.uleb128 0xc
 3312 0959 04       		.byte	0x4
 3313 095a 0B090000 		.4byte	0x90b
 3314 095e 12       		.uleb128 0x12
 3315 095f 58090000 		.4byte	0x958
 3316 0963 03       		.uleb128 0x3
 3317 0964 240D0000 		.4byte	.LASF174
 3318 0968 02       		.byte	0x2
 3319 0969 91       		.byte	0x91
 3320 096a 1B090000 		.4byte	0x91b
 3321 096e 18       		.uleb128 0x18
 3322 096f 3E010000 		.4byte	.LASF179
 3323 0973 02       		.byte	0x2
 3324 0974 3501     		.2byte	0x135
 3325 0976 47010000 		.4byte	0x147
 3326 097a 03       		.byte	0x3
 3327 097b CA090000 		.4byte	0x9ca
 3328 097f 19       		.uleb128 0x19
 3329 0980 770B0000 		.4byte	.LASF175
 3330 0984 02       		.byte	0x2
 3331 0985 3501     		.2byte	0x135
 3332 0987 D0090000 		.4byte	0x9d0
 3333 098b 19       		.uleb128 0x19
 3334 098c B9040000 		.4byte	.LASF95
 3335 0990 02       		.byte	0x2
 3336 0991 3501     		.2byte	0x135
 3337 0993 72080000 		.4byte	0x872
 3338 0997 1A       		.uleb128 0x1a
 3339 0998 72657400 		.ascii	"ret\000"
 3340 099c 02       		.byte	0x2
 3341 099d 3801     		.2byte	0x138
 3342 099f 47010000 		.4byte	0x147
 3343 09a3 1B       		.uleb128 0x1b
 3344 09a4 090D0000 		.4byte	.LASF176
 3345 09a8 02       		.byte	0x2
 3346 09a9 3901     		.2byte	0x139
 3347 09ab 6B010000 		.4byte	0x16b
 3348 09af 1B       		.uleb128 0x1b
 3349 09b0 92000000 		.4byte	.LASF177
 3350 09b4 02       		.byte	0x2
 3351 09b5 4301     		.2byte	0x143
 3352 09b7 7D070000 		.4byte	0x77d
 3353 09bb 1C       		.uleb128 0x1c
 3354 09bc 1B       		.uleb128 0x1b
 3355 09bd 630C0000 		.4byte	.LASF178
 3356 09c1 02       		.byte	0x2
 3357 09c2 4801     		.2byte	0x148
 3358 09c4 DC050000 		.4byte	0x5dc
 3359 09c8 00       		.byte	0
 3360 09c9 00       		.byte	0
 3361 09ca 0C       		.uleb128 0xc
ARM GAS  C:\Users\saman\AppData\Local\Temp\ccOAgYwr.s 			page 83


 3362 09cb 04       		.byte	0x4
 3363 09cc 63090000 		.4byte	0x963
 3364 09d0 12       		.uleb128 0x12
 3365 09d1 CA090000 		.4byte	0x9ca
 3366 09d5 18       		.uleb128 0x18
 3367 09d6 220B0000 		.4byte	.LASF180
 3368 09da 02       		.byte	0x2
 3369 09db 1201     		.2byte	0x112
 3370 09dd 16080000 		.4byte	0x816
 3371 09e1 03       		.byte	0x3
 3372 09e2 F3090000 		.4byte	0x9f3
 3373 09e6 19       		.uleb128 0x19
 3374 09e7 770B0000 		.4byte	.LASF175
 3375 09eb 02       		.byte	0x2
 3376 09ec 1201     		.2byte	0x112
 3377 09ee FE090000 		.4byte	0x9fe
 3378 09f2 00       		.byte	0
 3379 09f3 0C       		.uleb128 0xc
 3380 09f4 04       		.byte	0x4
 3381 09f5 F9090000 		.4byte	0x9f9
 3382 09f9 12       		.uleb128 0x12
 3383 09fa 63090000 		.4byte	0x963
 3384 09fe 12       		.uleb128 0x12
 3385 09ff F3090000 		.4byte	0x9f3
 3386 0a03 18       		.uleb128 0x18
 3387 0a04 EA0D0000 		.4byte	.LASF181
 3388 0a08 03       		.byte	0x3
 3389 0a09 1201     		.2byte	0x112
 3390 0a0b 7E060000 		.4byte	0x67e
 3391 0a0f 03       		.byte	0x3
 3392 0a10 210A0000 		.4byte	0xa21
 3393 0a14 19       		.uleb128 0x19
 3394 0a15 770B0000 		.4byte	.LASF175
 3395 0a19 03       		.byte	0x3
 3396 0a1a 1201     		.2byte	0x112
 3397 0a1c 2C0A0000 		.4byte	0xa2c
 3398 0a20 00       		.byte	0
 3399 0a21 0C       		.uleb128 0xc
 3400 0a22 04       		.byte	0x4
 3401 0a23 270A0000 		.4byte	0xa27
 3402 0a27 12       		.uleb128 0x12
 3403 0a28 EA070000 		.4byte	0x7ea
 3404 0a2c 12       		.uleb128 0x12
 3405 0a2d 210A0000 		.4byte	0xa21
 3406 0a31 18       		.uleb128 0x18
 3407 0a32 5D0B0000 		.4byte	.LASF182
 3408 0a36 03       		.byte	0x3
 3409 0a37 3501     		.2byte	0x135
 3410 0a39 47010000 		.4byte	0x147
 3411 0a3d 03       		.byte	0x3
 3412 0a3e 8D0A0000 		.4byte	0xa8d
 3413 0a42 19       		.uleb128 0x19
 3414 0a43 770B0000 		.4byte	.LASF175
 3415 0a47 03       		.byte	0x3
 3416 0a48 3501     		.2byte	0x135
 3417 0a4a 930A0000 		.4byte	0xa93
 3418 0a4e 19       		.uleb128 0x19
ARM GAS  C:\Users\saman\AppData\Local\Temp\ccOAgYwr.s 			page 84


 3419 0a4f B9040000 		.4byte	.LASF95
 3420 0a53 03       		.byte	0x3
 3421 0a54 3501     		.2byte	0x135
 3422 0a56 DA060000 		.4byte	0x6da
 3423 0a5a 1A       		.uleb128 0x1a
 3424 0a5b 72657400 		.ascii	"ret\000"
 3425 0a5f 03       		.byte	0x3
 3426 0a60 3801     		.2byte	0x138
 3427 0a62 47010000 		.4byte	0x147
 3428 0a66 1B       		.uleb128 0x1b
 3429 0a67 090D0000 		.4byte	.LASF176
 3430 0a6b 03       		.byte	0x3
 3431 0a6c 3901     		.2byte	0x139
 3432 0a6e 6B010000 		.4byte	0x16b
 3433 0a72 1B       		.uleb128 0x1b
 3434 0a73 92000000 		.4byte	.LASF177
 3435 0a77 03       		.byte	0x3
 3436 0a78 4301     		.2byte	0x143
 3437 0a7a 7D070000 		.4byte	0x77d
 3438 0a7e 1C       		.uleb128 0x1c
 3439 0a7f 1B       		.uleb128 0x1b
 3440 0a80 630C0000 		.4byte	.LASF178
 3441 0a84 03       		.byte	0x3
 3442 0a85 4801     		.2byte	0x148
 3443 0a87 DC050000 		.4byte	0x5dc
 3444 0a8b 00       		.byte	0
 3445 0a8c 00       		.byte	0
 3446 0a8d 0C       		.uleb128 0xc
 3447 0a8e 04       		.byte	0x4
 3448 0a8f EA070000 		.4byte	0x7ea
 3449 0a93 12       		.uleb128 0x12
 3450 0a94 8D0A0000 		.4byte	0xa8d
 3451 0a98 1D       		.uleb128 0x1d
 3452 0a99 FA020000 		.4byte	.LASF183
 3453 0a9d 01       		.byte	0x1
 3454 0a9e 7301     		.2byte	0x173
 3455 0aa0 00000000 		.4byte	.LFB158
 3456 0aa4 8C000000 		.4byte	.LFE158-.LFB158
 3457 0aa8 01       		.uleb128 0x1
 3458 0aa9 9C       		.byte	0x9c
 3459 0aaa 350B0000 		.4byte	0xb35
 3460 0aae 1E       		.uleb128 0x1e
 3461 0aaf 6B040000 		.4byte	.LASF185
 3462 0ab3 01       		.byte	0x1
 3463 0ab4 7501     		.2byte	0x175
 3464 0ab6 16080000 		.4byte	0x816
 3465 0aba 02       		.uleb128 0x2
 3466 0abb 91       		.byte	0x91
 3467 0abc 50       		.sleb128 -48
 3468 0abd 1F       		.uleb128 0x1f
 3469 0abe D5090000 		.4byte	0x9d5
 3470 0ac2 04000000 		.4byte	.LBB80
 3471 0ac6 12000000 		.4byte	.LBE80-.LBB80
 3472 0aca 01       		.byte	0x1
 3473 0acb 7501     		.2byte	0x175
 3474 0acd D70A0000 		.4byte	0xad7
 3475 0ad1 20       		.uleb128 0x20
ARM GAS  C:\Users\saman\AppData\Local\Temp\ccOAgYwr.s 			page 85


 3476 0ad2 E6090000 		.4byte	0x9e6
 3477 0ad6 00       		.byte	0
 3478 0ad7 21       		.uleb128 0x21
 3479 0ad8 6E090000 		.4byte	0x96e
 3480 0adc 3E000000 		.4byte	.LBB82
 3481 0ae0 44000000 		.4byte	.LBE82-.LBB82
 3482 0ae4 01       		.byte	0x1
 3483 0ae5 7A01     		.2byte	0x17a
 3484 0ae7 22       		.uleb128 0x22
 3485 0ae8 8B090000 		.4byte	0x98b
 3486 0aec 03       		.uleb128 0x3
 3487 0aed 91       		.byte	0x91
 3488 0aee B87F     		.sleb128 -72
 3489 0af0 20       		.uleb128 0x20
 3490 0af1 7F090000 		.4byte	0x97f
 3491 0af5 23       		.uleb128 0x23
 3492 0af6 3E000000 		.4byte	.LBB83
 3493 0afa 44000000 		.4byte	.LBE83-.LBB83
 3494 0afe 24       		.uleb128 0x24
 3495 0aff 97090000 		.4byte	0x997
 3496 0b03 00       		.byte	0
 3497 0b04 25       		.uleb128 0x25
 3498 0b05 A3090000 		.4byte	0x9a3
 3499 0b09 00000000 		.4byte	.LLST0
 3500 0b0d 25       		.uleb128 0x25
 3501 0b0e AF090000 		.4byte	0x9af
 3502 0b12 36000000 		.4byte	.LLST1
 3503 0b16 23       		.uleb128 0x23
 3504 0b17 68000000 		.4byte	.LBB84
 3505 0b1b 0A000000 		.4byte	.LBE84-.LBB84
 3506 0b1f 25       		.uleb128 0x25
 3507 0b20 BC090000 		.4byte	0x9bc
 3508 0b24 49000000 		.4byte	.LLST2
 3509 0b28 26       		.uleb128 0x26
 3510 0b29 72000000 		.4byte	.LVL6
 3511 0b2d 621B0000 		.4byte	0x1b62
 3512 0b31 00       		.byte	0
 3513 0b32 00       		.byte	0
 3514 0b33 00       		.byte	0
 3515 0b34 00       		.byte	0
 3516 0b35 1D       		.uleb128 0x1d
 3517 0b36 310D0000 		.4byte	.LASF184
 3518 0b3a 01       		.byte	0x1
 3519 0b3b 7D01     		.2byte	0x17d
 3520 0b3d 00000000 		.4byte	.LFB159
 3521 0b41 B4000000 		.4byte	.LFE159-.LFB159
 3522 0b45 01       		.uleb128 0x1
 3523 0b46 9C       		.byte	0x9c
 3524 0b47 140C0000 		.4byte	0xc14
 3525 0b4b 1E       		.uleb128 0x1e
 3526 0b4c 440B0000 		.4byte	.LASF186
 3527 0b50 01       		.byte	0x1
 3528 0b51 7F01     		.2byte	0x17f
 3529 0b53 7E060000 		.4byte	0x67e
 3530 0b57 03       		.uleb128 0x3
 3531 0b58 91       		.byte	0x91
 3532 0b59 A47F     		.sleb128 -92
ARM GAS  C:\Users\saman\AppData\Local\Temp\ccOAgYwr.s 			page 86


 3533 0b5b 1E       		.uleb128 0x1e
 3534 0b5c 6B040000 		.4byte	.LASF185
 3535 0b60 01       		.byte	0x1
 3536 0b61 8001     		.2byte	0x180
 3537 0b63 16080000 		.4byte	0x816
 3538 0b67 03       		.uleb128 0x3
 3539 0b68 91       		.byte	0x91
 3540 0b69 8C7F     		.sleb128 -116
 3541 0b6b 1F       		.uleb128 0x1f
 3542 0b6c 030A0000 		.4byte	0xa03
 3543 0b70 04000000 		.4byte	.LBB85
 3544 0b74 0A000000 		.4byte	.LBE85-.LBB85
 3545 0b78 01       		.byte	0x1
 3546 0b79 7F01     		.2byte	0x17f
 3547 0b7b 9C0B0000 		.4byte	0xb9c
 3548 0b7f 20       		.uleb128 0x20
 3549 0b80 140A0000 		.4byte	0xa14
 3550 0b84 27       		.uleb128 0x27
 3551 0b85 0E000000 		.4byte	.LVL13
 3552 0b89 6E1B0000 		.4byte	0x1b6e
 3553 0b8d 28       		.uleb128 0x28
 3554 0b8e 01       		.uleb128 0x1
 3555 0b8f 50       		.byte	0x50
 3556 0b90 03       		.uleb128 0x3
 3557 0b91 91       		.byte	0x91
 3558 0b92 A47F     		.sleb128 -92
 3559 0b94 28       		.uleb128 0x28
 3560 0b95 01       		.uleb128 0x1
 3561 0b96 52       		.byte	0x52
 3562 0b97 02       		.uleb128 0x2
 3563 0b98 08       		.byte	0x8
 3564 0b99 44       		.byte	0x44
 3565 0b9a 00       		.byte	0
 3566 0b9b 00       		.byte	0
 3567 0b9c 1F       		.uleb128 0x1f
 3568 0b9d D5090000 		.4byte	0x9d5
 3569 0ba1 0E000000 		.4byte	.LBB87
 3570 0ba5 10000000 		.4byte	.LBE87-.LBB87
 3571 0ba9 01       		.byte	0x1
 3572 0baa 8001     		.2byte	0x180
 3573 0bac B60B0000 		.4byte	0xbb6
 3574 0bb0 20       		.uleb128 0x20
 3575 0bb1 E6090000 		.4byte	0x9e6
 3576 0bb5 00       		.byte	0
 3577 0bb6 21       		.uleb128 0x21
 3578 0bb7 6E090000 		.4byte	0x96e
 3579 0bbb 66000000 		.4byte	.LBB89
 3580 0bbf 40000000 		.4byte	.LBE89-.LBB89
 3581 0bc3 01       		.byte	0x1
 3582 0bc4 9101     		.2byte	0x191
 3583 0bc6 22       		.uleb128 0x22
 3584 0bc7 8B090000 		.4byte	0x98b
 3585 0bcb 03       		.uleb128 0x3
 3586 0bcc 91       		.byte	0x91
 3587 0bcd F47E     		.sleb128 -140
 3588 0bcf 20       		.uleb128 0x20
 3589 0bd0 7F090000 		.4byte	0x97f
ARM GAS  C:\Users\saman\AppData\Local\Temp\ccOAgYwr.s 			page 87


 3590 0bd4 23       		.uleb128 0x23
 3591 0bd5 66000000 		.4byte	.LBB90
 3592 0bd9 40000000 		.4byte	.LBE90-.LBB90
 3593 0bdd 24       		.uleb128 0x24
 3594 0bde 97090000 		.4byte	0x997
 3595 0be2 00       		.byte	0
 3596 0be3 25       		.uleb128 0x25
 3597 0be4 A3090000 		.4byte	0x9a3
 3598 0be8 62000000 		.4byte	.LLST3
 3599 0bec 25       		.uleb128 0x25
 3600 0bed AF090000 		.4byte	0x9af
 3601 0bf1 98000000 		.4byte	.LLST4
 3602 0bf5 23       		.uleb128 0x23
 3603 0bf6 8C000000 		.4byte	.LBB91
 3604 0bfa 0A000000 		.4byte	.LBE91-.LBB91
 3605 0bfe 25       		.uleb128 0x25
 3606 0bff BC090000 		.4byte	0x9bc
 3607 0c03 AB000000 		.4byte	.LLST5
 3608 0c07 26       		.uleb128 0x26
 3609 0c08 96000000 		.4byte	.LVL19
 3610 0c0c 621B0000 		.4byte	0x1b62
 3611 0c10 00       		.byte	0
 3612 0c11 00       		.byte	0
 3613 0c12 00       		.byte	0
 3614 0c13 00       		.byte	0
 3615 0c14 1D       		.uleb128 0x1d
 3616 0c15 9F020000 		.4byte	.LASF187
 3617 0c19 01       		.byte	0x1
 3618 0c1a 9401     		.2byte	0x194
 3619 0c1c 00000000 		.4byte	.LFB160
 3620 0c20 6C000000 		.4byte	.LFE160-.LFB160
 3621 0c24 01       		.uleb128 0x1
 3622 0c25 9C       		.byte	0x9c
 3623 0c26 B10C0000 		.4byte	0xcb1
 3624 0c2a 1E       		.uleb128 0x1e
 3625 0c2b 6B040000 		.4byte	.LASF185
 3626 0c2f 01       		.byte	0x1
 3627 0c30 9601     		.2byte	0x196
 3628 0c32 16080000 		.4byte	0x816
 3629 0c36 02       		.uleb128 0x2
 3630 0c37 91       		.byte	0x91
 3631 0c38 50       		.sleb128 -48
 3632 0c39 1F       		.uleb128 0x1f
 3633 0c3a D5090000 		.4byte	0x9d5
 3634 0c3e 04000000 		.4byte	.LBB92
 3635 0c42 22000000 		.4byte	.LBE92-.LBB92
 3636 0c46 01       		.byte	0x1
 3637 0c47 9601     		.2byte	0x196
 3638 0c49 530C0000 		.4byte	0xc53
 3639 0c4d 20       		.uleb128 0x20
 3640 0c4e E6090000 		.4byte	0x9e6
 3641 0c52 00       		.byte	0
 3642 0c53 21       		.uleb128 0x21
 3643 0c54 6E090000 		.4byte	0x96e
 3644 0c58 26000000 		.4byte	.LBB94
 3645 0c5c 3C000000 		.4byte	.LBE94-.LBB94
 3646 0c60 01       		.byte	0x1
ARM GAS  C:\Users\saman\AppData\Local\Temp\ccOAgYwr.s 			page 88


 3647 0c61 9701     		.2byte	0x197
 3648 0c63 22       		.uleb128 0x22
 3649 0c64 8B090000 		.4byte	0x98b
 3650 0c68 03       		.uleb128 0x3
 3651 0c69 91       		.byte	0x91
 3652 0c6a B87F     		.sleb128 -72
 3653 0c6c 20       		.uleb128 0x20
 3654 0c6d 7F090000 		.4byte	0x97f
 3655 0c71 23       		.uleb128 0x23
 3656 0c72 26000000 		.4byte	.LBB95
 3657 0c76 3C000000 		.4byte	.LBE95-.LBB95
 3658 0c7a 24       		.uleb128 0x24
 3659 0c7b 97090000 		.4byte	0x997
 3660 0c7f 00       		.byte	0
 3661 0c80 25       		.uleb128 0x25
 3662 0c81 A3090000 		.4byte	0x9a3
 3663 0c85 C4000000 		.4byte	.LLST6
 3664 0c89 25       		.uleb128 0x25
 3665 0c8a AF090000 		.4byte	0x9af
 3666 0c8e FA000000 		.4byte	.LLST7
 3667 0c92 23       		.uleb128 0x23
 3668 0c93 48000000 		.4byte	.LBB96
 3669 0c97 0A000000 		.4byte	.LBE96-.LBB96
 3670 0c9b 25       		.uleb128 0x25
 3671 0c9c BC090000 		.4byte	0x9bc
 3672 0ca0 0D010000 		.4byte	.LLST8
 3673 0ca4 26       		.uleb128 0x26
 3674 0ca5 52000000 		.4byte	.LVL30
 3675 0ca9 621B0000 		.4byte	0x1b62
 3676 0cad 00       		.byte	0
 3677 0cae 00       		.byte	0
 3678 0caf 00       		.byte	0
 3679 0cb0 00       		.byte	0
 3680 0cb1 1D       		.uleb128 0x1d
 3681 0cb2 B10C0000 		.4byte	.LASF188
 3682 0cb6 01       		.byte	0x1
 3683 0cb7 9A01     		.2byte	0x19a
 3684 0cb9 00000000 		.4byte	.LFB161
 3685 0cbd C4000000 		.4byte	.LFE161-.LFB161
 3686 0cc1 01       		.uleb128 0x1
 3687 0cc2 9C       		.byte	0x9c
 3688 0cc3 4E0D0000 		.4byte	0xd4e
 3689 0cc7 1E       		.uleb128 0x1e
 3690 0cc8 25020000 		.4byte	.LASF189
 3691 0ccc 01       		.byte	0x1
 3692 0ccd 9D01     		.2byte	0x19d
 3693 0ccf 16080000 		.4byte	0x816
 3694 0cd3 02       		.uleb128 0x2
 3695 0cd4 91       		.byte	0x91
 3696 0cd5 50       		.sleb128 -48
 3697 0cd6 1F       		.uleb128 0x1f
 3698 0cd7 D5090000 		.4byte	0x9d5
 3699 0cdb 04000000 		.4byte	.LBB97
 3700 0cdf 10000000 		.4byte	.LBE97-.LBB97
 3701 0ce3 01       		.byte	0x1
 3702 0ce4 9D01     		.2byte	0x19d
 3703 0ce6 F00C0000 		.4byte	0xcf0
ARM GAS  C:\Users\saman\AppData\Local\Temp\ccOAgYwr.s 			page 89


 3704 0cea 20       		.uleb128 0x20
 3705 0ceb E6090000 		.4byte	0x9e6
 3706 0cef 00       		.byte	0
 3707 0cf0 21       		.uleb128 0x21
 3708 0cf1 6E090000 		.4byte	0x96e
 3709 0cf5 74000000 		.4byte	.LBB99
 3710 0cf9 40000000 		.4byte	.LBE99-.LBB99
 3711 0cfd 01       		.byte	0x1
 3712 0cfe A901     		.2byte	0x1a9
 3713 0d00 22       		.uleb128 0x22
 3714 0d01 8B090000 		.4byte	0x98b
 3715 0d05 03       		.uleb128 0x3
 3716 0d06 91       		.byte	0x91
 3717 0d07 B87F     		.sleb128 -72
 3718 0d09 20       		.uleb128 0x20
 3719 0d0a 7F090000 		.4byte	0x97f
 3720 0d0e 23       		.uleb128 0x23
 3721 0d0f 74000000 		.4byte	.LBB100
 3722 0d13 40000000 		.4byte	.LBE100-.LBB100
 3723 0d17 24       		.uleb128 0x24
 3724 0d18 97090000 		.4byte	0x997
 3725 0d1c 00       		.byte	0
 3726 0d1d 25       		.uleb128 0x25
 3727 0d1e A3090000 		.4byte	0x9a3
 3728 0d22 26010000 		.4byte	.LLST9
 3729 0d26 25       		.uleb128 0x25
 3730 0d27 AF090000 		.4byte	0x9af
 3731 0d2b 5C010000 		.4byte	.LLST10
 3732 0d2f 23       		.uleb128 0x23
 3733 0d30 9A000000 		.4byte	.LBB101
 3734 0d34 0A000000 		.4byte	.LBE101-.LBB101
 3735 0d38 25       		.uleb128 0x25
 3736 0d39 BC090000 		.4byte	0x9bc
 3737 0d3d 6F010000 		.4byte	.LLST11
 3738 0d41 26       		.uleb128 0x26
 3739 0d42 A4000000 		.4byte	.LVL42
 3740 0d46 621B0000 		.4byte	0x1b62
 3741 0d4a 00       		.byte	0
 3742 0d4b 00       		.byte	0
 3743 0d4c 00       		.byte	0
 3744 0d4d 00       		.byte	0
 3745 0d4e 1D       		.uleb128 0x1d
 3746 0d4f 410E0000 		.4byte	.LASF190
 3747 0d53 01       		.byte	0x1
 3748 0d54 2301     		.2byte	0x123
 3749 0d56 00000000 		.4byte	.LFB148
 3750 0d5a 08000000 		.4byte	.LFE148-.LFB148
 3751 0d5e 01       		.uleb128 0x1
 3752 0d5f 9C       		.byte	0x9c
 3753 0d60 6E0D0000 		.4byte	0xd6e
 3754 0d64 26       		.uleb128 0x26
 3755 0d65 06000000 		.4byte	.LVL48
 3756 0d69 B10C0000 		.4byte	0xcb1
 3757 0d6d 00       		.byte	0
 3758 0d6e 1D       		.uleb128 0x1d
 3759 0d6f 030E0000 		.4byte	.LASF191
 3760 0d73 01       		.byte	0x1
ARM GAS  C:\Users\saman\AppData\Local\Temp\ccOAgYwr.s 			page 90


 3761 0d74 AC01     		.2byte	0x1ac
 3762 0d76 00000000 		.4byte	.LFB162
 3763 0d7a 9C000000 		.4byte	.LFE162-.LFB162
 3764 0d7e 01       		.uleb128 0x1
 3765 0d7f 9C       		.byte	0x9c
 3766 0d80 180E0000 		.4byte	0xe18
 3767 0d84 1E       		.uleb128 0x1e
 3768 0d85 6B040000 		.4byte	.LASF185
 3769 0d89 01       		.byte	0x1
 3770 0d8a AE01     		.2byte	0x1ae
 3771 0d8c 16080000 		.4byte	0x816
 3772 0d90 02       		.uleb128 0x2
 3773 0d91 91       		.byte	0x91
 3774 0d92 50       		.sleb128 -48
 3775 0d93 1F       		.uleb128 0x1f
 3776 0d94 D5090000 		.4byte	0x9d5
 3777 0d98 04000000 		.4byte	.LBB102
 3778 0d9c 10000000 		.4byte	.LBE102-.LBB102
 3779 0da0 01       		.byte	0x1
 3780 0da1 AE01     		.2byte	0x1ae
 3781 0da3 AD0D0000 		.4byte	0xdad
 3782 0da7 20       		.uleb128 0x20
 3783 0da8 E6090000 		.4byte	0x9e6
 3784 0dac 00       		.byte	0
 3785 0dad 1F       		.uleb128 0x1f
 3786 0dae 6E090000 		.4byte	0x96e
 3787 0db2 50000000 		.4byte	.LBB104
 3788 0db6 40000000 		.4byte	.LBE104-.LBB104
 3789 0dba 01       		.byte	0x1
 3790 0dbb BA01     		.2byte	0x1ba
 3791 0dbd 0E0E0000 		.4byte	0xe0e
 3792 0dc1 22       		.uleb128 0x22
 3793 0dc2 8B090000 		.4byte	0x98b
 3794 0dc6 03       		.uleb128 0x3
 3795 0dc7 91       		.byte	0x91
 3796 0dc8 B87F     		.sleb128 -72
 3797 0dca 20       		.uleb128 0x20
 3798 0dcb 7F090000 		.4byte	0x97f
 3799 0dcf 23       		.uleb128 0x23
 3800 0dd0 50000000 		.4byte	.LBB105
 3801 0dd4 40000000 		.4byte	.LBE105-.LBB105
 3802 0dd8 24       		.uleb128 0x24
 3803 0dd9 97090000 		.4byte	0x997
 3804 0ddd 00       		.byte	0
 3805 0dde 25       		.uleb128 0x25
 3806 0ddf A3090000 		.4byte	0x9a3
 3807 0de3 88010000 		.4byte	.LLST12
 3808 0de7 25       		.uleb128 0x25
 3809 0de8 AF090000 		.4byte	0x9af
 3810 0dec BE010000 		.4byte	.LLST13
 3811 0df0 23       		.uleb128 0x23
 3812 0df1 76000000 		.4byte	.LBB106
 3813 0df5 0A000000 		.4byte	.LBE106-.LBB106
 3814 0df9 25       		.uleb128 0x25
 3815 0dfa BC090000 		.4byte	0x9bc
 3816 0dfe D1010000 		.4byte	.LLST14
 3817 0e02 26       		.uleb128 0x26
ARM GAS  C:\Users\saman\AppData\Local\Temp\ccOAgYwr.s 			page 91


 3818 0e03 80000000 		.4byte	.LVL55
 3819 0e07 621B0000 		.4byte	0x1b62
 3820 0e0b 00       		.byte	0
 3821 0e0c 00       		.byte	0
 3822 0e0d 00       		.byte	0
 3823 0e0e 26       		.uleb128 0x26
 3824 0e0f 40000000 		.4byte	.LVL51
 3825 0e13 140C0000 		.4byte	0xc14
 3826 0e17 00       		.byte	0
 3827 0e18 1D       		.uleb128 0x1d
 3828 0e19 1D010000 		.4byte	.LASF192
 3829 0e1d 01       		.byte	0x1
 3830 0e1e BD01     		.2byte	0x1bd
 3831 0e20 00000000 		.4byte	.LFB163
 3832 0e24 A0000000 		.4byte	.LFE163-.LFB163
 3833 0e28 01       		.uleb128 0x1
 3834 0e29 9C       		.byte	0x9c
 3835 0e2a CB0E0000 		.4byte	0xecb
 3836 0e2e 1E       		.uleb128 0x1e
 3837 0e2f 6B040000 		.4byte	.LASF185
 3838 0e33 01       		.byte	0x1
 3839 0e34 BF01     		.2byte	0x1bf
 3840 0e36 16080000 		.4byte	0x816
 3841 0e3a 02       		.uleb128 0x2
 3842 0e3b 91       		.byte	0x91
 3843 0e3c 50       		.sleb128 -48
 3844 0e3d 1F       		.uleb128 0x1f
 3845 0e3e D5090000 		.4byte	0x9d5
 3846 0e42 04000000 		.4byte	.LBB107
 3847 0e46 10000000 		.4byte	.LBE107-.LBB107
 3848 0e4a 01       		.byte	0x1
 3849 0e4b BF01     		.2byte	0x1bf
 3850 0e4d 570E0000 		.4byte	0xe57
 3851 0e51 20       		.uleb128 0x20
 3852 0e52 E6090000 		.4byte	0x9e6
 3853 0e56 00       		.byte	0
 3854 0e57 1F       		.uleb128 0x1f
 3855 0e58 6E090000 		.4byte	0x96e
 3856 0e5c 54000000 		.4byte	.LBB109
 3857 0e60 40000000 		.4byte	.LBE109-.LBB109
 3858 0e64 01       		.byte	0x1
 3859 0e65 CB01     		.2byte	0x1cb
 3860 0e67 B80E0000 		.4byte	0xeb8
 3861 0e6b 22       		.uleb128 0x22
 3862 0e6c 8B090000 		.4byte	0x98b
 3863 0e70 03       		.uleb128 0x3
 3864 0e71 91       		.byte	0x91
 3865 0e72 B87F     		.sleb128 -72
 3866 0e74 20       		.uleb128 0x20
 3867 0e75 7F090000 		.4byte	0x97f
 3868 0e79 23       		.uleb128 0x23
 3869 0e7a 54000000 		.4byte	.LBB110
 3870 0e7e 40000000 		.4byte	.LBE110-.LBB110
 3871 0e82 24       		.uleb128 0x24
 3872 0e83 97090000 		.4byte	0x997
 3873 0e87 00       		.byte	0
 3874 0e88 25       		.uleb128 0x25
ARM GAS  C:\Users\saman\AppData\Local\Temp\ccOAgYwr.s 			page 92


 3875 0e89 A3090000 		.4byte	0x9a3
 3876 0e8d EA010000 		.4byte	.LLST15
 3877 0e91 25       		.uleb128 0x25
 3878 0e92 AF090000 		.4byte	0x9af
 3879 0e96 20020000 		.4byte	.LLST16
 3880 0e9a 23       		.uleb128 0x23
 3881 0e9b 7A000000 		.4byte	.LBB111
 3882 0e9f 0A000000 		.4byte	.LBE111-.LBB111
 3883 0ea3 25       		.uleb128 0x25
 3884 0ea4 BC090000 		.4byte	0x9bc
 3885 0ea8 33020000 		.4byte	.LLST17
 3886 0eac 26       		.uleb128 0x26
 3887 0ead 84000000 		.4byte	.LVL68
 3888 0eb1 621B0000 		.4byte	0x1b62
 3889 0eb5 00       		.byte	0
 3890 0eb6 00       		.byte	0
 3891 0eb7 00       		.byte	0
 3892 0eb8 26       		.uleb128 0x26
 3893 0eb9 40000000 		.4byte	.LVL63
 3894 0ebd 6E0D0000 		.4byte	0xd6e
 3895 0ec1 26       		.uleb128 0x26
 3896 0ec2 44000000 		.4byte	.LVL64
 3897 0ec6 140C0000 		.4byte	0xc14
 3898 0eca 00       		.byte	0
 3899 0ecb 1D       		.uleb128 0x1d
 3900 0ecc 47020000 		.4byte	.LASF193
 3901 0ed0 01       		.byte	0x1
 3902 0ed1 6401     		.2byte	0x164
 3903 0ed3 00000000 		.4byte	.LFB157
 3904 0ed7 2C000000 		.4byte	.LFE157-.LFB157
 3905 0edb 01       		.uleb128 0x1
 3906 0edc 9C       		.byte	0x9c
 3907 0edd 350F0000 		.4byte	0xf35
 3908 0ee1 1E       		.uleb128 0x1e
 3909 0ee2 440B0000 		.4byte	.LASF186
 3910 0ee6 01       		.byte	0x1
 3911 0ee7 6601     		.2byte	0x166
 3912 0ee9 7E060000 		.4byte	0x67e
 3913 0eed 03       		.uleb128 0x3
 3914 0eee 91       		.byte	0x91
 3915 0eef B47F     		.sleb128 -76
 3916 0ef1 1F       		.uleb128 0x1f
 3917 0ef2 030A0000 		.4byte	0xa03
 3918 0ef6 04000000 		.4byte	.LBB112
 3919 0efa 0A000000 		.4byte	.LBE112-.LBB112
 3920 0efe 01       		.byte	0x1
 3921 0eff 6601     		.2byte	0x166
 3922 0f01 220F0000 		.4byte	0xf22
 3923 0f05 20       		.uleb128 0x20
 3924 0f06 140A0000 		.4byte	0xa14
 3925 0f0a 27       		.uleb128 0x27
 3926 0f0b 0E000000 		.4byte	.LVL75
 3927 0f0f 6E1B0000 		.4byte	0x1b6e
 3928 0f13 28       		.uleb128 0x28
 3929 0f14 01       		.uleb128 0x1
 3930 0f15 50       		.byte	0x50
 3931 0f16 03       		.uleb128 0x3
ARM GAS  C:\Users\saman\AppData\Local\Temp\ccOAgYwr.s 			page 93


 3932 0f17 91       		.byte	0x91
 3933 0f18 B47F     		.sleb128 -76
 3934 0f1a 28       		.uleb128 0x28
 3935 0f1b 01       		.uleb128 0x1
 3936 0f1c 52       		.byte	0x52
 3937 0f1d 02       		.uleb128 0x2
 3938 0f1e 08       		.byte	0x8
 3939 0f1f 44       		.byte	0x44
 3940 0f20 00       		.byte	0
 3941 0f21 00       		.byte	0
 3942 0f22 26       		.uleb128 0x26
 3943 0f23 18000000 		.4byte	.LVL76
 3944 0f27 6E0D0000 		.4byte	0xd6e
 3945 0f2b 26       		.uleb128 0x26
 3946 0f2c 22000000 		.4byte	.LVL77
 3947 0f30 180E0000 		.4byte	0xe18
 3948 0f34 00       		.byte	0
 3949 0f35 29       		.uleb128 0x29
 3950 0f36 82050000 		.4byte	.LASF236
 3951 0f3a 01       		.byte	0x1
 3952 0f3b D2       		.byte	0xd2
 3953 0f3c 00000000 		.4byte	.LFB146
 3954 0f40 6C010000 		.4byte	.LFE146-.LFB146
 3955 0f44 01       		.uleb128 0x1
 3956 0f45 9C       		.byte	0x9c
 3957 0f46 BC120000 		.4byte	0x12bc
 3958 0f4a 2A       		.uleb128 0x2a
 3959 0f4b 657600   		.ascii	"ev\000"
 3960 0f4e 01       		.byte	0x1
 3961 0f4f D2       		.byte	0xd2
 3962 0f50 69020000 		.4byte	0x269
 3963 0f54 4C020000 		.4byte	.LLST18
 3964 0f58 2B       		.uleb128 0x2b
 3965 0f59 190A0000 		.4byte	.LASF90
 3966 0f5d 01       		.byte	0x1
 3967 0f5e D2       		.byte	0xd2
 3968 0f5f DA020000 		.4byte	0x2da
 3969 0f63 6D020000 		.4byte	.LLST19
 3970 0f67 2C       		.uleb128 0x2c
 3971 0f68 440B0000 		.4byte	.LASF186
 3972 0f6c 01       		.byte	0x1
 3973 0f6d D4       		.byte	0xd4
 3974 0f6e 7E060000 		.4byte	0x67e
 3975 0f72 03       		.uleb128 0x3
 3976 0f73 91       		.byte	0x91
 3977 0f74 9C7F     		.sleb128 -100
 3978 0f76 2D       		.uleb128 0x2d
 3979 0f77 030A0000 		.4byte	0xa03
 3980 0f7b 0A000000 		.4byte	.LBB114
 3981 0f7f 0E000000 		.4byte	.LBE114-.LBB114
 3982 0f83 01       		.byte	0x1
 3983 0f84 D4       		.byte	0xd4
 3984 0f85 AC0F0000 		.4byte	0xfac
 3985 0f89 20       		.uleb128 0x20
 3986 0f8a 140A0000 		.4byte	0xa14
 3987 0f8e 27       		.uleb128 0x27
 3988 0f8f 18000000 		.4byte	.LVL82
ARM GAS  C:\Users\saman\AppData\Local\Temp\ccOAgYwr.s 			page 94


 3989 0f93 6E1B0000 		.4byte	0x1b6e
 3990 0f97 28       		.uleb128 0x28
 3991 0f98 01       		.uleb128 0x1
 3992 0f99 50       		.byte	0x50
 3993 0f9a 03       		.uleb128 0x3
 3994 0f9b 91       		.byte	0x91
 3995 0f9c 9C7F     		.sleb128 -100
 3996 0f9e 28       		.uleb128 0x28
 3997 0f9f 01       		.uleb128 0x1
 3998 0fa0 51       		.byte	0x51
 3999 0fa1 02       		.uleb128 0x2
 4000 0fa2 74       		.byte	0x74
 4001 0fa3 00       		.sleb128 0
 4002 0fa4 28       		.uleb128 0x28
 4003 0fa5 01       		.uleb128 0x1
 4004 0fa6 52       		.byte	0x52
 4005 0fa7 02       		.uleb128 0x2
 4006 0fa8 75       		.byte	0x75
 4007 0fa9 00       		.sleb128 0
 4008 0faa 00       		.byte	0
 4009 0fab 00       		.byte	0
 4010 0fac 2D       		.uleb128 0x2d
 4011 0fad 310A0000 		.4byte	0xa31
 4012 0fb1 2E000000 		.4byte	.LBB116
 4013 0fb5 3A000000 		.4byte	.LBE116-.LBB116
 4014 0fb9 01       		.byte	0x1
 4015 0fba E2       		.byte	0xe2
 4016 0fbb 2C100000 		.4byte	0x102c
 4017 0fbf 22       		.uleb128 0x22
 4018 0fc0 4E0A0000 		.4byte	0xa4e
 4019 0fc4 03       		.uleb128 0x3
 4020 0fc5 91       		.byte	0x91
 4021 0fc6 C87C     		.sleb128 -440
 4022 0fc8 20       		.uleb128 0x20
 4023 0fc9 420A0000 		.4byte	0xa42
 4024 0fcd 23       		.uleb128 0x23
 4025 0fce 2E000000 		.4byte	.LBB117
 4026 0fd2 3A000000 		.4byte	.LBE117-.LBB117
 4027 0fd6 24       		.uleb128 0x24
 4028 0fd7 5A0A0000 		.4byte	0xa5a
 4029 0fdb 00       		.byte	0
 4030 0fdc 25       		.uleb128 0x25
 4031 0fdd 660A0000 		.4byte	0xa66
 4032 0fe1 8E020000 		.4byte	.LLST20
 4033 0fe5 25       		.uleb128 0x25
 4034 0fe6 720A0000 		.4byte	0xa72
 4035 0fea C4020000 		.4byte	.LLST21
 4036 0fee 2E       		.uleb128 0x2e
 4037 0fef 4E000000 		.4byte	.LBB118
 4038 0ff3 0A000000 		.4byte	.LBE118-.LBB118
 4039 0ff7 0E100000 		.4byte	0x100e
 4040 0ffb 25       		.uleb128 0x25
 4041 0ffc 7F0A0000 		.4byte	0xa7f
 4042 1000 D7020000 		.4byte	.LLST22
 4043 1004 26       		.uleb128 0x26
 4044 1005 58000000 		.4byte	.LVL88
 4045 1009 621B0000 		.4byte	0x1b62
ARM GAS  C:\Users\saman\AppData\Local\Temp\ccOAgYwr.s 			page 95


 4046 100d 00       		.byte	0
 4047 100e 27       		.uleb128 0x27
 4048 100f 3A000000 		.4byte	.LVL85
 4049 1013 6E1B0000 		.4byte	0x1b6e
 4050 1017 28       		.uleb128 0x28
 4051 1018 01       		.uleb128 0x1
 4052 1019 50       		.byte	0x50
 4053 101a 02       		.uleb128 0x2
 4054 101b 74       		.byte	0x74
 4055 101c 00       		.sleb128 0
 4056 101d 28       		.uleb128 0x28
 4057 101e 01       		.uleb128 0x1
 4058 101f 51       		.byte	0x51
 4059 1020 02       		.uleb128 0x2
 4060 1021 7D       		.byte	0x7d
 4061 1022 00       		.sleb128 0
 4062 1023 28       		.uleb128 0x28
 4063 1024 01       		.uleb128 0x1
 4064 1025 52       		.byte	0x52
 4065 1026 02       		.uleb128 0x2
 4066 1027 75       		.byte	0x75
 4067 1028 00       		.sleb128 0
 4068 1029 00       		.byte	0
 4069 102a 00       		.byte	0
 4070 102b 00       		.byte	0
 4071 102c 2E       		.uleb128 0x2e
 4072 102d 6C000000 		.4byte	.LBB119
 4073 1031 7A000000 		.4byte	.LBE119-.LBB119
 4074 1035 42110000 		.4byte	0x1142
 4075 1039 2F       		.uleb128 0x2f
 4076 103a D6000000 		.4byte	.LASF194
 4077 103e 01       		.byte	0x1
 4078 103f EB       		.byte	0xeb
 4079 1040 A5020000 		.4byte	0x2a5
 4080 1044 F0020000 		.4byte	.LLST23
 4081 1048 2D       		.uleb128 0x2d
 4082 1049 030A0000 		.4byte	0xa03
 4083 104d 7C000000 		.4byte	.LBB120
 4084 1051 0E000000 		.4byte	.LBE120-.LBB120
 4085 1055 01       		.byte	0x1
 4086 1056 FF       		.byte	0xff
 4087 1057 7E100000 		.4byte	0x107e
 4088 105b 20       		.uleb128 0x20
 4089 105c 140A0000 		.4byte	0xa14
 4090 1060 27       		.uleb128 0x27
 4091 1061 8A000000 		.4byte	.LVL95
 4092 1065 6E1B0000 		.4byte	0x1b6e
 4093 1069 28       		.uleb128 0x28
 4094 106a 01       		.uleb128 0x1
 4095 106b 50       		.byte	0x50
 4096 106c 03       		.uleb128 0x3
 4097 106d 91       		.byte	0x91
 4098 106e D07D     		.sleb128 -304
 4099 1070 28       		.uleb128 0x28
 4100 1071 01       		.uleb128 0x1
 4101 1072 51       		.byte	0x51
 4102 1073 02       		.uleb128 0x2
ARM GAS  C:\Users\saman\AppData\Local\Temp\ccOAgYwr.s 			page 96


 4103 1074 74       		.byte	0x74
 4104 1075 00       		.sleb128 0
 4105 1076 28       		.uleb128 0x28
 4106 1077 01       		.uleb128 0x1
 4107 1078 52       		.byte	0x52
 4108 1079 02       		.uleb128 0x2
 4109 107a 75       		.byte	0x75
 4110 107b 00       		.sleb128 0
 4111 107c 00       		.byte	0
 4112 107d 00       		.byte	0
 4113 107e 1F       		.uleb128 0x1f
 4114 107f 310A0000 		.4byte	0xa31
 4115 1083 A6000000 		.4byte	.LBB122
 4116 1087 40000000 		.4byte	.LBE122-.LBB122
 4117 108b 01       		.byte	0x1
 4118 108c 0101     		.2byte	0x101
 4119 108e 09110000 		.4byte	0x1109
 4120 1092 22       		.uleb128 0x22
 4121 1093 4E0A0000 		.4byte	0xa4e
 4122 1097 03       		.uleb128 0x3
 4123 1098 91       		.byte	0x91
 4124 1099 8C7D     		.sleb128 -372
 4125 109b 20       		.uleb128 0x20
 4126 109c 420A0000 		.4byte	0xa42
 4127 10a0 23       		.uleb128 0x23
 4128 10a1 A6000000 		.4byte	.LBB123
 4129 10a5 40000000 		.4byte	.LBE123-.LBB123
 4130 10a9 25       		.uleb128 0x25
 4131 10aa 5A0A0000 		.4byte	0xa5a
 4132 10ae 03030000 		.4byte	.LLST24
 4133 10b2 25       		.uleb128 0x25
 4134 10b3 660A0000 		.4byte	0xa66
 4135 10b7 17030000 		.4byte	.LLST25
 4136 10bb 25       		.uleb128 0x25
 4137 10bc 720A0000 		.4byte	0xa72
 4138 10c0 4D030000 		.4byte	.LLST26
 4139 10c4 2E       		.uleb128 0x2e
 4140 10c5 CA000000 		.4byte	.LBB124
 4141 10c9 0A000000 		.4byte	.LBE124-.LBB124
 4142 10cd E4100000 		.4byte	0x10e4
 4143 10d1 25       		.uleb128 0x25
 4144 10d2 7F0A0000 		.4byte	0xa7f
 4145 10d6 60030000 		.4byte	.LLST27
 4146 10da 26       		.uleb128 0x26
 4147 10db D4000000 		.4byte	.LVL102
 4148 10df 621B0000 		.4byte	0x1b62
 4149 10e3 00       		.byte	0
 4150 10e4 27       		.uleb128 0x27
 4151 10e5 B4000000 		.4byte	.LVL99
 4152 10e9 6E1B0000 		.4byte	0x1b6e
 4153 10ed 28       		.uleb128 0x28
 4154 10ee 01       		.uleb128 0x1
 4155 10ef 50       		.byte	0x50
 4156 10f0 02       		.uleb128 0x2
 4157 10f1 74       		.byte	0x74
 4158 10f2 00       		.sleb128 0
 4159 10f3 28       		.uleb128 0x28
ARM GAS  C:\Users\saman\AppData\Local\Temp\ccOAgYwr.s 			page 97


 4160 10f4 01       		.uleb128 0x1
 4161 10f5 51       		.byte	0x51
 4162 10f6 09       		.uleb128 0x9
 4163 10f7 91       		.byte	0x91
 4164 10f8 00       		.sleb128 0
 4165 10f9 75       		.byte	0x75
 4166 10fa 00       		.sleb128 0
 4167 10fb 22       		.byte	0x22
 4168 10fc 0A       		.byte	0xa
 4169 10fd B801     		.2byte	0x1b8
 4170 10ff 1C       		.byte	0x1c
 4171 1100 28       		.uleb128 0x28
 4172 1101 01       		.uleb128 0x1
 4173 1102 52       		.byte	0x52
 4174 1103 02       		.uleb128 0x2
 4175 1104 75       		.byte	0x75
 4176 1105 00       		.sleb128 0
 4177 1106 00       		.byte	0
 4178 1107 00       		.byte	0
 4179 1108 00       		.byte	0
 4180 1109 30       		.uleb128 0x30
 4181 110a 7C000000 		.4byte	.LVL94
 4182 110e 771B0000 		.4byte	0x1b77
 4183 1112 23110000 		.4byte	0x1123
 4184 1116 28       		.uleb128 0x28
 4185 1117 01       		.uleb128 0x1
 4186 1118 50       		.byte	0x50
 4187 1119 02       		.uleb128 0x2
 4188 111a 76       		.byte	0x76
 4189 111b 00       		.sleb128 0
 4190 111c 28       		.uleb128 0x28
 4191 111d 01       		.uleb128 0x1
 4192 111e 51       		.byte	0x51
 4193 111f 02       		.uleb128 0x2
 4194 1120 78       		.byte	0x78
 4195 1121 00       		.sleb128 0
 4196 1122 00       		.byte	0
 4197 1123 27       		.uleb128 0x27
 4198 1124 94000000 		.4byte	.LVL96
 4199 1128 6E1B0000 		.4byte	0x1b6e
 4200 112c 28       		.uleb128 0x28
 4201 112d 01       		.uleb128 0x1
 4202 112e 50       		.byte	0x50
 4203 112f 03       		.uleb128 0x3
 4204 1130 91       		.byte	0x91
 4205 1131 9C7F     		.sleb128 -100
 4206 1133 28       		.uleb128 0x28
 4207 1134 01       		.uleb128 0x1
 4208 1135 51       		.byte	0x51
 4209 1136 03       		.uleb128 0x3
 4210 1137 91       		.byte	0x91
 4211 1138 D07D     		.sleb128 -304
 4212 113a 28       		.uleb128 0x28
 4213 113b 01       		.uleb128 0x1
 4214 113c 52       		.byte	0x52
 4215 113d 02       		.uleb128 0x2
 4216 113e 75       		.byte	0x75
ARM GAS  C:\Users\saman\AppData\Local\Temp\ccOAgYwr.s 			page 98


 4217 113f 00       		.sleb128 0
 4218 1140 00       		.byte	0
 4219 1141 00       		.byte	0
 4220 1142 2E       		.uleb128 0x2e
 4221 1143 EA000000 		.4byte	.LBB125
 4222 1147 72000000 		.4byte	.LBE125-.LBB125
 4223 114b 54120000 		.4byte	0x1254
 4224 114f 31       		.uleb128 0x31
 4225 1150 D6000000 		.4byte	.LASF194
 4226 1154 01       		.byte	0x1
 4227 1155 0501     		.2byte	0x105
 4228 1157 A5020000 		.4byte	0x2a5
 4229 115b 79030000 		.4byte	.LLST28
 4230 115f 1F       		.uleb128 0x1f
 4231 1160 030A0000 		.4byte	0xa03
 4232 1164 FA000000 		.4byte	.LBB126
 4233 1168 0E000000 		.4byte	.LBE126-.LBB126
 4234 116c 01       		.byte	0x1
 4235 116d 1201     		.2byte	0x112
 4236 116f 96110000 		.4byte	0x1196
 4237 1173 20       		.uleb128 0x20
 4238 1174 140A0000 		.4byte	0xa14
 4239 1178 27       		.uleb128 0x27
 4240 1179 08010000 		.4byte	.LVL109
 4241 117d 6E1B0000 		.4byte	0x1b6e
 4242 1181 28       		.uleb128 0x28
 4243 1182 01       		.uleb128 0x1
 4244 1183 50       		.byte	0x50
 4245 1184 03       		.uleb128 0x3
 4246 1185 91       		.byte	0x91
 4247 1186 D87E     		.sleb128 -168
 4248 1188 28       		.uleb128 0x28
 4249 1189 01       		.uleb128 0x1
 4250 118a 51       		.byte	0x51
 4251 118b 02       		.uleb128 0x2
 4252 118c 74       		.byte	0x74
 4253 118d 00       		.sleb128 0
 4254 118e 28       		.uleb128 0x28
 4255 118f 01       		.uleb128 0x1
 4256 1190 52       		.byte	0x52
 4257 1191 02       		.uleb128 0x2
 4258 1192 75       		.byte	0x75
 4259 1193 00       		.sleb128 0
 4260 1194 00       		.byte	0
 4261 1195 00       		.byte	0
 4262 1196 1F       		.uleb128 0x1f
 4263 1197 310A0000 		.4byte	0xa31
 4264 119b 22010000 		.4byte	.LBB128
 4265 119f 3A000000 		.4byte	.LBE128-.LBB128
 4266 11a3 01       		.byte	0x1
 4267 11a4 1601     		.2byte	0x116
 4268 11a6 1B120000 		.4byte	0x121b
 4269 11aa 22       		.uleb128 0x22
 4270 11ab 4E0A0000 		.4byte	0xa4e
 4271 11af 03       		.uleb128 0x3
 4272 11b0 91       		.byte	0x91
 4273 11b1 947E     		.sleb128 -236
ARM GAS  C:\Users\saman\AppData\Local\Temp\ccOAgYwr.s 			page 99


 4274 11b3 20       		.uleb128 0x20
 4275 11b4 420A0000 		.4byte	0xa42
 4276 11b8 23       		.uleb128 0x23
 4277 11b9 22010000 		.4byte	.LBB129
 4278 11bd 3A000000 		.4byte	.LBE129-.LBB129
 4279 11c1 25       		.uleb128 0x25
 4280 11c2 5A0A0000 		.4byte	0xa5a
 4281 11c6 8C030000 		.4byte	.LLST29
 4282 11ca 25       		.uleb128 0x25
 4283 11cb 660A0000 		.4byte	0xa66
 4284 11cf A0030000 		.4byte	.LLST30
 4285 11d3 25       		.uleb128 0x25
 4286 11d4 720A0000 		.4byte	0xa72
 4287 11d8 D6030000 		.4byte	.LLST31
 4288 11dc 2E       		.uleb128 0x2e
 4289 11dd 42010000 		.4byte	.LBB130
 4290 11e1 0A000000 		.4byte	.LBE130-.LBB130
 4291 11e5 FC110000 		.4byte	0x11fc
 4292 11e9 25       		.uleb128 0x25
 4293 11ea 7F0A0000 		.4byte	0xa7f
 4294 11ee E9030000 		.4byte	.LLST32
 4295 11f2 26       		.uleb128 0x26
 4296 11f3 4C010000 		.4byte	.LVL116
 4297 11f7 621B0000 		.4byte	0x1b62
 4298 11fb 00       		.byte	0
 4299 11fc 27       		.uleb128 0x27
 4300 11fd 2E010000 		.4byte	.LVL113
 4301 1201 6E1B0000 		.4byte	0x1b6e
 4302 1205 28       		.uleb128 0x28
 4303 1206 01       		.uleb128 0x1
 4304 1207 50       		.byte	0x50
 4305 1208 02       		.uleb128 0x2
 4306 1209 74       		.byte	0x74
 4307 120a 00       		.sleb128 0
 4308 120b 28       		.uleb128 0x28
 4309 120c 01       		.uleb128 0x1
 4310 120d 51       		.byte	0x51
 4311 120e 03       		.uleb128 0x3
 4312 120f 91       		.byte	0x91
 4313 1210 947E     		.sleb128 -236
 4314 1212 28       		.uleb128 0x28
 4315 1213 01       		.uleb128 0x1
 4316 1214 52       		.byte	0x52
 4317 1215 02       		.uleb128 0x2
 4318 1216 75       		.byte	0x75
 4319 1217 00       		.sleb128 0
 4320 1218 00       		.byte	0
 4321 1219 00       		.byte	0
 4322 121a 00       		.byte	0
 4323 121b 30       		.uleb128 0x30
 4324 121c FA000000 		.4byte	.LVL108
 4325 1220 771B0000 		.4byte	0x1b77
 4326 1224 35120000 		.4byte	0x1235
 4327 1228 28       		.uleb128 0x28
 4328 1229 01       		.uleb128 0x1
 4329 122a 50       		.byte	0x50
 4330 122b 02       		.uleb128 0x2
ARM GAS  C:\Users\saman\AppData\Local\Temp\ccOAgYwr.s 			page 100


 4331 122c 76       		.byte	0x76
 4332 122d 00       		.sleb128 0
 4333 122e 28       		.uleb128 0x28
 4334 122f 01       		.uleb128 0x1
 4335 1230 51       		.byte	0x51
 4336 1231 02       		.uleb128 0x2
 4337 1232 78       		.byte	0x78
 4338 1233 00       		.sleb128 0
 4339 1234 00       		.byte	0
 4340 1235 27       		.uleb128 0x27
 4341 1236 12010000 		.4byte	.LVL110
 4342 123a 6E1B0000 		.4byte	0x1b6e
 4343 123e 28       		.uleb128 0x28
 4344 123f 01       		.uleb128 0x1
 4345 1240 50       		.byte	0x50
 4346 1241 03       		.uleb128 0x3
 4347 1242 91       		.byte	0x91
 4348 1243 9C7F     		.sleb128 -100
 4349 1245 28       		.uleb128 0x28
 4350 1246 01       		.uleb128 0x1
 4351 1247 51       		.byte	0x51
 4352 1248 03       		.uleb128 0x3
 4353 1249 91       		.byte	0x91
 4354 124a D87E     		.sleb128 -168
 4355 124c 28       		.uleb128 0x28
 4356 124d 01       		.uleb128 0x1
 4357 124e 52       		.byte	0x52
 4358 124f 02       		.uleb128 0x2
 4359 1250 75       		.byte	0x75
 4360 1251 00       		.sleb128 0
 4361 1252 00       		.byte	0
 4362 1253 00       		.byte	0
 4363 1254 30       		.uleb128 0x30
 4364 1255 2E000000 		.4byte	.LVL84
 4365 1259 6E1B0000 		.4byte	0x1b6e
 4366 125d 75120000 		.4byte	0x1275
 4367 1261 28       		.uleb128 0x28
 4368 1262 01       		.uleb128 0x1
 4369 1263 50       		.byte	0x50
 4370 1264 02       		.uleb128 0x2
 4371 1265 7D       		.byte	0x7d
 4372 1266 00       		.sleb128 0
 4373 1267 28       		.uleb128 0x28
 4374 1268 01       		.uleb128 0x1
 4375 1269 51       		.byte	0x51
 4376 126a 03       		.uleb128 0x3
 4377 126b 91       		.byte	0x91
 4378 126c 9C7F     		.sleb128 -100
 4379 126e 28       		.uleb128 0x28
 4380 126f 01       		.uleb128 0x1
 4381 1270 52       		.byte	0x52
 4382 1271 02       		.uleb128 0x2
 4383 1272 75       		.byte	0x75
 4384 1273 00       		.sleb128 0
 4385 1274 00       		.byte	0
 4386 1275 30       		.uleb128 0x30
 4387 1276 A6000000 		.4byte	.LVL98
ARM GAS  C:\Users\saman\AppData\Local\Temp\ccOAgYwr.s 			page 101


 4388 127a 6E1B0000 		.4byte	0x1b6e
 4389 127e 9D120000 		.4byte	0x129d
 4390 1282 28       		.uleb128 0x28
 4391 1283 01       		.uleb128 0x1
 4392 1284 50       		.byte	0x50
 4393 1285 09       		.uleb128 0x9
 4394 1286 91       		.byte	0x91
 4395 1287 00       		.sleb128 0
 4396 1288 75       		.byte	0x75
 4397 1289 00       		.sleb128 0
 4398 128a 22       		.byte	0x22
 4399 128b 0A       		.byte	0xa
 4400 128c B801     		.2byte	0x1b8
 4401 128e 1C       		.byte	0x1c
 4402 128f 28       		.uleb128 0x28
 4403 1290 01       		.uleb128 0x1
 4404 1291 51       		.byte	0x51
 4405 1292 03       		.uleb128 0x3
 4406 1293 91       		.byte	0x91
 4407 1294 9C7F     		.sleb128 -100
 4408 1296 28       		.uleb128 0x28
 4409 1297 01       		.uleb128 0x1
 4410 1298 52       		.byte	0x52
 4411 1299 02       		.uleb128 0x2
 4412 129a 75       		.byte	0x75
 4413 129b 00       		.sleb128 0
 4414 129c 00       		.byte	0
 4415 129d 27       		.uleb128 0x27
 4416 129e 22010000 		.4byte	.LVL112
 4417 12a2 6E1B0000 		.4byte	0x1b6e
 4418 12a6 28       		.uleb128 0x28
 4419 12a7 01       		.uleb128 0x1
 4420 12a8 50       		.byte	0x50
 4421 12a9 03       		.uleb128 0x3
 4422 12aa 91       		.byte	0x91
 4423 12ab 947E     		.sleb128 -236
 4424 12ad 28       		.uleb128 0x28
 4425 12ae 01       		.uleb128 0x1
 4426 12af 51       		.byte	0x51
 4427 12b0 03       		.uleb128 0x3
 4428 12b1 91       		.byte	0x91
 4429 12b2 9C7F     		.sleb128 -100
 4430 12b4 28       		.uleb128 0x28
 4431 12b5 01       		.uleb128 0x1
 4432 12b6 52       		.byte	0x52
 4433 12b7 02       		.uleb128 0x2
 4434 12b8 75       		.byte	0x75
 4435 12b9 00       		.sleb128 0
 4436 12ba 00       		.byte	0
 4437 12bb 00       		.byte	0
 4438 12bc 1D       		.uleb128 0x1d
 4439 12bd 770E0000 		.4byte	.LASF195
 4440 12c1 01       		.byte	0x1
 4441 12c2 1A01     		.2byte	0x11a
 4442 12c4 00000000 		.4byte	.LFB147
 4443 12c8 70000000 		.4byte	.LFE147-.LFB147
 4444 12cc 01       		.uleb128 0x1
ARM GAS  C:\Users\saman\AppData\Local\Temp\ccOAgYwr.s 			page 102


 4445 12cd 9C       		.byte	0x9c
 4446 12ce DA130000 		.4byte	0x13da
 4447 12d2 1E       		.uleb128 0x1e
 4448 12d3 440B0000 		.4byte	.LASF186
 4449 12d7 01       		.byte	0x1
 4450 12d8 1D01     		.2byte	0x11d
 4451 12da 7E060000 		.4byte	0x67e
 4452 12de 03       		.uleb128 0x3
 4453 12df 91       		.byte	0x91
 4454 12e0 AC7F     		.sleb128 -84
 4455 12e2 1F       		.uleb128 0x1f
 4456 12e3 030A0000 		.4byte	0xa03
 4457 12e7 04000000 		.4byte	.LBB131
 4458 12eb 10000000 		.4byte	.LBE131-.LBB131
 4459 12ef 01       		.byte	0x1
 4460 12f0 1D01     		.2byte	0x11d
 4461 12f2 1E130000 		.4byte	0x131e
 4462 12f6 20       		.uleb128 0x20
 4463 12f7 140A0000 		.4byte	0xa14
 4464 12fb 27       		.uleb128 0x27
 4465 12fc 14000000 		.4byte	.LVL122
 4466 1300 6E1B0000 		.4byte	0x1b6e
 4467 1304 28       		.uleb128 0x28
 4468 1305 01       		.uleb128 0x1
 4469 1306 50       		.byte	0x50
 4470 1307 08       		.uleb128 0x8
 4471 1308 91       		.byte	0x91
 4472 1309 00       		.sleb128 0
 4473 130a 75       		.byte	0x75
 4474 130b 00       		.sleb128 0
 4475 130c 22       		.byte	0x22
 4476 130d 08       		.byte	0x8
 4477 130e 98       		.byte	0x98
 4478 130f 1C       		.byte	0x1c
 4479 1310 28       		.uleb128 0x28
 4480 1311 01       		.uleb128 0x1
 4481 1312 51       		.byte	0x51
 4482 1313 02       		.uleb128 0x2
 4483 1314 74       		.byte	0x74
 4484 1315 00       		.sleb128 0
 4485 1316 28       		.uleb128 0x28
 4486 1317 01       		.uleb128 0x1
 4487 1318 52       		.byte	0x52
 4488 1319 02       		.uleb128 0x2
 4489 131a 75       		.byte	0x75
 4490 131b 00       		.sleb128 0
 4491 131c 00       		.byte	0
 4492 131d 00       		.byte	0
 4493 131e 1F       		.uleb128 0x1f
 4494 131f 310A0000 		.4byte	0xa31
 4495 1323 26000000 		.4byte	.LBB133
 4496 1327 3A000000 		.4byte	.LBE133-.LBB133
 4497 132b 01       		.byte	0x1
 4498 132c 1F01     		.2byte	0x11f
 4499 132e 9F130000 		.4byte	0x139f
 4500 1332 22       		.uleb128 0x22
 4501 1333 4E0A0000 		.4byte	0xa4e
ARM GAS  C:\Users\saman\AppData\Local\Temp\ccOAgYwr.s 			page 103


 4502 1337 03       		.uleb128 0x3
 4503 1338 91       		.byte	0x91
 4504 1339 E87E     		.sleb128 -152
 4505 133b 20       		.uleb128 0x20
 4506 133c 420A0000 		.4byte	0xa42
 4507 1340 23       		.uleb128 0x23
 4508 1341 26000000 		.4byte	.LBB134
 4509 1345 3A000000 		.4byte	.LBE134-.LBB134
 4510 1349 24       		.uleb128 0x24
 4511 134a 5A0A0000 		.4byte	0xa5a
 4512 134e 00       		.byte	0
 4513 134f 25       		.uleb128 0x25
 4514 1350 660A0000 		.4byte	0xa66
 4515 1354 02040000 		.4byte	.LLST33
 4516 1358 25       		.uleb128 0x25
 4517 1359 720A0000 		.4byte	0xa72
 4518 135d 38040000 		.4byte	.LLST34
 4519 1361 2E       		.uleb128 0x2e
 4520 1362 46000000 		.4byte	.LBB135
 4521 1366 0A000000 		.4byte	.LBE135-.LBB135
 4522 136a 81130000 		.4byte	0x1381
 4523 136e 25       		.uleb128 0x25
 4524 136f 7F0A0000 		.4byte	0xa7f
 4525 1373 4B040000 		.4byte	.LLST35
 4526 1377 26       		.uleb128 0x26
 4527 1378 50000000 		.4byte	.LVL128
 4528 137c 621B0000 		.4byte	0x1b62
 4529 1380 00       		.byte	0
 4530 1381 27       		.uleb128 0x27
 4531 1382 32000000 		.4byte	.LVL125
 4532 1386 6E1B0000 		.4byte	0x1b6e
 4533 138a 28       		.uleb128 0x28
 4534 138b 01       		.uleb128 0x1
 4535 138c 50       		.byte	0x50
 4536 138d 02       		.uleb128 0x2
 4537 138e 74       		.byte	0x74
 4538 138f 00       		.sleb128 0
 4539 1390 28       		.uleb128 0x28
 4540 1391 01       		.uleb128 0x1
 4541 1392 51       		.byte	0x51
 4542 1393 02       		.uleb128 0x2
 4543 1394 7D       		.byte	0x7d
 4544 1395 00       		.sleb128 0
 4545 1396 28       		.uleb128 0x28
 4546 1397 01       		.uleb128 0x1
 4547 1398 52       		.byte	0x52
 4548 1399 02       		.uleb128 0x2
 4549 139a 75       		.byte	0x75
 4550 139b 00       		.sleb128 0
 4551 139c 00       		.byte	0
 4552 139d 00       		.byte	0
 4553 139e 00       		.byte	0
 4554 139f 30       		.uleb128 0x30
 4555 13a0 26000000 		.4byte	.LVL124
 4556 13a4 6E1B0000 		.4byte	0x1b6e
 4557 13a8 C5130000 		.4byte	0x13c5
 4558 13ac 28       		.uleb128 0x28
ARM GAS  C:\Users\saman\AppData\Local\Temp\ccOAgYwr.s 			page 104


 4559 13ad 01       		.uleb128 0x1
 4560 13ae 50       		.byte	0x50
 4561 13af 02       		.uleb128 0x2
 4562 13b0 7D       		.byte	0x7d
 4563 13b1 00       		.sleb128 0
 4564 13b2 28       		.uleb128 0x28
 4565 13b3 01       		.uleb128 0x1
 4566 13b4 51       		.byte	0x51
 4567 13b5 08       		.uleb128 0x8
 4568 13b6 91       		.byte	0x91
 4569 13b7 00       		.sleb128 0
 4570 13b8 75       		.byte	0x75
 4571 13b9 00       		.sleb128 0
 4572 13ba 22       		.byte	0x22
 4573 13bb 08       		.byte	0x8
 4574 13bc 98       		.byte	0x98
 4575 13bd 1C       		.byte	0x1c
 4576 13be 28       		.uleb128 0x28
 4577 13bf 01       		.uleb128 0x1
 4578 13c0 52       		.byte	0x52
 4579 13c1 02       		.uleb128 0x2
 4580 13c2 75       		.byte	0x75
 4581 13c3 00       		.sleb128 0
 4582 13c4 00       		.byte	0
 4583 13c5 27       		.uleb128 0x27
 4584 13c6 68000000 		.4byte	.LVL133
 4585 13ca 350F0000 		.4byte	0xf35
 4586 13ce 28       		.uleb128 0x28
 4587 13cf 01       		.uleb128 0x1
 4588 13d0 50       		.byte	0x50
 4589 13d1 01       		.uleb128 0x1
 4590 13d2 31       		.byte	0x31
 4591 13d3 28       		.uleb128 0x28
 4592 13d4 01       		.uleb128 0x1
 4593 13d5 51       		.byte	0x51
 4594 13d6 01       		.uleb128 0x1
 4595 13d7 30       		.byte	0x30
 4596 13d8 00       		.byte	0
 4597 13d9 00       		.byte	0
 4598 13da 1D       		.uleb128 0x1d
 4599 13db 78020000 		.4byte	.LASF196
 4600 13df 01       		.byte	0x1
 4601 13e0 4301     		.2byte	0x143
 4602 13e2 00000000 		.4byte	.LFB152
 4603 13e6 0C000000 		.4byte	.LFE152-.LFB152
 4604 13ea 01       		.uleb128 0x1
 4605 13eb 9C       		.byte	0x9c
 4606 13ec 05140000 		.4byte	0x1405
 4607 13f0 27       		.uleb128 0x27
 4608 13f1 0A000000 		.4byte	.LVL134
 4609 13f5 350F0000 		.4byte	0xf35
 4610 13f9 28       		.uleb128 0x28
 4611 13fa 01       		.uleb128 0x1
 4612 13fb 50       		.byte	0x50
 4613 13fc 01       		.uleb128 0x1
 4614 13fd 34       		.byte	0x34
 4615 13fe 28       		.uleb128 0x28
ARM GAS  C:\Users\saman\AppData\Local\Temp\ccOAgYwr.s 			page 105


 4616 13ff 01       		.uleb128 0x1
 4617 1400 51       		.byte	0x51
 4618 1401 01       		.uleb128 0x1
 4619 1402 30       		.byte	0x30
 4620 1403 00       		.byte	0
 4621 1404 00       		.byte	0
 4622 1405 1D       		.uleb128 0x1d
 4623 1406 C20E0000 		.4byte	.LASF197
 4624 140a 01       		.byte	0x1
 4625 140b 3A01     		.2byte	0x13a
 4626 140d 00000000 		.4byte	.LFB151
 4627 1411 70000000 		.4byte	.LFE151-.LFB151
 4628 1415 01       		.uleb128 0x1
 4629 1416 9C       		.byte	0x9c
 4630 1417 23150000 		.4byte	0x1523
 4631 141b 1E       		.uleb128 0x1e
 4632 141c 440B0000 		.4byte	.LASF186
 4633 1420 01       		.byte	0x1
 4634 1421 3D01     		.2byte	0x13d
 4635 1423 7E060000 		.4byte	0x67e
 4636 1427 03       		.uleb128 0x3
 4637 1428 91       		.byte	0x91
 4638 1429 AC7F     		.sleb128 -84
 4639 142b 1F       		.uleb128 0x1f
 4640 142c 030A0000 		.4byte	0xa03
 4641 1430 04000000 		.4byte	.LBB136
 4642 1434 10000000 		.4byte	.LBE136-.LBB136
 4643 1438 01       		.byte	0x1
 4644 1439 3D01     		.2byte	0x13d
 4645 143b 67140000 		.4byte	0x1467
 4646 143f 20       		.uleb128 0x20
 4647 1440 140A0000 		.4byte	0xa14
 4648 1444 27       		.uleb128 0x27
 4649 1445 14000000 		.4byte	.LVL136
 4650 1449 6E1B0000 		.4byte	0x1b6e
 4651 144d 28       		.uleb128 0x28
 4652 144e 01       		.uleb128 0x1
 4653 144f 50       		.byte	0x50
 4654 1450 08       		.uleb128 0x8
 4655 1451 91       		.byte	0x91
 4656 1452 00       		.sleb128 0
 4657 1453 75       		.byte	0x75
 4658 1454 00       		.sleb128 0
 4659 1455 22       		.byte	0x22
 4660 1456 08       		.byte	0x8
 4661 1457 98       		.byte	0x98
 4662 1458 1C       		.byte	0x1c
 4663 1459 28       		.uleb128 0x28
 4664 145a 01       		.uleb128 0x1
 4665 145b 51       		.byte	0x51
 4666 145c 02       		.uleb128 0x2
 4667 145d 74       		.byte	0x74
 4668 145e 00       		.sleb128 0
 4669 145f 28       		.uleb128 0x28
 4670 1460 01       		.uleb128 0x1
 4671 1461 52       		.byte	0x52
 4672 1462 02       		.uleb128 0x2
ARM GAS  C:\Users\saman\AppData\Local\Temp\ccOAgYwr.s 			page 106


 4673 1463 75       		.byte	0x75
 4674 1464 00       		.sleb128 0
 4675 1465 00       		.byte	0
 4676 1466 00       		.byte	0
 4677 1467 1F       		.uleb128 0x1f
 4678 1468 310A0000 		.4byte	0xa31
 4679 146c 26000000 		.4byte	.LBB138
 4680 1470 3A000000 		.4byte	.LBE138-.LBB138
 4681 1474 01       		.byte	0x1
 4682 1475 3F01     		.2byte	0x13f
 4683 1477 E8140000 		.4byte	0x14e8
 4684 147b 22       		.uleb128 0x22
 4685 147c 4E0A0000 		.4byte	0xa4e
 4686 1480 03       		.uleb128 0x3
 4687 1481 91       		.byte	0x91
 4688 1482 E87E     		.sleb128 -152
 4689 1484 20       		.uleb128 0x20
 4690 1485 420A0000 		.4byte	0xa42
 4691 1489 23       		.uleb128 0x23
 4692 148a 26000000 		.4byte	.LBB139
 4693 148e 3A000000 		.4byte	.LBE139-.LBB139
 4694 1492 24       		.uleb128 0x24
 4695 1493 5A0A0000 		.4byte	0xa5a
 4696 1497 00       		.byte	0
 4697 1498 25       		.uleb128 0x25
 4698 1499 660A0000 		.4byte	0xa66
 4699 149d 64040000 		.4byte	.LLST36
 4700 14a1 25       		.uleb128 0x25
 4701 14a2 720A0000 		.4byte	0xa72
 4702 14a6 9A040000 		.4byte	.LLST37
 4703 14aa 2E       		.uleb128 0x2e
 4704 14ab 46000000 		.4byte	.LBB140
 4705 14af 0A000000 		.4byte	.LBE140-.LBB140
 4706 14b3 CA140000 		.4byte	0x14ca
 4707 14b7 25       		.uleb128 0x25
 4708 14b8 7F0A0000 		.4byte	0xa7f
 4709 14bc AD040000 		.4byte	.LLST38
 4710 14c0 26       		.uleb128 0x26
 4711 14c1 50000000 		.4byte	.LVL142
 4712 14c5 621B0000 		.4byte	0x1b62
 4713 14c9 00       		.byte	0
 4714 14ca 27       		.uleb128 0x27
 4715 14cb 32000000 		.4byte	.LVL139
 4716 14cf 6E1B0000 		.4byte	0x1b6e
 4717 14d3 28       		.uleb128 0x28
 4718 14d4 01       		.uleb128 0x1
 4719 14d5 50       		.byte	0x50
 4720 14d6 02       		.uleb128 0x2
 4721 14d7 74       		.byte	0x74
 4722 14d8 00       		.sleb128 0
 4723 14d9 28       		.uleb128 0x28
 4724 14da 01       		.uleb128 0x1
 4725 14db 51       		.byte	0x51
 4726 14dc 02       		.uleb128 0x2
 4727 14dd 7D       		.byte	0x7d
 4728 14de 00       		.sleb128 0
 4729 14df 28       		.uleb128 0x28
ARM GAS  C:\Users\saman\AppData\Local\Temp\ccOAgYwr.s 			page 107


 4730 14e0 01       		.uleb128 0x1
 4731 14e1 52       		.byte	0x52
 4732 14e2 02       		.uleb128 0x2
 4733 14e3 75       		.byte	0x75
 4734 14e4 00       		.sleb128 0
 4735 14e5 00       		.byte	0
 4736 14e6 00       		.byte	0
 4737 14e7 00       		.byte	0
 4738 14e8 30       		.uleb128 0x30
 4739 14e9 26000000 		.4byte	.LVL138
 4740 14ed 6E1B0000 		.4byte	0x1b6e
 4741 14f1 0E150000 		.4byte	0x150e
 4742 14f5 28       		.uleb128 0x28
 4743 14f6 01       		.uleb128 0x1
 4744 14f7 50       		.byte	0x50
 4745 14f8 02       		.uleb128 0x2
 4746 14f9 7D       		.byte	0x7d
 4747 14fa 00       		.sleb128 0
 4748 14fb 28       		.uleb128 0x28
 4749 14fc 01       		.uleb128 0x1
 4750 14fd 51       		.byte	0x51
 4751 14fe 08       		.uleb128 0x8
 4752 14ff 91       		.byte	0x91
 4753 1500 00       		.sleb128 0
 4754 1501 75       		.byte	0x75
 4755 1502 00       		.sleb128 0
 4756 1503 22       		.byte	0x22
 4757 1504 08       		.byte	0x8
 4758 1505 98       		.byte	0x98
 4759 1506 1C       		.byte	0x1c
 4760 1507 28       		.uleb128 0x28
 4761 1508 01       		.uleb128 0x1
 4762 1509 52       		.byte	0x52
 4763 150a 02       		.uleb128 0x2
 4764 150b 75       		.byte	0x75
 4765 150c 00       		.sleb128 0
 4766 150d 00       		.byte	0
 4767 150e 27       		.uleb128 0x27
 4768 150f 68000000 		.4byte	.LVL147
 4769 1513 350F0000 		.4byte	0xf35
 4770 1517 28       		.uleb128 0x28
 4771 1518 01       		.uleb128 0x1
 4772 1519 50       		.byte	0x50
 4773 151a 01       		.uleb128 0x1
 4774 151b 33       		.byte	0x33
 4775 151c 28       		.uleb128 0x28
 4776 151d 01       		.uleb128 0x1
 4777 151e 51       		.byte	0x51
 4778 151f 01       		.uleb128 0x1
 4779 1520 30       		.byte	0x30
 4780 1521 00       		.byte	0
 4781 1522 00       		.byte	0
 4782 1523 1D       		.uleb128 0x1d
 4783 1524 AE010000 		.4byte	.LASF198
 4784 1528 01       		.byte	0x1
 4785 1529 3401     		.2byte	0x134
 4786 152b 00000000 		.4byte	.LFB150
ARM GAS  C:\Users\saman\AppData\Local\Temp\ccOAgYwr.s 			page 108


 4787 152f 0C000000 		.4byte	.LFE150-.LFB150
 4788 1533 01       		.uleb128 0x1
 4789 1534 9C       		.byte	0x9c
 4790 1535 4E150000 		.4byte	0x154e
 4791 1539 27       		.uleb128 0x27
 4792 153a 0A000000 		.4byte	.LVL148
 4793 153e 350F0000 		.4byte	0xf35
 4794 1542 28       		.uleb128 0x28
 4795 1543 01       		.uleb128 0x1
 4796 1544 50       		.byte	0x50
 4797 1545 01       		.uleb128 0x1
 4798 1546 32       		.byte	0x32
 4799 1547 28       		.uleb128 0x28
 4800 1548 01       		.uleb128 0x1
 4801 1549 51       		.byte	0x51
 4802 154a 01       		.uleb128 0x1
 4803 154b 30       		.byte	0x30
 4804 154c 00       		.byte	0
 4805 154d 00       		.byte	0
 4806 154e 1D       		.uleb128 0x1d
 4807 154f 8B040000 		.4byte	.LASF199
 4808 1553 01       		.byte	0x1
 4809 1554 2801     		.2byte	0x128
 4810 1556 00000000 		.4byte	.LFB149
 4811 155a 80000000 		.4byte	.LFE149-.LFB149
 4812 155e 01       		.uleb128 0x1
 4813 155f 9C       		.byte	0x9c
 4814 1560 84160000 		.4byte	0x1684
 4815 1564 1E       		.uleb128 0x1e
 4816 1565 440B0000 		.4byte	.LASF186
 4817 1569 01       		.byte	0x1
 4818 156a 2B01     		.2byte	0x12b
 4819 156c 7E060000 		.4byte	0x67e
 4820 1570 03       		.uleb128 0x3
 4821 1571 91       		.byte	0x91
 4822 1572 AC7F     		.sleb128 -84
 4823 1574 1F       		.uleb128 0x1f
 4824 1575 030A0000 		.4byte	0xa03
 4825 1579 04000000 		.4byte	.LBB141
 4826 157d 10000000 		.4byte	.LBE141-.LBB141
 4827 1581 01       		.byte	0x1
 4828 1582 2B01     		.2byte	0x12b
 4829 1584 B0150000 		.4byte	0x15b0
 4830 1588 20       		.uleb128 0x20
 4831 1589 140A0000 		.4byte	0xa14
 4832 158d 27       		.uleb128 0x27
 4833 158e 14000000 		.4byte	.LVL150
 4834 1592 6E1B0000 		.4byte	0x1b6e
 4835 1596 28       		.uleb128 0x28
 4836 1597 01       		.uleb128 0x1
 4837 1598 50       		.byte	0x50
 4838 1599 08       		.uleb128 0x8
 4839 159a 91       		.byte	0x91
 4840 159b 00       		.sleb128 0
 4841 159c 75       		.byte	0x75
 4842 159d 00       		.sleb128 0
 4843 159e 22       		.byte	0x22
ARM GAS  C:\Users\saman\AppData\Local\Temp\ccOAgYwr.s 			page 109


 4844 159f 08       		.byte	0x8
 4845 15a0 98       		.byte	0x98
 4846 15a1 1C       		.byte	0x1c
 4847 15a2 28       		.uleb128 0x28
 4848 15a3 01       		.uleb128 0x1
 4849 15a4 51       		.byte	0x51
 4850 15a5 02       		.uleb128 0x2
 4851 15a6 74       		.byte	0x74
 4852 15a7 00       		.sleb128 0
 4853 15a8 28       		.uleb128 0x28
 4854 15a9 01       		.uleb128 0x1
 4855 15aa 52       		.byte	0x52
 4856 15ab 02       		.uleb128 0x2
 4857 15ac 75       		.byte	0x75
 4858 15ad 00       		.sleb128 0
 4859 15ae 00       		.byte	0
 4860 15af 00       		.byte	0
 4861 15b0 1F       		.uleb128 0x1f
 4862 15b1 310A0000 		.4byte	0xa31
 4863 15b5 2C000000 		.4byte	.LBB143
 4864 15b9 3A000000 		.4byte	.LBE143-.LBB143
 4865 15bd 01       		.byte	0x1
 4866 15be 2E01     		.2byte	0x12e
 4867 15c0 31160000 		.4byte	0x1631
 4868 15c4 22       		.uleb128 0x22
 4869 15c5 4E0A0000 		.4byte	0xa4e
 4870 15c9 03       		.uleb128 0x3
 4871 15ca 91       		.byte	0x91
 4872 15cb E87E     		.sleb128 -152
 4873 15cd 20       		.uleb128 0x20
 4874 15ce 420A0000 		.4byte	0xa42
 4875 15d2 23       		.uleb128 0x23
 4876 15d3 2C000000 		.4byte	.LBB144
 4877 15d7 3A000000 		.4byte	.LBE144-.LBB144
 4878 15db 24       		.uleb128 0x24
 4879 15dc 5A0A0000 		.4byte	0xa5a
 4880 15e0 00       		.byte	0
 4881 15e1 25       		.uleb128 0x25
 4882 15e2 660A0000 		.4byte	0xa66
 4883 15e6 C6040000 		.4byte	.LLST39
 4884 15ea 25       		.uleb128 0x25
 4885 15eb 720A0000 		.4byte	0xa72
 4886 15ef FC040000 		.4byte	.LLST40
 4887 15f3 2E       		.uleb128 0x2e
 4888 15f4 4C000000 		.4byte	.LBB145
 4889 15f8 0A000000 		.4byte	.LBE145-.LBB145
 4890 15fc 13160000 		.4byte	0x1613
 4891 1600 25       		.uleb128 0x25
 4892 1601 7F0A0000 		.4byte	0xa7f
 4893 1605 0F050000 		.4byte	.LLST41
 4894 1609 26       		.uleb128 0x26
 4895 160a 56000000 		.4byte	.LVL156
 4896 160e 621B0000 		.4byte	0x1b62
 4897 1612 00       		.byte	0
 4898 1613 27       		.uleb128 0x27
 4899 1614 38000000 		.4byte	.LVL153
 4900 1618 6E1B0000 		.4byte	0x1b6e
ARM GAS  C:\Users\saman\AppData\Local\Temp\ccOAgYwr.s 			page 110


 4901 161c 28       		.uleb128 0x28
 4902 161d 01       		.uleb128 0x1
 4903 161e 50       		.byte	0x50
 4904 161f 02       		.uleb128 0x2
 4905 1620 74       		.byte	0x74
 4906 1621 00       		.sleb128 0
 4907 1622 28       		.uleb128 0x28
 4908 1623 01       		.uleb128 0x1
 4909 1624 51       		.byte	0x51
 4910 1625 02       		.uleb128 0x2
 4911 1626 7D       		.byte	0x7d
 4912 1627 00       		.sleb128 0
 4913 1628 28       		.uleb128 0x28
 4914 1629 01       		.uleb128 0x1
 4915 162a 52       		.byte	0x52
 4916 162b 02       		.uleb128 0x2
 4917 162c 75       		.byte	0x75
 4918 162d 00       		.sleb128 0
 4919 162e 00       		.byte	0
 4920 162f 00       		.byte	0
 4921 1630 00       		.byte	0
 4922 1631 30       		.uleb128 0x30
 4923 1632 2C000000 		.4byte	.LVL152
 4924 1636 6E1B0000 		.4byte	0x1b6e
 4925 163a 57160000 		.4byte	0x1657
 4926 163e 28       		.uleb128 0x28
 4927 163f 01       		.uleb128 0x1
 4928 1640 50       		.byte	0x50
 4929 1641 02       		.uleb128 0x2
 4930 1642 7D       		.byte	0x7d
 4931 1643 00       		.sleb128 0
 4932 1644 28       		.uleb128 0x28
 4933 1645 01       		.uleb128 0x1
 4934 1646 51       		.byte	0x51
 4935 1647 08       		.uleb128 0x8
 4936 1648 91       		.byte	0x91
 4937 1649 00       		.sleb128 0
 4938 164a 75       		.byte	0x75
 4939 164b 00       		.sleb128 0
 4940 164c 22       		.byte	0x22
 4941 164d 08       		.byte	0x8
 4942 164e 98       		.byte	0x98
 4943 164f 1C       		.byte	0x1c
 4944 1650 28       		.uleb128 0x28
 4945 1651 01       		.uleb128 0x1
 4946 1652 52       		.byte	0x52
 4947 1653 02       		.uleb128 0x2
 4948 1654 75       		.byte	0x75
 4949 1655 00       		.sleb128 0
 4950 1656 00       		.byte	0
 4951 1657 30       		.uleb128 0x30
 4952 1658 6E000000 		.4byte	.LVL161
 4953 165c 350F0000 		.4byte	0xf35
 4954 1660 6F160000 		.4byte	0x166f
 4955 1664 28       		.uleb128 0x28
 4956 1665 01       		.uleb128 0x1
 4957 1666 50       		.byte	0x50
ARM GAS  C:\Users\saman\AppData\Local\Temp\ccOAgYwr.s 			page 111


 4958 1667 01       		.uleb128 0x1
 4959 1668 31       		.byte	0x31
 4960 1669 28       		.uleb128 0x28
 4961 166a 01       		.uleb128 0x1
 4962 166b 51       		.byte	0x51
 4963 166c 01       		.uleb128 0x1
 4964 166d 30       		.byte	0x30
 4965 166e 00       		.byte	0
 4966 166f 27       		.uleb128 0x27
 4967 1670 76000000 		.4byte	.LVL162
 4968 1674 350F0000 		.4byte	0xf35
 4969 1678 28       		.uleb128 0x28
 4970 1679 01       		.uleb128 0x1
 4971 167a 50       		.byte	0x50
 4972 167b 01       		.uleb128 0x1
 4973 167c 31       		.byte	0x31
 4974 167d 28       		.uleb128 0x28
 4975 167e 01       		.uleb128 0x1
 4976 167f 51       		.byte	0x51
 4977 1680 01       		.uleb128 0x1
 4978 1681 31       		.byte	0x31
 4979 1682 00       		.byte	0
 4980 1683 00       		.byte	0
 4981 1684 1D       		.uleb128 0x1d
 4982 1685 23070000 		.4byte	.LASF200
 4983 1689 01       		.byte	0x1
 4984 168a 5E01     		.2byte	0x15e
 4985 168c 00000000 		.4byte	.LFB156
 4986 1690 0C000000 		.4byte	.LFE156-.LFB156
 4987 1694 01       		.uleb128 0x1
 4988 1695 9C       		.byte	0x9c
 4989 1696 AF160000 		.4byte	0x16af
 4990 169a 27       		.uleb128 0x27
 4991 169b 0A000000 		.4byte	.LVL163
 4992 169f 350F0000 		.4byte	0xf35
 4993 16a3 28       		.uleb128 0x28
 4994 16a4 01       		.uleb128 0x1
 4995 16a5 50       		.byte	0x50
 4996 16a6 01       		.uleb128 0x1
 4997 16a7 34       		.byte	0x34
 4998 16a8 28       		.uleb128 0x28
 4999 16a9 01       		.uleb128 0x1
 5000 16aa 51       		.byte	0x51
 5001 16ab 01       		.uleb128 0x1
 5002 16ac 31       		.byte	0x31
 5003 16ad 00       		.byte	0
 5004 16ae 00       		.byte	0
 5005 16af 1D       		.uleb128 0x1d
 5006 16b0 180C0000 		.4byte	.LASF201
 5007 16b4 01       		.byte	0x1
 5008 16b5 5501     		.2byte	0x155
 5009 16b7 00000000 		.4byte	.LFB155
 5010 16bb 70000000 		.4byte	.LFE155-.LFB155
 5011 16bf 01       		.uleb128 0x1
 5012 16c0 9C       		.byte	0x9c
 5013 16c1 CD170000 		.4byte	0x17cd
 5014 16c5 1E       		.uleb128 0x1e
ARM GAS  C:\Users\saman\AppData\Local\Temp\ccOAgYwr.s 			page 112


 5015 16c6 440B0000 		.4byte	.LASF186
 5016 16ca 01       		.byte	0x1
 5017 16cb 5801     		.2byte	0x158
 5018 16cd 7E060000 		.4byte	0x67e
 5019 16d1 03       		.uleb128 0x3
 5020 16d2 91       		.byte	0x91
 5021 16d3 AC7F     		.sleb128 -84
 5022 16d5 1F       		.uleb128 0x1f
 5023 16d6 030A0000 		.4byte	0xa03
 5024 16da 04000000 		.4byte	.LBB146
 5025 16de 10000000 		.4byte	.LBE146-.LBB146
 5026 16e2 01       		.byte	0x1
 5027 16e3 5801     		.2byte	0x158
 5028 16e5 11170000 		.4byte	0x1711
 5029 16e9 20       		.uleb128 0x20
 5030 16ea 140A0000 		.4byte	0xa14
 5031 16ee 27       		.uleb128 0x27
 5032 16ef 14000000 		.4byte	.LVL165
 5033 16f3 6E1B0000 		.4byte	0x1b6e
 5034 16f7 28       		.uleb128 0x28
 5035 16f8 01       		.uleb128 0x1
 5036 16f9 50       		.byte	0x50
 5037 16fa 08       		.uleb128 0x8
 5038 16fb 91       		.byte	0x91
 5039 16fc 00       		.sleb128 0
 5040 16fd 75       		.byte	0x75
 5041 16fe 00       		.sleb128 0
 5042 16ff 22       		.byte	0x22
 5043 1700 08       		.byte	0x8
 5044 1701 98       		.byte	0x98
 5045 1702 1C       		.byte	0x1c
 5046 1703 28       		.uleb128 0x28
 5047 1704 01       		.uleb128 0x1
 5048 1705 51       		.byte	0x51
 5049 1706 02       		.uleb128 0x2
 5050 1707 74       		.byte	0x74
 5051 1708 00       		.sleb128 0
 5052 1709 28       		.uleb128 0x28
 5053 170a 01       		.uleb128 0x1
 5054 170b 52       		.byte	0x52
 5055 170c 02       		.uleb128 0x2
 5056 170d 75       		.byte	0x75
 5057 170e 00       		.sleb128 0
 5058 170f 00       		.byte	0
 5059 1710 00       		.byte	0
 5060 1711 1F       		.uleb128 0x1f
 5061 1712 310A0000 		.4byte	0xa31
 5062 1716 26000000 		.4byte	.LBB148
 5063 171a 3A000000 		.4byte	.LBE148-.LBB148
 5064 171e 01       		.byte	0x1
 5065 171f 5A01     		.2byte	0x15a
 5066 1721 92170000 		.4byte	0x1792
 5067 1725 22       		.uleb128 0x22
 5068 1726 4E0A0000 		.4byte	0xa4e
 5069 172a 03       		.uleb128 0x3
 5070 172b 91       		.byte	0x91
 5071 172c E87E     		.sleb128 -152
ARM GAS  C:\Users\saman\AppData\Local\Temp\ccOAgYwr.s 			page 113


 5072 172e 20       		.uleb128 0x20
 5073 172f 420A0000 		.4byte	0xa42
 5074 1733 23       		.uleb128 0x23
 5075 1734 26000000 		.4byte	.LBB149
 5076 1738 3A000000 		.4byte	.LBE149-.LBB149
 5077 173c 24       		.uleb128 0x24
 5078 173d 5A0A0000 		.4byte	0xa5a
 5079 1741 00       		.byte	0
 5080 1742 25       		.uleb128 0x25
 5081 1743 660A0000 		.4byte	0xa66
 5082 1747 28050000 		.4byte	.LLST42
 5083 174b 25       		.uleb128 0x25
 5084 174c 720A0000 		.4byte	0xa72
 5085 1750 5E050000 		.4byte	.LLST43
 5086 1754 2E       		.uleb128 0x2e
 5087 1755 46000000 		.4byte	.LBB150
 5088 1759 0A000000 		.4byte	.LBE150-.LBB150
 5089 175d 74170000 		.4byte	0x1774
 5090 1761 25       		.uleb128 0x25
 5091 1762 7F0A0000 		.4byte	0xa7f
 5092 1766 71050000 		.4byte	.LLST44
 5093 176a 26       		.uleb128 0x26
 5094 176b 50000000 		.4byte	.LVL171
 5095 176f 621B0000 		.4byte	0x1b62
 5096 1773 00       		.byte	0
 5097 1774 27       		.uleb128 0x27
 5098 1775 32000000 		.4byte	.LVL168
 5099 1779 6E1B0000 		.4byte	0x1b6e
 5100 177d 28       		.uleb128 0x28
 5101 177e 01       		.uleb128 0x1
 5102 177f 50       		.byte	0x50
 5103 1780 02       		.uleb128 0x2
 5104 1781 74       		.byte	0x74
 5105 1782 00       		.sleb128 0
 5106 1783 28       		.uleb128 0x28
 5107 1784 01       		.uleb128 0x1
 5108 1785 51       		.byte	0x51
 5109 1786 02       		.uleb128 0x2
 5110 1787 7D       		.byte	0x7d
 5111 1788 00       		.sleb128 0
 5112 1789 28       		.uleb128 0x28
 5113 178a 01       		.uleb128 0x1
 5114 178b 52       		.byte	0x52
 5115 178c 02       		.uleb128 0x2
 5116 178d 75       		.byte	0x75
 5117 178e 00       		.sleb128 0
 5118 178f 00       		.byte	0
 5119 1790 00       		.byte	0
 5120 1791 00       		.byte	0
 5121 1792 30       		.uleb128 0x30
 5122 1793 26000000 		.4byte	.LVL167
 5123 1797 6E1B0000 		.4byte	0x1b6e
 5124 179b B8170000 		.4byte	0x17b8
 5125 179f 28       		.uleb128 0x28
 5126 17a0 01       		.uleb128 0x1
 5127 17a1 50       		.byte	0x50
 5128 17a2 02       		.uleb128 0x2
ARM GAS  C:\Users\saman\AppData\Local\Temp\ccOAgYwr.s 			page 114


 5129 17a3 7D       		.byte	0x7d
 5130 17a4 00       		.sleb128 0
 5131 17a5 28       		.uleb128 0x28
 5132 17a6 01       		.uleb128 0x1
 5133 17a7 51       		.byte	0x51
 5134 17a8 08       		.uleb128 0x8
 5135 17a9 91       		.byte	0x91
 5136 17aa 00       		.sleb128 0
 5137 17ab 75       		.byte	0x75
 5138 17ac 00       		.sleb128 0
 5139 17ad 22       		.byte	0x22
 5140 17ae 08       		.byte	0x8
 5141 17af 98       		.byte	0x98
 5142 17b0 1C       		.byte	0x1c
 5143 17b1 28       		.uleb128 0x28
 5144 17b2 01       		.uleb128 0x1
 5145 17b3 52       		.byte	0x52
 5146 17b4 02       		.uleb128 0x2
 5147 17b5 75       		.byte	0x75
 5148 17b6 00       		.sleb128 0
 5149 17b7 00       		.byte	0
 5150 17b8 27       		.uleb128 0x27
 5151 17b9 68000000 		.4byte	.LVL176
 5152 17bd 350F0000 		.4byte	0xf35
 5153 17c1 28       		.uleb128 0x28
 5154 17c2 01       		.uleb128 0x1
 5155 17c3 50       		.byte	0x50
 5156 17c4 01       		.uleb128 0x1
 5157 17c5 33       		.byte	0x33
 5158 17c6 28       		.uleb128 0x28
 5159 17c7 01       		.uleb128 0x1
 5160 17c8 51       		.byte	0x51
 5161 17c9 01       		.uleb128 0x1
 5162 17ca 31       		.byte	0x31
 5163 17cb 00       		.byte	0
 5164 17cc 00       		.byte	0
 5165 17cd 1D       		.uleb128 0x1d
 5166 17ce C0070000 		.4byte	.LASF202
 5167 17d2 01       		.byte	0x1
 5168 17d3 4F01     		.2byte	0x14f
 5169 17d5 00000000 		.4byte	.LFB154
 5170 17d9 0C000000 		.4byte	.LFE154-.LFB154
 5171 17dd 01       		.uleb128 0x1
 5172 17de 9C       		.byte	0x9c
 5173 17df F8170000 		.4byte	0x17f8
 5174 17e3 27       		.uleb128 0x27
 5175 17e4 0A000000 		.4byte	.LVL177
 5176 17e8 350F0000 		.4byte	0xf35
 5177 17ec 28       		.uleb128 0x28
 5178 17ed 01       		.uleb128 0x1
 5179 17ee 50       		.byte	0x50
 5180 17ef 01       		.uleb128 0x1
 5181 17f0 32       		.byte	0x32
 5182 17f1 28       		.uleb128 0x28
 5183 17f2 01       		.uleb128 0x1
 5184 17f3 51       		.byte	0x51
 5185 17f4 01       		.uleb128 0x1
ARM GAS  C:\Users\saman\AppData\Local\Temp\ccOAgYwr.s 			page 115


 5186 17f5 31       		.byte	0x31
 5187 17f6 00       		.byte	0
 5188 17f7 00       		.byte	0
 5189 17f8 1D       		.uleb128 0x1d
 5190 17f9 9F0B0000 		.4byte	.LASF203
 5191 17fd 01       		.byte	0x1
 5192 17fe 4901     		.2byte	0x149
 5193 1800 00000000 		.4byte	.LFB153
 5194 1804 0C000000 		.4byte	.LFE153-.LFB153
 5195 1808 01       		.uleb128 0x1
 5196 1809 9C       		.byte	0x9c
 5197 180a 23180000 		.4byte	0x1823
 5198 180e 27       		.uleb128 0x27
 5199 180f 0A000000 		.4byte	.LVL178
 5200 1813 350F0000 		.4byte	0xf35
 5201 1817 28       		.uleb128 0x28
 5202 1818 01       		.uleb128 0x1
 5203 1819 50       		.byte	0x50
 5204 181a 01       		.uleb128 0x1
 5205 181b 31       		.byte	0x31
 5206 181c 28       		.uleb128 0x28
 5207 181d 01       		.uleb128 0x1
 5208 181e 51       		.byte	0x51
 5209 181f 01       		.uleb128 0x1
 5210 1820 31       		.byte	0x31
 5211 1821 00       		.byte	0
 5212 1822 00       		.byte	0
 5213 1823 32       		.uleb128 0x32
 5214 1824 200A0000 		.4byte	.LASF237
 5215 1828 01       		.byte	0x1
 5216 1829 9A       		.byte	0x9a
 5217 182a 00000000 		.4byte	.LFB144
 5218 182e C8000000 		.4byte	.LFE144-.LFB144
 5219 1832 01       		.uleb128 0x1
 5220 1833 9C       		.byte	0x9c
 5221 1834 E4180000 		.4byte	0x18e4
 5222 1838 2C       		.uleb128 0x2c
 5223 1839 6B040000 		.4byte	.LASF185
 5224 183d 01       		.byte	0x1
 5225 183e 9D       		.byte	0x9d
 5226 183f 16080000 		.4byte	0x816
 5227 1843 02       		.uleb128 0x2
 5228 1844 91       		.byte	0x91
 5229 1845 50       		.sleb128 -48
 5230 1846 2D       		.uleb128 0x2d
 5231 1847 D5090000 		.4byte	0x9d5
 5232 184b 10000000 		.4byte	.LBB151
 5233 184f 12000000 		.4byte	.LBE151-.LBB151
 5234 1853 01       		.byte	0x1
 5235 1854 A0       		.byte	0xa0
 5236 1855 5F180000 		.4byte	0x185f
 5237 1859 20       		.uleb128 0x20
 5238 185a E6090000 		.4byte	0x9e6
 5239 185e 00       		.byte	0
 5240 185f 2D       		.uleb128 0x2d
 5241 1860 6E090000 		.4byte	0x96e
 5242 1864 76000000 		.4byte	.LBB153
ARM GAS  C:\Users\saman\AppData\Local\Temp\ccOAgYwr.s 			page 116


 5243 1868 44000000 		.4byte	.LBE153-.LBB153
 5244 186c 01       		.byte	0x1
 5245 186d B5       		.byte	0xb5
 5246 186e BF180000 		.4byte	0x18bf
 5247 1872 22       		.uleb128 0x22
 5248 1873 8B090000 		.4byte	0x98b
 5249 1877 03       		.uleb128 0x3
 5250 1878 91       		.byte	0x91
 5251 1879 B87F     		.sleb128 -72
 5252 187b 20       		.uleb128 0x20
 5253 187c 7F090000 		.4byte	0x97f
 5254 1880 23       		.uleb128 0x23
 5255 1881 76000000 		.4byte	.LBB154
 5256 1885 44000000 		.4byte	.LBE154-.LBB154
 5257 1889 24       		.uleb128 0x24
 5258 188a 97090000 		.4byte	0x997
 5259 188e 00       		.byte	0
 5260 188f 25       		.uleb128 0x25
 5261 1890 A3090000 		.4byte	0x9a3
 5262 1894 8A050000 		.4byte	.LLST45
 5263 1898 25       		.uleb128 0x25
 5264 1899 AF090000 		.4byte	0x9af
 5265 189d C0050000 		.4byte	.LLST46
 5266 18a1 23       		.uleb128 0x23
 5267 18a2 A0000000 		.4byte	.LBB155
 5268 18a6 0A000000 		.4byte	.LBE155-.LBB155
 5269 18aa 25       		.uleb128 0x25
 5270 18ab BC090000 		.4byte	0x9bc
 5271 18af D3050000 		.4byte	.LLST47
 5272 18b3 26       		.uleb128 0x26
 5273 18b4 AA000000 		.4byte	.LVL186
 5274 18b8 621B0000 		.4byte	0x1b62
 5275 18bc 00       		.byte	0
 5276 18bd 00       		.byte	0
 5277 18be 00       		.byte	0
 5278 18bf 30       		.uleb128 0x30
 5279 18c0 60000000 		.4byte	.LVL181
 5280 18c4 821B0000 		.4byte	0x1b82
 5281 18c8 D3180000 		.4byte	0x18d3
 5282 18cc 28       		.uleb128 0x28
 5283 18cd 01       		.uleb128 0x1
 5284 18ce 50       		.byte	0x50
 5285 18cf 02       		.uleb128 0x2
 5286 18d0 75       		.byte	0x75
 5287 18d1 00       		.sleb128 0
 5288 18d2 00       		.byte	0
 5289 18d3 27       		.uleb128 0x27
 5290 18d4 66000000 		.4byte	.LVL182
 5291 18d8 821B0000 		.4byte	0x1b82
 5292 18dc 28       		.uleb128 0x28
 5293 18dd 01       		.uleb128 0x1
 5294 18de 50       		.byte	0x50
 5295 18df 02       		.uleb128 0x2
 5296 18e0 75       		.byte	0x75
 5297 18e1 00       		.sleb128 0
 5298 18e2 00       		.byte	0
 5299 18e3 00       		.byte	0
ARM GAS  C:\Users\saman\AppData\Local\Temp\ccOAgYwr.s 			page 117


 5300 18e4 33       		.uleb128 0x33
 5301 18e5 FA000000 		.4byte	.LASF238
 5302 18e9 01       		.byte	0x1
 5303 18ea B7       		.byte	0xb7
 5304 18eb 00000000 		.4byte	.LFB145
 5305 18ef 10000000 		.4byte	.LFE145-.LFB145
 5306 18f3 01       		.uleb128 0x1
 5307 18f4 9C       		.byte	0x9c
 5308 18f5 36190000 		.4byte	0x1936
 5309 18f9 2B       		.uleb128 0x2b
 5310 18fa CB050000 		.4byte	.LASF99
 5311 18fe 01       		.byte	0x1
 5312 18ff B7       		.byte	0xb7
 5313 1900 B0020000 		.4byte	0x2b0
 5314 1904 EC050000 		.4byte	.LLST48
 5315 1908 34       		.uleb128 0x34
 5316 1909 440B0000 		.4byte	.LASF186
 5317 190d 01       		.byte	0x1
 5318 190e B9       		.byte	0xb9
 5319 190f 7E060000 		.4byte	0x67e
 5320 1913 2F       		.uleb128 0x2f
 5321 1914 FD050000 		.4byte	.LASF204
 5322 1918 01       		.byte	0x1
 5323 1919 BB       		.byte	0xbb
 5324 191a B0020000 		.4byte	0x2b0
 5325 191e 0D060000 		.4byte	.LLST49
 5326 1922 27       		.uleb128 0x27
 5327 1923 0A000000 		.4byte	.LVL195
 5328 1927 771B0000 		.4byte	0x1b77
 5329 192b 28       		.uleb128 0x28
 5330 192c 01       		.uleb128 0x1
 5331 192d 50       		.byte	0x50
 5332 192e 05       		.uleb128 0x5
 5333 192f 03       		.byte	0x3
 5334 1930 10000000 		.4byte	.LANCHOR0+16
 5335 1934 00       		.byte	0
 5336 1935 00       		.byte	0
 5337 1936 10       		.uleb128 0x10
 5338 1937 46190000 		.4byte	0x1946
 5339 193b 46190000 		.4byte	0x1946
 5340 193f 35       		.uleb128 0x35
 5341 1940 7D010000 		.4byte	0x17d
 5342 1944 02       		.byte	0x2
 5343 1945 00       		.byte	0
 5344 1946 12       		.uleb128 0x12
 5345 1947 38040000 		.4byte	0x438
 5346 194b 2C       		.uleb128 0x2c
 5347 194c 51010000 		.4byte	.LASF205
 5348 1950 01       		.byte	0x1
 5349 1951 4A       		.byte	0x4a
 5350 1952 5C190000 		.4byte	0x195c
 5351 1956 05       		.uleb128 0x5
 5352 1957 03       		.byte	0x3
 5353 1958 A8000000 		.4byte	CLOCK_Container_Transitions
 5354 195c 12       		.uleb128 0x12
 5355 195d 36190000 		.4byte	0x1936
 5356 1961 36       		.uleb128 0x36
ARM GAS  C:\Users\saman\AppData\Local\Temp\ccOAgYwr.s 			page 118


 5357 1962 FA080000 		.4byte	.LASF206
 5358 1966 01       		.byte	0x1
 5359 1967 51       		.byte	0x51
 5360 1968 33040000 		.4byte	0x433
 5361 196c 03       		.byte	0x3
 5362 196d 10       		.uleb128 0x10
 5363 196e 7D190000 		.4byte	0x197d
 5364 1972 7D190000 		.4byte	0x197d
 5365 1976 35       		.uleb128 0x35
 5366 1977 7D010000 		.4byte	0x17d
 5367 197b 00       		.byte	0
 5368 197c 00       		.byte	0
 5369 197d 12       		.uleb128 0x12
 5370 197e 7B040000 		.4byte	0x47b
 5371 1982 2C       		.uleb128 0x2c
 5372 1983 94080000 		.4byte	.LASF207
 5373 1987 01       		.byte	0x1
 5374 1988 54       		.byte	0x54
 5375 1989 93190000 		.4byte	0x1993
 5376 198d 05       		.uleb128 0x5
 5377 198e 03       		.byte	0x3
 5378 198f 9C000000 		.4byte	CLOCK_Container_Actions
 5379 1993 12       		.uleb128 0x12
 5380 1994 6D190000 		.4byte	0x196d
 5381 1998 36       		.uleb128 0x36
 5382 1999 040F0000 		.4byte	.LASF208
 5383 199d 01       		.byte	0x1
 5384 199e 59       		.byte	0x59
 5385 199f 33040000 		.4byte	0x433
 5386 19a3 01       		.byte	0x1
 5387 19a4 2C       		.uleb128 0x2c
 5388 19a5 09060000 		.4byte	.LASF209
 5389 19a9 01       		.byte	0x1
 5390 19aa 76       		.byte	0x76
 5391 19ab B5190000 		.4byte	0x19b5
 5392 19af 05       		.uleb128 0x5
 5393 19b0 03       		.byte	0x3
 5394 19b1 24000000 		.4byte	CLOCK_Widget_Transitions
 5395 19b5 12       		.uleb128 0x12
 5396 19b6 36190000 		.4byte	0x1936
 5397 19ba 36       		.uleb128 0x36
 5398 19bb 900E0000 		.4byte	.LASF210
 5399 19bf 01       		.byte	0x1
 5400 19c0 7D       		.byte	0x7d
 5401 19c1 33040000 		.4byte	0x433
 5402 19c5 03       		.byte	0x3
 5403 19c6 10       		.uleb128 0x10
 5404 19c7 7D190000 		.4byte	0x197d
 5405 19cb D6190000 		.4byte	0x19d6
 5406 19cf 35       		.uleb128 0x35
 5407 19d0 7D010000 		.4byte	0x17d
 5408 19d4 02       		.byte	0x2
 5409 19d5 00       		.byte	0
 5410 19d6 2C       		.uleb128 0x2c
 5411 19d7 B50D0000 		.4byte	.LASF211
 5412 19db 01       		.byte	0x1
 5413 19dc 80       		.byte	0x80
ARM GAS  C:\Users\saman\AppData\Local\Temp\ccOAgYwr.s 			page 119


 5414 19dd E7190000 		.4byte	0x19e7
 5415 19e1 05       		.uleb128 0x5
 5416 19e2 03       		.byte	0x3
 5417 19e3 00000000 		.4byte	CLOCK_Widget_Actions
 5418 19e7 12       		.uleb128 0x12
 5419 19e8 C6190000 		.4byte	0x19c6
 5420 19ec 36       		.uleb128 0x36
 5421 19ed 45050000 		.4byte	.LASF212
 5422 19f1 01       		.byte	0x1
 5423 19f2 87       		.byte	0x87
 5424 19f3 33040000 		.4byte	0x433
 5425 19f7 03       		.byte	0x3
 5426 19f8 37       		.uleb128 0x37
 5427 19f9 DC010000 		.4byte	.LASF213
 5428 19fd 13       		.byte	0x13
 5429 19fe 40       		.byte	0x40
 5430 19ff BB050000 		.4byte	0x5bb
 5431 1a03 37       		.uleb128 0x37
 5432 1a04 70070000 		.4byte	.LASF214
 5433 1a08 13       		.byte	0x13
 5434 1a09 47       		.byte	0x47
 5435 1a0a C6050000 		.4byte	0x5c6
 5436 1a0e 37       		.uleb128 0x37
 5437 1a0f FE070000 		.4byte	.LASF215
 5438 1a13 13       		.byte	0x13
 5439 1a14 4A       		.byte	0x4a
 5440 1a15 BB050000 		.4byte	0x5bb
 5441 1a19 37       		.uleb128 0x37
 5442 1a1a 52040000 		.4byte	.LASF216
 5443 1a1e 14       		.byte	0x14
 5444 1a1f 48       		.byte	0x48
 5445 1a20 D1050000 		.4byte	0x5d1
 5446 1a24 37       		.uleb128 0x37
 5447 1a25 960D0000 		.4byte	.LASF217
 5448 1a29 15       		.byte	0x15
 5449 1a2a 44       		.byte	0x44
 5450 1a2b BB050000 		.4byte	0x5bb
 5451 1a2f 38       		.uleb128 0x38
 5452 1a30 05020000 		.4byte	.LASF218
 5453 1a34 16       		.byte	0x16
 5454 1a35 1207     		.2byte	0x712
 5455 1a37 3B1A0000 		.4byte	0x1a3b
 5456 1a3b 39       		.uleb128 0x39
 5457 1a3c 84010000 		.4byte	0x184
 5458 1a40 37       		.uleb128 0x37
 5459 1a41 A8090000 		.4byte	.LASF219
 5460 1a45 17       		.byte	0x17
 5461 1a46 29       		.byte	0x29
 5462 1a47 EA070000 		.4byte	0x7ea
 5463 1a4b 37       		.uleb128 0x37
 5464 1a4c DE060000 		.4byte	.LASF220
 5465 1a50 17       		.byte	0x17
 5466 1a51 38       		.byte	0x38
 5467 1a52 63090000 		.4byte	0x963
 5468 1a56 10       		.uleb128 0x10
 5469 1a57 97000000 		.4byte	0x97
 5470 1a5b 661A0000 		.4byte	0x1a66
ARM GAS  C:\Users\saman\AppData\Local\Temp\ccOAgYwr.s 			page 120


 5471 1a5f 35       		.uleb128 0x35
 5472 1a60 7D010000 		.4byte	0x17d
 5473 1a64 63       		.byte	0x63
 5474 1a65 00       		.byte	0
 5475 1a66 3A       		.uleb128 0x3a
 5476 1a67 F9030000 		.4byte	.LASF221
 5477 1a6b 01       		.byte	0x1
 5478 1a6c 11       		.byte	0x11
 5479 1a6d 561A0000 		.4byte	0x1a56
 5480 1a71 05       		.uleb128 0x5
 5481 1a72 03       		.byte	0x3
 5482 1a73 00000000 		.4byte	buffer
 5483 1a77 10       		.uleb128 0x10
 5484 1a78 871A0000 		.4byte	0x1a87
 5485 1a7c 871A0000 		.4byte	0x1a87
 5486 1a80 35       		.uleb128 0x35
 5487 1a81 7D010000 		.4byte	0x17d
 5488 1a85 01       		.byte	0x1
 5489 1a86 00       		.byte	0
 5490 1a87 12       		.uleb128 0x12
 5491 1a88 DA030000 		.4byte	0x3da
 5492 1a8c 3A       		.uleb128 0x3a
 5493 1a8d A2000000 		.4byte	.LASF222
 5494 1a91 01       		.byte	0x1
 5495 1a92 2F       		.byte	0x2f
 5496 1a93 9D1A0000 		.4byte	0x1a9d
 5497 1a97 05       		.uleb128 0x5
 5498 1a98 03       		.byte	0x3
 5499 1a99 00000000 		.4byte	STATE_CLOCK_C_ISDISPLAYING_Transitions
 5500 1a9d 12       		.uleb128 0x12
 5501 1a9e 771A0000 		.4byte	0x1a77
 5502 1aa2 10       		.uleb128 0x10
 5503 1aa3 871A0000 		.4byte	0x1a87
 5504 1aa7 B21A0000 		.4byte	0x1ab2
 5505 1aab 35       		.uleb128 0x35
 5506 1aac 7D010000 		.4byte	0x17d
 5507 1ab0 03       		.byte	0x3
 5508 1ab1 00       		.byte	0
 5509 1ab2 3A       		.uleb128 0x3a
 5510 1ab3 69000000 		.4byte	.LASF223
 5511 1ab7 01       		.byte	0x1
 5512 1ab8 37       		.byte	0x37
 5513 1ab9 C31A0000 		.4byte	0x1ac3
 5514 1abd 05       		.uleb128 0x5
 5515 1abe 03       		.byte	0x3
 5516 1abf 00000000 		.4byte	STATE_CLOCK_C_ISEDITINGHOURS_Transitions
 5517 1ac3 12       		.uleb128 0x12
 5518 1ac4 A21A0000 		.4byte	0x1aa2
 5519 1ac8 3A       		.uleb128 0x3a
 5520 1ac9 55030000 		.4byte	.LASF224
 5521 1acd 01       		.byte	0x1
 5522 1ace 41       		.byte	0x41
 5523 1acf D91A0000 		.4byte	0x1ad9
 5524 1ad3 05       		.uleb128 0x5
 5525 1ad4 03       		.byte	0x3
 5526 1ad5 00000000 		.4byte	STATE_CLOCK_C_ISEDITINGMINUTES_Transitions
 5527 1ad9 12       		.uleb128 0x12
ARM GAS  C:\Users\saman\AppData\Local\Temp\ccOAgYwr.s 			page 121


 5528 1ada A21A0000 		.4byte	0x1aa2
 5529 1ade 10       		.uleb128 0x10
 5530 1adf 871A0000 		.4byte	0x1a87
 5531 1ae3 EE1A0000 		.4byte	0x1aee
 5532 1ae7 35       		.uleb128 0x35
 5533 1ae8 7D010000 		.4byte	0x17d
 5534 1aec 00       		.byte	0
 5535 1aed 00       		.byte	0
 5536 1aee 3A       		.uleb128 0x3a
 5537 1aef D3020000 		.4byte	.LASF225
 5538 1af3 01       		.byte	0x1
 5539 1af4 5E       		.byte	0x5e
 5540 1af5 FF1A0000 		.4byte	0x1aff
 5541 1af9 05       		.uleb128 0x5
 5542 1afa 03       		.byte	0x3
 5543 1afb 00000000 		.4byte	STATE_CLOCK_W_ISDISPLAYING_Transitions
 5544 1aff 12       		.uleb128 0x12
 5545 1b00 DE1A0000 		.4byte	0x1ade
 5546 1b04 10       		.uleb128 0x10
 5547 1b05 871A0000 		.4byte	0x1a87
 5548 1b09 141B0000 		.4byte	0x1b14
 5549 1b0d 35       		.uleb128 0x35
 5550 1b0e 7D010000 		.4byte	0x17d
 5551 1b12 02       		.byte	0x2
 5552 1b13 00       		.byte	0
 5553 1b14 3A       		.uleb128 0x3a
 5554 1b15 EC090000 		.4byte	.LASF226
 5555 1b19 01       		.byte	0x1
 5556 1b1a 65       		.byte	0x65
 5557 1b1b 251B0000 		.4byte	0x1b25
 5558 1b1f 05       		.uleb128 0x5
 5559 1b20 03       		.byte	0x3
 5560 1b21 00000000 		.4byte	STATE_CLOCK_W_ISEDITING_Transitions
 5561 1b25 12       		.uleb128 0x12
 5562 1b26 041B0000 		.4byte	0x1b04
 5563 1b2a 3A       		.uleb128 0x3a
 5564 1b2b 2D090000 		.4byte	.LASF227
 5565 1b2f 01       		.byte	0x1
 5566 1b30 6E       		.byte	0x6e
 5567 1b31 3B1B0000 		.4byte	0x1b3b
 5568 1b35 05       		.uleb128 0x5
 5569 1b36 03       		.byte	0x3
 5570 1b37 00000000 		.4byte	STATE_CLOCK_W_ISAUTOINCREMENT_Transitions
 5571 1b3b 12       		.uleb128 0x12
 5572 1b3c 041B0000 		.4byte	0x1b04
 5573 1b40 3A       		.uleb128 0x3a
 5574 1b41 87080000 		.4byte	.LASF228
 5575 1b45 01       		.byte	0x1
 5576 1b46 8A       		.byte	0x8a
 5577 1b47 E2040000 		.4byte	0x4e2
 5578 1b4b 05       		.uleb128 0x5
 5579 1b4c 03       		.byte	0x3
 5580 1b4d 00000000 		.4byte	containerFSM
 5581 1b51 3A       		.uleb128 0x3a
 5582 1b52 CB0B0000 		.4byte	.LASF229
 5583 1b56 01       		.byte	0x1
 5584 1b57 92       		.byte	0x92
ARM GAS  C:\Users\saman\AppData\Local\Temp\ccOAgYwr.s 			page 122


 5585 1b58 E2040000 		.4byte	0x4e2
 5586 1b5c 05       		.uleb128 0x5
 5587 1b5d 03       		.byte	0x3
 5588 1b5e 00000000 		.4byte	widgetFSM
 5589 1b62 3B       		.uleb128 0x3b
 5590 1b63 7B010000 		.4byte	.LASF230
 5591 1b67 7B010000 		.4byte	.LASF230
 5592 1b6b 18       		.byte	0x18
 5593 1b6c 4A01     		.2byte	0x14a
 5594 1b6e 3C       		.uleb128 0x3c
 5595 1b6f 9D030000 		.4byte	.LASF239
 5596 1b73 9D030000 		.4byte	.LASF239
 5597 1b77 3D       		.uleb128 0x3d
 5598 1b78 BF040000 		.4byte	.LASF231
 5599 1b7c BF040000 		.4byte	.LASF231
 5600 1b80 0A       		.byte	0xa
 5601 1b81 91       		.byte	0x91
 5602 1b82 3D       		.uleb128 0x3d
 5603 1b83 B6030000 		.4byte	.LASF232
 5604 1b87 B6030000 		.4byte	.LASF232
 5605 1b8b 0A       		.byte	0xa
 5606 1b8c 88       		.byte	0x88
 5607 1b8d 00       		.byte	0
 5608              		.section	.debug_abbrev,"",%progbits
 5609              	.Ldebug_abbrev0:
 5610 0000 01       		.uleb128 0x1
 5611 0001 11       		.uleb128 0x11
 5612 0002 01       		.byte	0x1
 5613 0003 25       		.uleb128 0x25
 5614 0004 0E       		.uleb128 0xe
 5615 0005 13       		.uleb128 0x13
 5616 0006 0B       		.uleb128 0xb
 5617 0007 03       		.uleb128 0x3
 5618 0008 0E       		.uleb128 0xe
 5619 0009 1B       		.uleb128 0x1b
 5620 000a 0E       		.uleb128 0xe
 5621 000b 55       		.uleb128 0x55
 5622 000c 17       		.uleb128 0x17
 5623 000d 11       		.uleb128 0x11
 5624 000e 01       		.uleb128 0x1
 5625 000f 10       		.uleb128 0x10
 5626 0010 17       		.uleb128 0x17
 5627 0011 00       		.byte	0
 5628 0012 00       		.byte	0
 5629 0013 02       		.uleb128 0x2
 5630 0014 24       		.uleb128 0x24
 5631 0015 00       		.byte	0
 5632 0016 0B       		.uleb128 0xb
 5633 0017 0B       		.uleb128 0xb
 5634 0018 3E       		.uleb128 0x3e
 5635 0019 0B       		.uleb128 0xb
 5636 001a 03       		.uleb128 0x3
 5637 001b 0E       		.uleb128 0xe
 5638 001c 00       		.byte	0
 5639 001d 00       		.byte	0
 5640 001e 03       		.uleb128 0x3
 5641 001f 16       		.uleb128 0x16
ARM GAS  C:\Users\saman\AppData\Local\Temp\ccOAgYwr.s 			page 123


 5642 0020 00       		.byte	0
 5643 0021 03       		.uleb128 0x3
 5644 0022 0E       		.uleb128 0xe
 5645 0023 3A       		.uleb128 0x3a
 5646 0024 0B       		.uleb128 0xb
 5647 0025 3B       		.uleb128 0x3b
 5648 0026 0B       		.uleb128 0xb
 5649 0027 49       		.uleb128 0x49
 5650 0028 13       		.uleb128 0x13
 5651 0029 00       		.byte	0
 5652 002a 00       		.byte	0
 5653 002b 04       		.uleb128 0x4
 5654 002c 04       		.uleb128 0x4
 5655 002d 01       		.byte	0x1
 5656 002e 0B       		.uleb128 0xb
 5657 002f 0B       		.uleb128 0xb
 5658 0030 49       		.uleb128 0x49
 5659 0031 13       		.uleb128 0x13
 5660 0032 3A       		.uleb128 0x3a
 5661 0033 0B       		.uleb128 0xb
 5662 0034 3B       		.uleb128 0x3b
 5663 0035 0B       		.uleb128 0xb
 5664 0036 01       		.uleb128 0x1
 5665 0037 13       		.uleb128 0x13
 5666 0038 00       		.byte	0
 5667 0039 00       		.byte	0
 5668 003a 05       		.uleb128 0x5
 5669 003b 28       		.uleb128 0x28
 5670 003c 00       		.byte	0
 5671 003d 03       		.uleb128 0x3
 5672 003e 0E       		.uleb128 0xe
 5673 003f 1C       		.uleb128 0x1c
 5674 0040 0B       		.uleb128 0xb
 5675 0041 00       		.byte	0
 5676 0042 00       		.byte	0
 5677 0043 06       		.uleb128 0x6
 5678 0044 28       		.uleb128 0x28
 5679 0045 00       		.byte	0
 5680 0046 03       		.uleb128 0x3
 5681 0047 0E       		.uleb128 0xe
 5682 0048 1C       		.uleb128 0x1c
 5683 0049 0D       		.uleb128 0xd
 5684 004a 00       		.byte	0
 5685 004b 00       		.byte	0
 5686 004c 07       		.uleb128 0x7
 5687 004d 24       		.uleb128 0x24
 5688 004e 00       		.byte	0
 5689 004f 0B       		.uleb128 0xb
 5690 0050 0B       		.uleb128 0xb
 5691 0051 3E       		.uleb128 0x3e
 5692 0052 0B       		.uleb128 0xb
 5693 0053 03       		.uleb128 0x3
 5694 0054 08       		.uleb128 0x8
 5695 0055 00       		.byte	0
 5696 0056 00       		.byte	0
 5697 0057 08       		.uleb128 0x8
 5698 0058 28       		.uleb128 0x28
ARM GAS  C:\Users\saman\AppData\Local\Temp\ccOAgYwr.s 			page 124


 5699 0059 00       		.byte	0
 5700 005a 03       		.uleb128 0x3
 5701 005b 0E       		.uleb128 0xe
 5702 005c 1C       		.uleb128 0x1c
 5703 005d 05       		.uleb128 0x5
 5704 005e 00       		.byte	0
 5705 005f 00       		.byte	0
 5706 0060 09       		.uleb128 0x9
 5707 0061 28       		.uleb128 0x28
 5708 0062 00       		.byte	0
 5709 0063 03       		.uleb128 0x3
 5710 0064 08       		.uleb128 0x8
 5711 0065 1C       		.uleb128 0x1c
 5712 0066 0B       		.uleb128 0xb
 5713 0067 00       		.byte	0
 5714 0068 00       		.byte	0
 5715 0069 0A       		.uleb128 0xa
 5716 006a 13       		.uleb128 0x13
 5717 006b 01       		.byte	0x1
 5718 006c 0B       		.uleb128 0xb
 5719 006d 0B       		.uleb128 0xb
 5720 006e 3A       		.uleb128 0x3a
 5721 006f 0B       		.uleb128 0xb
 5722 0070 3B       		.uleb128 0x3b
 5723 0071 0B       		.uleb128 0xb
 5724 0072 01       		.uleb128 0x1
 5725 0073 13       		.uleb128 0x13
 5726 0074 00       		.byte	0
 5727 0075 00       		.byte	0
 5728 0076 0B       		.uleb128 0xb
 5729 0077 0D       		.uleb128 0xd
 5730 0078 00       		.byte	0
 5731 0079 03       		.uleb128 0x3
 5732 007a 0E       		.uleb128 0xe
 5733 007b 3A       		.uleb128 0x3a
 5734 007c 0B       		.uleb128 0xb
 5735 007d 3B       		.uleb128 0x3b
 5736 007e 0B       		.uleb128 0xb
 5737 007f 49       		.uleb128 0x49
 5738 0080 13       		.uleb128 0x13
 5739 0081 38       		.uleb128 0x38
 5740 0082 0B       		.uleb128 0xb
 5741 0083 00       		.byte	0
 5742 0084 00       		.byte	0
 5743 0085 0C       		.uleb128 0xc
 5744 0086 0F       		.uleb128 0xf
 5745 0087 00       		.byte	0
 5746 0088 0B       		.uleb128 0xb
 5747 0089 0B       		.uleb128 0xb
 5748 008a 49       		.uleb128 0x49
 5749 008b 13       		.uleb128 0x13
 5750 008c 00       		.byte	0
 5751 008d 00       		.byte	0
 5752 008e 0D       		.uleb128 0xd
 5753 008f 15       		.uleb128 0x15
 5754 0090 01       		.byte	0x1
 5755 0091 01       		.uleb128 0x1
ARM GAS  C:\Users\saman\AppData\Local\Temp\ccOAgYwr.s 			page 125


 5756 0092 13       		.uleb128 0x13
 5757 0093 00       		.byte	0
 5758 0094 00       		.byte	0
 5759 0095 0E       		.uleb128 0xe
 5760 0096 18       		.uleb128 0x18
 5761 0097 00       		.byte	0
 5762 0098 00       		.byte	0
 5763 0099 00       		.byte	0
 5764 009a 0F       		.uleb128 0xf
 5765 009b 15       		.uleb128 0x15
 5766 009c 01       		.byte	0x1
 5767 009d 49       		.uleb128 0x49
 5768 009e 13       		.uleb128 0x13
 5769 009f 01       		.uleb128 0x1
 5770 00a0 13       		.uleb128 0x13
 5771 00a1 00       		.byte	0
 5772 00a2 00       		.byte	0
 5773 00a3 10       		.uleb128 0x10
 5774 00a4 01       		.uleb128 0x1
 5775 00a5 01       		.byte	0x1
 5776 00a6 49       		.uleb128 0x49
 5777 00a7 13       		.uleb128 0x13
 5778 00a8 01       		.uleb128 0x1
 5779 00a9 13       		.uleb128 0x13
 5780 00aa 00       		.byte	0
 5781 00ab 00       		.byte	0
 5782 00ac 11       		.uleb128 0x11
 5783 00ad 21       		.uleb128 0x21
 5784 00ae 00       		.byte	0
 5785 00af 00       		.byte	0
 5786 00b0 00       		.byte	0
 5787 00b1 12       		.uleb128 0x12
 5788 00b2 26       		.uleb128 0x26
 5789 00b3 00       		.byte	0
 5790 00b4 49       		.uleb128 0x49
 5791 00b5 13       		.uleb128 0x13
 5792 00b6 00       		.byte	0
 5793 00b7 00       		.byte	0
 5794 00b8 13       		.uleb128 0x13
 5795 00b9 16       		.uleb128 0x16
 5796 00ba 00       		.byte	0
 5797 00bb 03       		.uleb128 0x3
 5798 00bc 0E       		.uleb128 0xe
 5799 00bd 3A       		.uleb128 0x3a
 5800 00be 0B       		.uleb128 0xb
 5801 00bf 3B       		.uleb128 0x3b
 5802 00c0 05       		.uleb128 0x5
 5803 00c1 49       		.uleb128 0x49
 5804 00c2 13       		.uleb128 0x13
 5805 00c3 00       		.byte	0
 5806 00c4 00       		.byte	0
 5807 00c5 14       		.uleb128 0x14
 5808 00c6 15       		.uleb128 0x15
 5809 00c7 01       		.byte	0x1
 5810 00c8 27       		.uleb128 0x27
 5811 00c9 19       		.uleb128 0x19
 5812 00ca 49       		.uleb128 0x49
ARM GAS  C:\Users\saman\AppData\Local\Temp\ccOAgYwr.s 			page 126


 5813 00cb 13       		.uleb128 0x13
 5814 00cc 01       		.uleb128 0x1
 5815 00cd 13       		.uleb128 0x13
 5816 00ce 00       		.byte	0
 5817 00cf 00       		.byte	0
 5818 00d0 15       		.uleb128 0x15
 5819 00d1 05       		.uleb128 0x5
 5820 00d2 00       		.byte	0
 5821 00d3 49       		.uleb128 0x49
 5822 00d4 13       		.uleb128 0x13
 5823 00d5 00       		.byte	0
 5824 00d6 00       		.byte	0
 5825 00d7 16       		.uleb128 0x16
 5826 00d8 13       		.uleb128 0x13
 5827 00d9 01       		.byte	0x1
 5828 00da 03       		.uleb128 0x3
 5829 00db 0E       		.uleb128 0xe
 5830 00dc 0B       		.uleb128 0xb
 5831 00dd 0B       		.uleb128 0xb
 5832 00de 3A       		.uleb128 0x3a
 5833 00df 0B       		.uleb128 0xb
 5834 00e0 3B       		.uleb128 0x3b
 5835 00e1 0B       		.uleb128 0xb
 5836 00e2 01       		.uleb128 0x1
 5837 00e3 13       		.uleb128 0x13
 5838 00e4 00       		.byte	0
 5839 00e5 00       		.byte	0
 5840 00e6 17       		.uleb128 0x17
 5841 00e7 0D       		.uleb128 0xd
 5842 00e8 00       		.byte	0
 5843 00e9 03       		.uleb128 0x3
 5844 00ea 08       		.uleb128 0x8
 5845 00eb 3A       		.uleb128 0x3a
 5846 00ec 0B       		.uleb128 0xb
 5847 00ed 3B       		.uleb128 0x3b
 5848 00ee 0B       		.uleb128 0xb
 5849 00ef 49       		.uleb128 0x49
 5850 00f0 13       		.uleb128 0x13
 5851 00f1 38       		.uleb128 0x38
 5852 00f2 0B       		.uleb128 0xb
 5853 00f3 00       		.byte	0
 5854 00f4 00       		.byte	0
 5855 00f5 18       		.uleb128 0x18
 5856 00f6 2E       		.uleb128 0x2e
 5857 00f7 01       		.byte	0x1
 5858 00f8 3F       		.uleb128 0x3f
 5859 00f9 19       		.uleb128 0x19
 5860 00fa 03       		.uleb128 0x3
 5861 00fb 0E       		.uleb128 0xe
 5862 00fc 3A       		.uleb128 0x3a
 5863 00fd 0B       		.uleb128 0xb
 5864 00fe 3B       		.uleb128 0x3b
 5865 00ff 05       		.uleb128 0x5
 5866 0100 27       		.uleb128 0x27
 5867 0101 19       		.uleb128 0x19
 5868 0102 49       		.uleb128 0x49
 5869 0103 13       		.uleb128 0x13
ARM GAS  C:\Users\saman\AppData\Local\Temp\ccOAgYwr.s 			page 127


 5870 0104 20       		.uleb128 0x20
 5871 0105 0B       		.uleb128 0xb
 5872 0106 01       		.uleb128 0x1
 5873 0107 13       		.uleb128 0x13
 5874 0108 00       		.byte	0
 5875 0109 00       		.byte	0
 5876 010a 19       		.uleb128 0x19
 5877 010b 05       		.uleb128 0x5
 5878 010c 00       		.byte	0
 5879 010d 03       		.uleb128 0x3
 5880 010e 0E       		.uleb128 0xe
 5881 010f 3A       		.uleb128 0x3a
 5882 0110 0B       		.uleb128 0xb
 5883 0111 3B       		.uleb128 0x3b
 5884 0112 05       		.uleb128 0x5
 5885 0113 49       		.uleb128 0x49
 5886 0114 13       		.uleb128 0x13
 5887 0115 00       		.byte	0
 5888 0116 00       		.byte	0
 5889 0117 1A       		.uleb128 0x1a
 5890 0118 34       		.uleb128 0x34
 5891 0119 00       		.byte	0
 5892 011a 03       		.uleb128 0x3
 5893 011b 08       		.uleb128 0x8
 5894 011c 3A       		.uleb128 0x3a
 5895 011d 0B       		.uleb128 0xb
 5896 011e 3B       		.uleb128 0x3b
 5897 011f 05       		.uleb128 0x5
 5898 0120 49       		.uleb128 0x49
 5899 0121 13       		.uleb128 0x13
 5900 0122 00       		.byte	0
 5901 0123 00       		.byte	0
 5902 0124 1B       		.uleb128 0x1b
 5903 0125 34       		.uleb128 0x34
 5904 0126 00       		.byte	0
 5905 0127 03       		.uleb128 0x3
 5906 0128 0E       		.uleb128 0xe
 5907 0129 3A       		.uleb128 0x3a
 5908 012a 0B       		.uleb128 0xb
 5909 012b 3B       		.uleb128 0x3b
 5910 012c 05       		.uleb128 0x5
 5911 012d 49       		.uleb128 0x49
 5912 012e 13       		.uleb128 0x13
 5913 012f 00       		.byte	0
 5914 0130 00       		.byte	0
 5915 0131 1C       		.uleb128 0x1c
 5916 0132 0B       		.uleb128 0xb
 5917 0133 01       		.byte	0x1
 5918 0134 00       		.byte	0
 5919 0135 00       		.byte	0
 5920 0136 1D       		.uleb128 0x1d
 5921 0137 2E       		.uleb128 0x2e
 5922 0138 01       		.byte	0x1
 5923 0139 03       		.uleb128 0x3
 5924 013a 0E       		.uleb128 0xe
 5925 013b 3A       		.uleb128 0x3a
 5926 013c 0B       		.uleb128 0xb
ARM GAS  C:\Users\saman\AppData\Local\Temp\ccOAgYwr.s 			page 128


 5927 013d 3B       		.uleb128 0x3b
 5928 013e 05       		.uleb128 0x5
 5929 013f 11       		.uleb128 0x11
 5930 0140 01       		.uleb128 0x1
 5931 0141 12       		.uleb128 0x12
 5932 0142 06       		.uleb128 0x6
 5933 0143 40       		.uleb128 0x40
 5934 0144 18       		.uleb128 0x18
 5935 0145 9742     		.uleb128 0x2117
 5936 0147 19       		.uleb128 0x19
 5937 0148 01       		.uleb128 0x1
 5938 0149 13       		.uleb128 0x13
 5939 014a 00       		.byte	0
 5940 014b 00       		.byte	0
 5941 014c 1E       		.uleb128 0x1e
 5942 014d 34       		.uleb128 0x34
 5943 014e 00       		.byte	0
 5944 014f 03       		.uleb128 0x3
 5945 0150 0E       		.uleb128 0xe
 5946 0151 3A       		.uleb128 0x3a
 5947 0152 0B       		.uleb128 0xb
 5948 0153 3B       		.uleb128 0x3b
 5949 0154 05       		.uleb128 0x5
 5950 0155 49       		.uleb128 0x49
 5951 0156 13       		.uleb128 0x13
 5952 0157 02       		.uleb128 0x2
 5953 0158 18       		.uleb128 0x18
 5954 0159 00       		.byte	0
 5955 015a 00       		.byte	0
 5956 015b 1F       		.uleb128 0x1f
 5957 015c 1D       		.uleb128 0x1d
 5958 015d 01       		.byte	0x1
 5959 015e 31       		.uleb128 0x31
 5960 015f 13       		.uleb128 0x13
 5961 0160 11       		.uleb128 0x11
 5962 0161 01       		.uleb128 0x1
 5963 0162 12       		.uleb128 0x12
 5964 0163 06       		.uleb128 0x6
 5965 0164 58       		.uleb128 0x58
 5966 0165 0B       		.uleb128 0xb
 5967 0166 59       		.uleb128 0x59
 5968 0167 05       		.uleb128 0x5
 5969 0168 01       		.uleb128 0x1
 5970 0169 13       		.uleb128 0x13
 5971 016a 00       		.byte	0
 5972 016b 00       		.byte	0
 5973 016c 20       		.uleb128 0x20
 5974 016d 05       		.uleb128 0x5
 5975 016e 00       		.byte	0
 5976 016f 31       		.uleb128 0x31
 5977 0170 13       		.uleb128 0x13
 5978 0171 00       		.byte	0
 5979 0172 00       		.byte	0
 5980 0173 21       		.uleb128 0x21
 5981 0174 1D       		.uleb128 0x1d
 5982 0175 01       		.byte	0x1
 5983 0176 31       		.uleb128 0x31
ARM GAS  C:\Users\saman\AppData\Local\Temp\ccOAgYwr.s 			page 129


 5984 0177 13       		.uleb128 0x13
 5985 0178 11       		.uleb128 0x11
 5986 0179 01       		.uleb128 0x1
 5987 017a 12       		.uleb128 0x12
 5988 017b 06       		.uleb128 0x6
 5989 017c 58       		.uleb128 0x58
 5990 017d 0B       		.uleb128 0xb
 5991 017e 59       		.uleb128 0x59
 5992 017f 05       		.uleb128 0x5
 5993 0180 00       		.byte	0
 5994 0181 00       		.byte	0
 5995 0182 22       		.uleb128 0x22
 5996 0183 05       		.uleb128 0x5
 5997 0184 00       		.byte	0
 5998 0185 31       		.uleb128 0x31
 5999 0186 13       		.uleb128 0x13
 6000 0187 02       		.uleb128 0x2
 6001 0188 18       		.uleb128 0x18
 6002 0189 00       		.byte	0
 6003 018a 00       		.byte	0
 6004 018b 23       		.uleb128 0x23
 6005 018c 0B       		.uleb128 0xb
 6006 018d 01       		.byte	0x1
 6007 018e 11       		.uleb128 0x11
 6008 018f 01       		.uleb128 0x1
 6009 0190 12       		.uleb128 0x12
 6010 0191 06       		.uleb128 0x6
 6011 0192 00       		.byte	0
 6012 0193 00       		.byte	0
 6013 0194 24       		.uleb128 0x24
 6014 0195 34       		.uleb128 0x34
 6015 0196 00       		.byte	0
 6016 0197 31       		.uleb128 0x31
 6017 0198 13       		.uleb128 0x13
 6018 0199 1C       		.uleb128 0x1c
 6019 019a 0B       		.uleb128 0xb
 6020 019b 00       		.byte	0
 6021 019c 00       		.byte	0
 6022 019d 25       		.uleb128 0x25
 6023 019e 34       		.uleb128 0x34
 6024 019f 00       		.byte	0
 6025 01a0 31       		.uleb128 0x31
 6026 01a1 13       		.uleb128 0x13
 6027 01a2 02       		.uleb128 0x2
 6028 01a3 17       		.uleb128 0x17
 6029 01a4 00       		.byte	0
 6030 01a5 00       		.byte	0
 6031 01a6 26       		.uleb128 0x26
 6032 01a7 898201   		.uleb128 0x4109
 6033 01aa 00       		.byte	0
 6034 01ab 11       		.uleb128 0x11
 6035 01ac 01       		.uleb128 0x1
 6036 01ad 31       		.uleb128 0x31
 6037 01ae 13       		.uleb128 0x13
 6038 01af 00       		.byte	0
 6039 01b0 00       		.byte	0
 6040 01b1 27       		.uleb128 0x27
ARM GAS  C:\Users\saman\AppData\Local\Temp\ccOAgYwr.s 			page 130


 6041 01b2 898201   		.uleb128 0x4109
 6042 01b5 01       		.byte	0x1
 6043 01b6 11       		.uleb128 0x11
 6044 01b7 01       		.uleb128 0x1
 6045 01b8 31       		.uleb128 0x31
 6046 01b9 13       		.uleb128 0x13
 6047 01ba 00       		.byte	0
 6048 01bb 00       		.byte	0
 6049 01bc 28       		.uleb128 0x28
 6050 01bd 8A8201   		.uleb128 0x410a
 6051 01c0 00       		.byte	0
 6052 01c1 02       		.uleb128 0x2
 6053 01c2 18       		.uleb128 0x18
 6054 01c3 9142     		.uleb128 0x2111
 6055 01c5 18       		.uleb128 0x18
 6056 01c6 00       		.byte	0
 6057 01c7 00       		.byte	0
 6058 01c8 29       		.uleb128 0x29
 6059 01c9 2E       		.uleb128 0x2e
 6060 01ca 01       		.byte	0x1
 6061 01cb 03       		.uleb128 0x3
 6062 01cc 0E       		.uleb128 0xe
 6063 01cd 3A       		.uleb128 0x3a
 6064 01ce 0B       		.uleb128 0xb
 6065 01cf 3B       		.uleb128 0x3b
 6066 01d0 0B       		.uleb128 0xb
 6067 01d1 27       		.uleb128 0x27
 6068 01d2 19       		.uleb128 0x19
 6069 01d3 11       		.uleb128 0x11
 6070 01d4 01       		.uleb128 0x1
 6071 01d5 12       		.uleb128 0x12
 6072 01d6 06       		.uleb128 0x6
 6073 01d7 40       		.uleb128 0x40
 6074 01d8 18       		.uleb128 0x18
 6075 01d9 9742     		.uleb128 0x2117
 6076 01db 19       		.uleb128 0x19
 6077 01dc 01       		.uleb128 0x1
 6078 01dd 13       		.uleb128 0x13
 6079 01de 00       		.byte	0
 6080 01df 00       		.byte	0
 6081 01e0 2A       		.uleb128 0x2a
 6082 01e1 05       		.uleb128 0x5
 6083 01e2 00       		.byte	0
 6084 01e3 03       		.uleb128 0x3
 6085 01e4 08       		.uleb128 0x8
 6086 01e5 3A       		.uleb128 0x3a
 6087 01e6 0B       		.uleb128 0xb
 6088 01e7 3B       		.uleb128 0x3b
 6089 01e8 0B       		.uleb128 0xb
 6090 01e9 49       		.uleb128 0x49
 6091 01ea 13       		.uleb128 0x13
 6092 01eb 02       		.uleb128 0x2
 6093 01ec 17       		.uleb128 0x17
 6094 01ed 00       		.byte	0
 6095 01ee 00       		.byte	0
 6096 01ef 2B       		.uleb128 0x2b
 6097 01f0 05       		.uleb128 0x5
ARM GAS  C:\Users\saman\AppData\Local\Temp\ccOAgYwr.s 			page 131


 6098 01f1 00       		.byte	0
 6099 01f2 03       		.uleb128 0x3
 6100 01f3 0E       		.uleb128 0xe
 6101 01f4 3A       		.uleb128 0x3a
 6102 01f5 0B       		.uleb128 0xb
 6103 01f6 3B       		.uleb128 0x3b
 6104 01f7 0B       		.uleb128 0xb
 6105 01f8 49       		.uleb128 0x49
 6106 01f9 13       		.uleb128 0x13
 6107 01fa 02       		.uleb128 0x2
 6108 01fb 17       		.uleb128 0x17
 6109 01fc 00       		.byte	0
 6110 01fd 00       		.byte	0
 6111 01fe 2C       		.uleb128 0x2c
 6112 01ff 34       		.uleb128 0x34
 6113 0200 00       		.byte	0
 6114 0201 03       		.uleb128 0x3
 6115 0202 0E       		.uleb128 0xe
 6116 0203 3A       		.uleb128 0x3a
 6117 0204 0B       		.uleb128 0xb
 6118 0205 3B       		.uleb128 0x3b
 6119 0206 0B       		.uleb128 0xb
 6120 0207 49       		.uleb128 0x49
 6121 0208 13       		.uleb128 0x13
 6122 0209 02       		.uleb128 0x2
 6123 020a 18       		.uleb128 0x18
 6124 020b 00       		.byte	0
 6125 020c 00       		.byte	0
 6126 020d 2D       		.uleb128 0x2d
 6127 020e 1D       		.uleb128 0x1d
 6128 020f 01       		.byte	0x1
 6129 0210 31       		.uleb128 0x31
 6130 0211 13       		.uleb128 0x13
 6131 0212 11       		.uleb128 0x11
 6132 0213 01       		.uleb128 0x1
 6133 0214 12       		.uleb128 0x12
 6134 0215 06       		.uleb128 0x6
 6135 0216 58       		.uleb128 0x58
 6136 0217 0B       		.uleb128 0xb
 6137 0218 59       		.uleb128 0x59
 6138 0219 0B       		.uleb128 0xb
 6139 021a 01       		.uleb128 0x1
 6140 021b 13       		.uleb128 0x13
 6141 021c 00       		.byte	0
 6142 021d 00       		.byte	0
 6143 021e 2E       		.uleb128 0x2e
 6144 021f 0B       		.uleb128 0xb
 6145 0220 01       		.byte	0x1
 6146 0221 11       		.uleb128 0x11
 6147 0222 01       		.uleb128 0x1
 6148 0223 12       		.uleb128 0x12
 6149 0224 06       		.uleb128 0x6
 6150 0225 01       		.uleb128 0x1
 6151 0226 13       		.uleb128 0x13
 6152 0227 00       		.byte	0
 6153 0228 00       		.byte	0
 6154 0229 2F       		.uleb128 0x2f
ARM GAS  C:\Users\saman\AppData\Local\Temp\ccOAgYwr.s 			page 132


 6155 022a 34       		.uleb128 0x34
 6156 022b 00       		.byte	0
 6157 022c 03       		.uleb128 0x3
 6158 022d 0E       		.uleb128 0xe
 6159 022e 3A       		.uleb128 0x3a
 6160 022f 0B       		.uleb128 0xb
 6161 0230 3B       		.uleb128 0x3b
 6162 0231 0B       		.uleb128 0xb
 6163 0232 49       		.uleb128 0x49
 6164 0233 13       		.uleb128 0x13
 6165 0234 02       		.uleb128 0x2
 6166 0235 17       		.uleb128 0x17
 6167 0236 00       		.byte	0
 6168 0237 00       		.byte	0
 6169 0238 30       		.uleb128 0x30
 6170 0239 898201   		.uleb128 0x4109
 6171 023c 01       		.byte	0x1
 6172 023d 11       		.uleb128 0x11
 6173 023e 01       		.uleb128 0x1
 6174 023f 31       		.uleb128 0x31
 6175 0240 13       		.uleb128 0x13
 6176 0241 01       		.uleb128 0x1
 6177 0242 13       		.uleb128 0x13
 6178 0243 00       		.byte	0
 6179 0244 00       		.byte	0
 6180 0245 31       		.uleb128 0x31
 6181 0246 34       		.uleb128 0x34
 6182 0247 00       		.byte	0
 6183 0248 03       		.uleb128 0x3
 6184 0249 0E       		.uleb128 0xe
 6185 024a 3A       		.uleb128 0x3a
 6186 024b 0B       		.uleb128 0xb
 6187 024c 3B       		.uleb128 0x3b
 6188 024d 05       		.uleb128 0x5
 6189 024e 49       		.uleb128 0x49
 6190 024f 13       		.uleb128 0x13
 6191 0250 02       		.uleb128 0x2
 6192 0251 17       		.uleb128 0x17
 6193 0252 00       		.byte	0
 6194 0253 00       		.byte	0
 6195 0254 32       		.uleb128 0x32
 6196 0255 2E       		.uleb128 0x2e
 6197 0256 01       		.byte	0x1
 6198 0257 3F       		.uleb128 0x3f
 6199 0258 19       		.uleb128 0x19
 6200 0259 03       		.uleb128 0x3
 6201 025a 0E       		.uleb128 0xe
 6202 025b 3A       		.uleb128 0x3a
 6203 025c 0B       		.uleb128 0xb
 6204 025d 3B       		.uleb128 0x3b
 6205 025e 0B       		.uleb128 0xb
 6206 025f 11       		.uleb128 0x11
 6207 0260 01       		.uleb128 0x1
 6208 0261 12       		.uleb128 0x12
 6209 0262 06       		.uleb128 0x6
 6210 0263 40       		.uleb128 0x40
 6211 0264 18       		.uleb128 0x18
ARM GAS  C:\Users\saman\AppData\Local\Temp\ccOAgYwr.s 			page 133


 6212 0265 9742     		.uleb128 0x2117
 6213 0267 19       		.uleb128 0x19
 6214 0268 01       		.uleb128 0x1
 6215 0269 13       		.uleb128 0x13
 6216 026a 00       		.byte	0
 6217 026b 00       		.byte	0
 6218 026c 33       		.uleb128 0x33
 6219 026d 2E       		.uleb128 0x2e
 6220 026e 01       		.byte	0x1
 6221 026f 3F       		.uleb128 0x3f
 6222 0270 19       		.uleb128 0x19
 6223 0271 03       		.uleb128 0x3
 6224 0272 0E       		.uleb128 0xe
 6225 0273 3A       		.uleb128 0x3a
 6226 0274 0B       		.uleb128 0xb
 6227 0275 3B       		.uleb128 0x3b
 6228 0276 0B       		.uleb128 0xb
 6229 0277 27       		.uleb128 0x27
 6230 0278 19       		.uleb128 0x19
 6231 0279 11       		.uleb128 0x11
 6232 027a 01       		.uleb128 0x1
 6233 027b 12       		.uleb128 0x12
 6234 027c 06       		.uleb128 0x6
 6235 027d 40       		.uleb128 0x40
 6236 027e 18       		.uleb128 0x18
 6237 027f 9742     		.uleb128 0x2117
 6238 0281 19       		.uleb128 0x19
 6239 0282 01       		.uleb128 0x1
 6240 0283 13       		.uleb128 0x13
 6241 0284 00       		.byte	0
 6242 0285 00       		.byte	0
 6243 0286 34       		.uleb128 0x34
 6244 0287 34       		.uleb128 0x34
 6245 0288 00       		.byte	0
 6246 0289 03       		.uleb128 0x3
 6247 028a 0E       		.uleb128 0xe
 6248 028b 3A       		.uleb128 0x3a
 6249 028c 0B       		.uleb128 0xb
 6250 028d 3B       		.uleb128 0x3b
 6251 028e 0B       		.uleb128 0xb
 6252 028f 49       		.uleb128 0x49
 6253 0290 13       		.uleb128 0x13
 6254 0291 00       		.byte	0
 6255 0292 00       		.byte	0
 6256 0293 35       		.uleb128 0x35
 6257 0294 21       		.uleb128 0x21
 6258 0295 00       		.byte	0
 6259 0296 49       		.uleb128 0x49
 6260 0297 13       		.uleb128 0x13
 6261 0298 2F       		.uleb128 0x2f
 6262 0299 0B       		.uleb128 0xb
 6263 029a 00       		.byte	0
 6264 029b 00       		.byte	0
 6265 029c 36       		.uleb128 0x36
 6266 029d 34       		.uleb128 0x34
 6267 029e 00       		.byte	0
 6268 029f 03       		.uleb128 0x3
ARM GAS  C:\Users\saman\AppData\Local\Temp\ccOAgYwr.s 			page 134


 6269 02a0 0E       		.uleb128 0xe
 6270 02a1 3A       		.uleb128 0x3a
 6271 02a2 0B       		.uleb128 0xb
 6272 02a3 3B       		.uleb128 0x3b
 6273 02a4 0B       		.uleb128 0xb
 6274 02a5 49       		.uleb128 0x49
 6275 02a6 13       		.uleb128 0x13
 6276 02a7 1C       		.uleb128 0x1c
 6277 02a8 0B       		.uleb128 0xb
 6278 02a9 00       		.byte	0
 6279 02aa 00       		.byte	0
 6280 02ab 37       		.uleb128 0x37
 6281 02ac 34       		.uleb128 0x34
 6282 02ad 00       		.byte	0
 6283 02ae 03       		.uleb128 0x3
 6284 02af 0E       		.uleb128 0xe
 6285 02b0 3A       		.uleb128 0x3a
 6286 02b1 0B       		.uleb128 0xb
 6287 02b2 3B       		.uleb128 0x3b
 6288 02b3 0B       		.uleb128 0xb
 6289 02b4 49       		.uleb128 0x49
 6290 02b5 13       		.uleb128 0x13
 6291 02b6 3F       		.uleb128 0x3f
 6292 02b7 19       		.uleb128 0x19
 6293 02b8 3C       		.uleb128 0x3c
 6294 02b9 19       		.uleb128 0x19
 6295 02ba 00       		.byte	0
 6296 02bb 00       		.byte	0
 6297 02bc 38       		.uleb128 0x38
 6298 02bd 34       		.uleb128 0x34
 6299 02be 00       		.byte	0
 6300 02bf 03       		.uleb128 0x3
 6301 02c0 0E       		.uleb128 0xe
 6302 02c1 3A       		.uleb128 0x3a
 6303 02c2 0B       		.uleb128 0xb
 6304 02c3 3B       		.uleb128 0x3b
 6305 02c4 05       		.uleb128 0x5
 6306 02c5 49       		.uleb128 0x49
 6307 02c6 13       		.uleb128 0x13
 6308 02c7 3F       		.uleb128 0x3f
 6309 02c8 19       		.uleb128 0x19
 6310 02c9 3C       		.uleb128 0x3c
 6311 02ca 19       		.uleb128 0x19
 6312 02cb 00       		.byte	0
 6313 02cc 00       		.byte	0
 6314 02cd 39       		.uleb128 0x39
 6315 02ce 35       		.uleb128 0x35
 6316 02cf 00       		.byte	0
 6317 02d0 49       		.uleb128 0x49
 6318 02d1 13       		.uleb128 0x13
 6319 02d2 00       		.byte	0
 6320 02d3 00       		.byte	0
 6321 02d4 3A       		.uleb128 0x3a
 6322 02d5 34       		.uleb128 0x34
 6323 02d6 00       		.byte	0
 6324 02d7 03       		.uleb128 0x3
 6325 02d8 0E       		.uleb128 0xe
ARM GAS  C:\Users\saman\AppData\Local\Temp\ccOAgYwr.s 			page 135


 6326 02d9 3A       		.uleb128 0x3a
 6327 02da 0B       		.uleb128 0xb
 6328 02db 3B       		.uleb128 0x3b
 6329 02dc 0B       		.uleb128 0xb
 6330 02dd 49       		.uleb128 0x49
 6331 02de 13       		.uleb128 0x13
 6332 02df 3F       		.uleb128 0x3f
 6333 02e0 19       		.uleb128 0x19
 6334 02e1 02       		.uleb128 0x2
 6335 02e2 18       		.uleb128 0x18
 6336 02e3 00       		.byte	0
 6337 02e4 00       		.byte	0
 6338 02e5 3B       		.uleb128 0x3b
 6339 02e6 2E       		.uleb128 0x2e
 6340 02e7 00       		.byte	0
 6341 02e8 3F       		.uleb128 0x3f
 6342 02e9 19       		.uleb128 0x19
 6343 02ea 3C       		.uleb128 0x3c
 6344 02eb 19       		.uleb128 0x19
 6345 02ec 6E       		.uleb128 0x6e
 6346 02ed 0E       		.uleb128 0xe
 6347 02ee 03       		.uleb128 0x3
 6348 02ef 0E       		.uleb128 0xe
 6349 02f0 3A       		.uleb128 0x3a
 6350 02f1 0B       		.uleb128 0xb
 6351 02f2 3B       		.uleb128 0x3b
 6352 02f3 05       		.uleb128 0x5
 6353 02f4 00       		.byte	0
 6354 02f5 00       		.byte	0
 6355 02f6 3C       		.uleb128 0x3c
 6356 02f7 2E       		.uleb128 0x2e
 6357 02f8 00       		.byte	0
 6358 02f9 3F       		.uleb128 0x3f
 6359 02fa 19       		.uleb128 0x19
 6360 02fb 3C       		.uleb128 0x3c
 6361 02fc 19       		.uleb128 0x19
 6362 02fd 6E       		.uleb128 0x6e
 6363 02fe 0E       		.uleb128 0xe
 6364 02ff 03       		.uleb128 0x3
 6365 0300 0E       		.uleb128 0xe
 6366 0301 00       		.byte	0
 6367 0302 00       		.byte	0
 6368 0303 3D       		.uleb128 0x3d
 6369 0304 2E       		.uleb128 0x2e
 6370 0305 00       		.byte	0
 6371 0306 3F       		.uleb128 0x3f
 6372 0307 19       		.uleb128 0x19
 6373 0308 3C       		.uleb128 0x3c
 6374 0309 19       		.uleb128 0x19
 6375 030a 6E       		.uleb128 0x6e
 6376 030b 0E       		.uleb128 0xe
 6377 030c 03       		.uleb128 0x3
 6378 030d 0E       		.uleb128 0xe
 6379 030e 3A       		.uleb128 0x3a
 6380 030f 0B       		.uleb128 0xb
 6381 0310 3B       		.uleb128 0x3b
 6382 0311 0B       		.uleb128 0xb
ARM GAS  C:\Users\saman\AppData\Local\Temp\ccOAgYwr.s 			page 136


 6383 0312 00       		.byte	0
 6384 0313 00       		.byte	0
 6385 0314 00       		.byte	0
 6386              		.section	.debug_loc,"",%progbits
 6387              	.Ldebug_loc0:
 6388              	.LLST0:
 6389 0000 3E000000 		.4byte	.LVL3
 6390 0004 68000000 		.4byte	.LVL5
 6391 0008 0200     		.2byte	0x2
 6392 000a 30       		.byte	0x30
 6393 000b 9F       		.byte	0x9f
 6394 000c 68000000 		.4byte	.LVL5
 6395 0010 76000000 		.4byte	.LVL8
 6396 0014 0100     		.2byte	0x1
 6397 0016 54       		.byte	0x54
 6398 0017 76000000 		.4byte	.LVL8
 6399 001b 78000000 		.4byte	.LVL9
 6400 001f 0200     		.2byte	0x2
 6401 0021 30       		.byte	0x30
 6402 0022 9F       		.byte	0x9f
 6403 0023 78000000 		.4byte	.LVL9
 6404 0027 82000000 		.4byte	.LVL10
 6405 002b 0100     		.2byte	0x1
 6406 002d 54       		.byte	0x54
 6407 002e 00000000 		.4byte	0
 6408 0032 00000000 		.4byte	0
 6409              	.LLST1:
 6410 0036 5E000000 		.4byte	.LVL4
 6411 003a 86000000 		.4byte	.LVL11
 6412 003e 0100     		.2byte	0x1
 6413 0040 55       		.byte	0x55
 6414 0041 00000000 		.4byte	0
 6415 0045 00000000 		.4byte	0
 6416              	.LLST2:
 6417 0049 68000000 		.4byte	.LVL5
 6418 004d 71000000 		.4byte	.LVL6-1
 6419 0051 0700     		.2byte	0x7
 6420 0053 74       		.byte	0x74
 6421 0054 00       		.sleb128 0
 6422 0055 32       		.byte	0x32
 6423 0056 24       		.byte	0x24
 6424 0057 75       		.byte	0x75
 6425 0058 00       		.sleb128 0
 6426 0059 22       		.byte	0x22
 6427 005a 00000000 		.4byte	0
 6428 005e 00000000 		.4byte	0
 6429              	.LLST3:
 6430 0062 66000000 		.4byte	.LVL16
 6431 0066 8C000000 		.4byte	.LVL18
 6432 006a 0200     		.2byte	0x2
 6433 006c 30       		.byte	0x30
 6434 006d 9F       		.byte	0x9f
 6435 006e 8C000000 		.4byte	.LVL18
 6436 0072 9A000000 		.4byte	.LVL21
 6437 0076 0100     		.2byte	0x1
 6438 0078 54       		.byte	0x54
 6439 0079 9A000000 		.4byte	.LVL21
ARM GAS  C:\Users\saman\AppData\Local\Temp\ccOAgYwr.s 			page 137


 6440 007d 9C000000 		.4byte	.LVL22
 6441 0081 0200     		.2byte	0x2
 6442 0083 30       		.byte	0x30
 6443 0084 9F       		.byte	0x9f
 6444 0085 9C000000 		.4byte	.LVL22
 6445 0089 A6000000 		.4byte	.LVL23
 6446 008d 0100     		.2byte	0x1
 6447 008f 54       		.byte	0x54
 6448 0090 00000000 		.4byte	0
 6449 0094 00000000 		.4byte	0
 6450              	.LLST4:
 6451 0098 84000000 		.4byte	.LVL17
 6452 009c AA000000 		.4byte	.LVL24
 6453 00a0 0100     		.2byte	0x1
 6454 00a2 55       		.byte	0x55
 6455 00a3 00000000 		.4byte	0
 6456 00a7 00000000 		.4byte	0
 6457              	.LLST5:
 6458 00ab 8C000000 		.4byte	.LVL18
 6459 00af 95000000 		.4byte	.LVL19-1
 6460 00b3 0700     		.2byte	0x7
 6461 00b5 74       		.byte	0x74
 6462 00b6 00       		.sleb128 0
 6463 00b7 32       		.byte	0x32
 6464 00b8 24       		.byte	0x24
 6465 00b9 75       		.byte	0x75
 6466 00ba 00       		.sleb128 0
 6467 00bb 22       		.byte	0x22
 6468 00bc 00000000 		.4byte	0
 6469 00c0 00000000 		.4byte	0
 6470              	.LLST6:
 6471 00c4 26000000 		.4byte	.LVL27
 6472 00c8 48000000 		.4byte	.LVL29
 6473 00cc 0200     		.2byte	0x2
 6474 00ce 30       		.byte	0x30
 6475 00cf 9F       		.byte	0x9f
 6476 00d0 48000000 		.4byte	.LVL29
 6477 00d4 56000000 		.4byte	.LVL32
 6478 00d8 0100     		.2byte	0x1
 6479 00da 54       		.byte	0x54
 6480 00db 56000000 		.4byte	.LVL32
 6481 00df 58000000 		.4byte	.LVL33
 6482 00e3 0200     		.2byte	0x2
 6483 00e5 30       		.byte	0x30
 6484 00e6 9F       		.byte	0x9f
 6485 00e7 58000000 		.4byte	.LVL33
 6486 00eb 62000000 		.4byte	.LVL34
 6487 00ef 0100     		.2byte	0x1
 6488 00f1 54       		.byte	0x54
 6489 00f2 00000000 		.4byte	0
 6490 00f6 00000000 		.4byte	0
 6491              	.LLST7:
 6492 00fa 3E000000 		.4byte	.LVL28
 6493 00fe 66000000 		.4byte	.LVL35
 6494 0102 0100     		.2byte	0x1
 6495 0104 55       		.byte	0x55
 6496 0105 00000000 		.4byte	0
ARM GAS  C:\Users\saman\AppData\Local\Temp\ccOAgYwr.s 			page 138


 6497 0109 00000000 		.4byte	0
 6498              	.LLST8:
 6499 010d 48000000 		.4byte	.LVL29
 6500 0111 51000000 		.4byte	.LVL30-1
 6501 0115 0700     		.2byte	0x7
 6502 0117 74       		.byte	0x74
 6503 0118 00       		.sleb128 0
 6504 0119 32       		.byte	0x32
 6505 011a 24       		.byte	0x24
 6506 011b 75       		.byte	0x75
 6507 011c 00       		.sleb128 0
 6508 011d 22       		.byte	0x22
 6509 011e 00000000 		.4byte	0
 6510 0122 00000000 		.4byte	0
 6511              	.LLST9:
 6512 0126 74000000 		.4byte	.LVL39
 6513 012a 9A000000 		.4byte	.LVL41
 6514 012e 0200     		.2byte	0x2
 6515 0130 30       		.byte	0x30
 6516 0131 9F       		.byte	0x9f
 6517 0132 9A000000 		.4byte	.LVL41
 6518 0136 A8000000 		.4byte	.LVL44
 6519 013a 0100     		.2byte	0x1
 6520 013c 54       		.byte	0x54
 6521 013d A8000000 		.4byte	.LVL44
 6522 0141 AA000000 		.4byte	.LVL45
 6523 0145 0200     		.2byte	0x2
 6524 0147 30       		.byte	0x30
 6525 0148 9F       		.byte	0x9f
 6526 0149 AA000000 		.4byte	.LVL45
 6527 014d B4000000 		.4byte	.LVL46
 6528 0151 0100     		.2byte	0x1
 6529 0153 54       		.byte	0x54
 6530 0154 00000000 		.4byte	0
 6531 0158 00000000 		.4byte	0
 6532              	.LLST10:
 6533 015c 92000000 		.4byte	.LVL40
 6534 0160 B8000000 		.4byte	.LVL47
 6535 0164 0100     		.2byte	0x1
 6536 0166 55       		.byte	0x55
 6537 0167 00000000 		.4byte	0
 6538 016b 00000000 		.4byte	0
 6539              	.LLST11:
 6540 016f 9A000000 		.4byte	.LVL41
 6541 0173 A3000000 		.4byte	.LVL42-1
 6542 0177 0700     		.2byte	0x7
 6543 0179 74       		.byte	0x74
 6544 017a 00       		.sleb128 0
 6545 017b 32       		.byte	0x32
 6546 017c 24       		.byte	0x24
 6547 017d 75       		.byte	0x75
 6548 017e 00       		.sleb128 0
 6549 017f 22       		.byte	0x22
 6550 0180 00000000 		.4byte	0
 6551 0184 00000000 		.4byte	0
 6552              	.LLST12:
 6553 0188 50000000 		.4byte	.LVL52
ARM GAS  C:\Users\saman\AppData\Local\Temp\ccOAgYwr.s 			page 139


 6554 018c 76000000 		.4byte	.LVL54
 6555 0190 0200     		.2byte	0x2
 6556 0192 30       		.byte	0x30
 6557 0193 9F       		.byte	0x9f
 6558 0194 76000000 		.4byte	.LVL54
 6559 0198 84000000 		.4byte	.LVL57
 6560 019c 0100     		.2byte	0x1
 6561 019e 54       		.byte	0x54
 6562 019f 84000000 		.4byte	.LVL57
 6563 01a3 86000000 		.4byte	.LVL58
 6564 01a7 0200     		.2byte	0x2
 6565 01a9 30       		.byte	0x30
 6566 01aa 9F       		.byte	0x9f
 6567 01ab 86000000 		.4byte	.LVL58
 6568 01af 90000000 		.4byte	.LVL59
 6569 01b3 0100     		.2byte	0x1
 6570 01b5 54       		.byte	0x54
 6571 01b6 00000000 		.4byte	0
 6572 01ba 00000000 		.4byte	0
 6573              	.LLST13:
 6574 01be 6E000000 		.4byte	.LVL53
 6575 01c2 94000000 		.4byte	.LVL60
 6576 01c6 0100     		.2byte	0x1
 6577 01c8 55       		.byte	0x55
 6578 01c9 00000000 		.4byte	0
 6579 01cd 00000000 		.4byte	0
 6580              	.LLST14:
 6581 01d1 76000000 		.4byte	.LVL54
 6582 01d5 7F000000 		.4byte	.LVL55-1
 6583 01d9 0700     		.2byte	0x7
 6584 01db 74       		.byte	0x74
 6585 01dc 00       		.sleb128 0
 6586 01dd 32       		.byte	0x32
 6587 01de 24       		.byte	0x24
 6588 01df 75       		.byte	0x75
 6589 01e0 00       		.sleb128 0
 6590 01e1 22       		.byte	0x22
 6591 01e2 00000000 		.4byte	0
 6592 01e6 00000000 		.4byte	0
 6593              	.LLST15:
 6594 01ea 54000000 		.4byte	.LVL65
 6595 01ee 7A000000 		.4byte	.LVL67
 6596 01f2 0200     		.2byte	0x2
 6597 01f4 30       		.byte	0x30
 6598 01f5 9F       		.byte	0x9f
 6599 01f6 7A000000 		.4byte	.LVL67
 6600 01fa 88000000 		.4byte	.LVL70
 6601 01fe 0100     		.2byte	0x1
 6602 0200 54       		.byte	0x54
 6603 0201 88000000 		.4byte	.LVL70
 6604 0205 8A000000 		.4byte	.LVL71
 6605 0209 0200     		.2byte	0x2
 6606 020b 30       		.byte	0x30
 6607 020c 9F       		.byte	0x9f
 6608 020d 8A000000 		.4byte	.LVL71
 6609 0211 94000000 		.4byte	.LVL72
 6610 0215 0100     		.2byte	0x1
ARM GAS  C:\Users\saman\AppData\Local\Temp\ccOAgYwr.s 			page 140


 6611 0217 54       		.byte	0x54
 6612 0218 00000000 		.4byte	0
 6613 021c 00000000 		.4byte	0
 6614              	.LLST16:
 6615 0220 72000000 		.4byte	.LVL66
 6616 0224 98000000 		.4byte	.LVL73
 6617 0228 0100     		.2byte	0x1
 6618 022a 55       		.byte	0x55
 6619 022b 00000000 		.4byte	0
 6620 022f 00000000 		.4byte	0
 6621              	.LLST17:
 6622 0233 7A000000 		.4byte	.LVL67
 6623 0237 83000000 		.4byte	.LVL68-1
 6624 023b 0700     		.2byte	0x7
 6625 023d 74       		.byte	0x74
 6626 023e 00       		.sleb128 0
 6627 023f 32       		.byte	0x32
 6628 0240 24       		.byte	0x24
 6629 0241 75       		.byte	0x75
 6630 0242 00       		.sleb128 0
 6631 0243 22       		.byte	0x22
 6632 0244 00000000 		.4byte	0
 6633 0248 00000000 		.4byte	0
 6634              	.LLST18:
 6635 024c 00000000 		.4byte	.LVL78
 6636 0250 14000000 		.4byte	.LVL81
 6637 0254 0100     		.2byte	0x1
 6638 0256 50       		.byte	0x50
 6639 0257 14000000 		.4byte	.LVL81
 6640 025b 6C010000 		.4byte	.LFE146
 6641 025f 0400     		.2byte	0x4
 6642 0261 F3       		.byte	0xf3
 6643 0262 01       		.uleb128 0x1
 6644 0263 50       		.byte	0x50
 6645 0264 9F       		.byte	0x9f
 6646 0265 00000000 		.4byte	0
 6647 0269 00000000 		.4byte	0
 6648              	.LLST19:
 6649 026d 00000000 		.4byte	.LVL78
 6650 0271 12000000 		.4byte	.LVL80
 6651 0275 0100     		.2byte	0x1
 6652 0277 51       		.byte	0x51
 6653 0278 12000000 		.4byte	.LVL80
 6654 027c 6C010000 		.4byte	.LFE146
 6655 0280 0400     		.2byte	0x4
 6656 0282 F3       		.byte	0xf3
 6657 0283 01       		.uleb128 0x1
 6658 0284 51       		.byte	0x51
 6659 0285 9F       		.byte	0x9f
 6660 0286 00000000 		.4byte	0
 6661 028a 00000000 		.4byte	0
 6662              	.LLST20:
 6663 028e 2E000000 		.4byte	.LVL84
 6664 0292 4E000000 		.4byte	.LVL87
 6665 0296 0200     		.2byte	0x2
 6666 0298 30       		.byte	0x30
 6667 0299 9F       		.byte	0x9f
ARM GAS  C:\Users\saman\AppData\Local\Temp\ccOAgYwr.s 			page 141


 6668 029a 4E000000 		.4byte	.LVL87
 6669 029e 5C000000 		.4byte	.LVL90
 6670 02a2 0100     		.2byte	0x1
 6671 02a4 54       		.byte	0x54
 6672 02a5 5C000000 		.4byte	.LVL90
 6673 02a9 5E000000 		.4byte	.LVL91
 6674 02ad 0200     		.2byte	0x2
 6675 02af 30       		.byte	0x30
 6676 02b0 9F       		.byte	0x9f
 6677 02b1 5E000000 		.4byte	.LVL91
 6678 02b5 68000000 		.4byte	.LVL92
 6679 02b9 0100     		.2byte	0x1
 6680 02bb 54       		.byte	0x54
 6681 02bc 00000000 		.4byte	0
 6682 02c0 00000000 		.4byte	0
 6683              	.LLST21:
 6684 02c4 46000000 		.4byte	.LVL86
 6685 02c8 68000000 		.4byte	.LVL92
 6686 02cc 0100     		.2byte	0x1
 6687 02ce 55       		.byte	0x55
 6688 02cf 00000000 		.4byte	0
 6689 02d3 00000000 		.4byte	0
 6690              	.LLST22:
 6691 02d7 4E000000 		.4byte	.LVL87
 6692 02db 57000000 		.4byte	.LVL88-1
 6693 02df 0700     		.2byte	0x7
 6694 02e1 74       		.byte	0x74
 6695 02e2 00       		.sleb128 0
 6696 02e3 32       		.byte	0x32
 6697 02e4 24       		.byte	0x24
 6698 02e5 75       		.byte	0x75
 6699 02e6 00       		.sleb128 0
 6700 02e7 22       		.byte	0x22
 6701 02e8 00000000 		.4byte	0
 6702 02ec 00000000 		.4byte	0
 6703              	.LLST23:
 6704 02f0 70000000 		.4byte	.LVL93
 6705 02f4 7B000000 		.4byte	.LVL94-1
 6706 02f8 0100     		.2byte	0x1
 6707 02fa 53       		.byte	0x53
 6708 02fb 00000000 		.4byte	0
 6709 02ff 00000000 		.4byte	0
 6710              	.LLST24:
 6711 0303 A6000000 		.4byte	.LVL98
 6712 0307 E6000000 		.4byte	.LVL106
 6713 030b 0200     		.2byte	0x2
 6714 030d 30       		.byte	0x30
 6715 030e 9F       		.byte	0x9f
 6716 030f 00000000 		.4byte	0
 6717 0313 00000000 		.4byte	0
 6718              	.LLST25:
 6719 0317 A6000000 		.4byte	.LVL98
 6720 031b CA000000 		.4byte	.LVL101
 6721 031f 0200     		.2byte	0x2
 6722 0321 30       		.byte	0x30
 6723 0322 9F       		.byte	0x9f
 6724 0323 CA000000 		.4byte	.LVL101
ARM GAS  C:\Users\saman\AppData\Local\Temp\ccOAgYwr.s 			page 142


 6725 0327 D8000000 		.4byte	.LVL104
 6726 032b 0100     		.2byte	0x1
 6727 032d 54       		.byte	0x54
 6728 032e D8000000 		.4byte	.LVL104
 6729 0332 DA000000 		.4byte	.LVL105
 6730 0336 0200     		.2byte	0x2
 6731 0338 30       		.byte	0x30
 6732 0339 9F       		.byte	0x9f
 6733 033a DA000000 		.4byte	.LVL105
 6734 033e E6000000 		.4byte	.LVL106
 6735 0342 0100     		.2byte	0x1
 6736 0344 54       		.byte	0x54
 6737 0345 00000000 		.4byte	0
 6738 0349 00000000 		.4byte	0
 6739              	.LLST26:
 6740 034d C0000000 		.4byte	.LVL100
 6741 0351 E6000000 		.4byte	.LVL106
 6742 0355 0100     		.2byte	0x1
 6743 0357 55       		.byte	0x55
 6744 0358 00000000 		.4byte	0
 6745 035c 00000000 		.4byte	0
 6746              	.LLST27:
 6747 0360 CA000000 		.4byte	.LVL101
 6748 0364 D3000000 		.4byte	.LVL102-1
 6749 0368 0700     		.2byte	0x7
 6750 036a 74       		.byte	0x74
 6751 036b 00       		.sleb128 0
 6752 036c 32       		.byte	0x32
 6753 036d 24       		.byte	0x24
 6754 036e 75       		.byte	0x75
 6755 036f 00       		.sleb128 0
 6756 0370 22       		.byte	0x22
 6757 0371 00000000 		.4byte	0
 6758 0375 00000000 		.4byte	0
 6759              	.LLST28:
 6760 0379 EE000000 		.4byte	.LVL107
 6761 037d F9000000 		.4byte	.LVL108-1
 6762 0381 0100     		.2byte	0x1
 6763 0383 53       		.byte	0x53
 6764 0384 00000000 		.4byte	0
 6765 0388 00000000 		.4byte	0
 6766              	.LLST29:
 6767 038c 22010000 		.4byte	.LVL112
 6768 0390 5C010000 		.4byte	.LVL120
 6769 0394 0200     		.2byte	0x2
 6770 0396 30       		.byte	0x30
 6771 0397 9F       		.byte	0x9f
 6772 0398 00000000 		.4byte	0
 6773 039c 00000000 		.4byte	0
 6774              	.LLST30:
 6775 03a0 22010000 		.4byte	.LVL112
 6776 03a4 42010000 		.4byte	.LVL115
 6777 03a8 0200     		.2byte	0x2
 6778 03aa 30       		.byte	0x30
 6779 03ab 9F       		.byte	0x9f
 6780 03ac 42010000 		.4byte	.LVL115
 6781 03b0 50010000 		.4byte	.LVL118
ARM GAS  C:\Users\saman\AppData\Local\Temp\ccOAgYwr.s 			page 143


 6782 03b4 0100     		.2byte	0x1
 6783 03b6 54       		.byte	0x54
 6784 03b7 50010000 		.4byte	.LVL118
 6785 03bb 52010000 		.4byte	.LVL119
 6786 03bf 0200     		.2byte	0x2
 6787 03c1 30       		.byte	0x30
 6788 03c2 9F       		.byte	0x9f
 6789 03c3 52010000 		.4byte	.LVL119
 6790 03c7 5C010000 		.4byte	.LVL120
 6791 03cb 0100     		.2byte	0x1
 6792 03cd 54       		.byte	0x54
 6793 03ce 00000000 		.4byte	0
 6794 03d2 00000000 		.4byte	0
 6795              	.LLST31:
 6796 03d6 3A010000 		.4byte	.LVL114
 6797 03da 5C010000 		.4byte	.LVL120
 6798 03de 0100     		.2byte	0x1
 6799 03e0 55       		.byte	0x55
 6800 03e1 00000000 		.4byte	0
 6801 03e5 00000000 		.4byte	0
 6802              	.LLST32:
 6803 03e9 42010000 		.4byte	.LVL115
 6804 03ed 4B010000 		.4byte	.LVL116-1
 6805 03f1 0700     		.2byte	0x7
 6806 03f3 74       		.byte	0x74
 6807 03f4 00       		.sleb128 0
 6808 03f5 32       		.byte	0x32
 6809 03f6 24       		.byte	0x24
 6810 03f7 75       		.byte	0x75
 6811 03f8 00       		.sleb128 0
 6812 03f9 22       		.byte	0x22
 6813 03fa 00000000 		.4byte	0
 6814 03fe 00000000 		.4byte	0
 6815              	.LLST33:
 6816 0402 26000000 		.4byte	.LVL124
 6817 0406 46000000 		.4byte	.LVL127
 6818 040a 0200     		.2byte	0x2
 6819 040c 30       		.byte	0x30
 6820 040d 9F       		.byte	0x9f
 6821 040e 46000000 		.4byte	.LVL127
 6822 0412 54000000 		.4byte	.LVL130
 6823 0416 0100     		.2byte	0x1
 6824 0418 54       		.byte	0x54
 6825 0419 54000000 		.4byte	.LVL130
 6826 041d 56000000 		.4byte	.LVL131
 6827 0421 0200     		.2byte	0x2
 6828 0423 30       		.byte	0x30
 6829 0424 9F       		.byte	0x9f
 6830 0425 56000000 		.4byte	.LVL131
 6831 0429 60000000 		.4byte	.LVL132
 6832 042d 0100     		.2byte	0x1
 6833 042f 54       		.byte	0x54
 6834 0430 00000000 		.4byte	0
 6835 0434 00000000 		.4byte	0
 6836              	.LLST34:
 6837 0438 3E000000 		.4byte	.LVL126
 6838 043c 60000000 		.4byte	.LVL132
ARM GAS  C:\Users\saman\AppData\Local\Temp\ccOAgYwr.s 			page 144


 6839 0440 0100     		.2byte	0x1
 6840 0442 55       		.byte	0x55
 6841 0443 00000000 		.4byte	0
 6842 0447 00000000 		.4byte	0
 6843              	.LLST35:
 6844 044b 46000000 		.4byte	.LVL127
 6845 044f 4F000000 		.4byte	.LVL128-1
 6846 0453 0700     		.2byte	0x7
 6847 0455 74       		.byte	0x74
 6848 0456 00       		.sleb128 0
 6849 0457 32       		.byte	0x32
 6850 0458 24       		.byte	0x24
 6851 0459 75       		.byte	0x75
 6852 045a 00       		.sleb128 0
 6853 045b 22       		.byte	0x22
 6854 045c 00000000 		.4byte	0
 6855 0460 00000000 		.4byte	0
 6856              	.LLST36:
 6857 0464 26000000 		.4byte	.LVL138
 6858 0468 46000000 		.4byte	.LVL141
 6859 046c 0200     		.2byte	0x2
 6860 046e 30       		.byte	0x30
 6861 046f 9F       		.byte	0x9f
 6862 0470 46000000 		.4byte	.LVL141
 6863 0474 54000000 		.4byte	.LVL144
 6864 0478 0100     		.2byte	0x1
 6865 047a 54       		.byte	0x54
 6866 047b 54000000 		.4byte	.LVL144
 6867 047f 56000000 		.4byte	.LVL145
 6868 0483 0200     		.2byte	0x2
 6869 0485 30       		.byte	0x30
 6870 0486 9F       		.byte	0x9f
 6871 0487 56000000 		.4byte	.LVL145
 6872 048b 60000000 		.4byte	.LVL146
 6873 048f 0100     		.2byte	0x1
 6874 0491 54       		.byte	0x54
 6875 0492 00000000 		.4byte	0
 6876 0496 00000000 		.4byte	0
 6877              	.LLST37:
 6878 049a 3E000000 		.4byte	.LVL140
 6879 049e 60000000 		.4byte	.LVL146
 6880 04a2 0100     		.2byte	0x1
 6881 04a4 55       		.byte	0x55
 6882 04a5 00000000 		.4byte	0
 6883 04a9 00000000 		.4byte	0
 6884              	.LLST38:
 6885 04ad 46000000 		.4byte	.LVL141
 6886 04b1 4F000000 		.4byte	.LVL142-1
 6887 04b5 0700     		.2byte	0x7
 6888 04b7 74       		.byte	0x74
 6889 04b8 00       		.sleb128 0
 6890 04b9 32       		.byte	0x32
 6891 04ba 24       		.byte	0x24
 6892 04bb 75       		.byte	0x75
 6893 04bc 00       		.sleb128 0
 6894 04bd 22       		.byte	0x22
 6895 04be 00000000 		.4byte	0
ARM GAS  C:\Users\saman\AppData\Local\Temp\ccOAgYwr.s 			page 145


 6896 04c2 00000000 		.4byte	0
 6897              	.LLST39:
 6898 04c6 2C000000 		.4byte	.LVL152
 6899 04ca 4C000000 		.4byte	.LVL155
 6900 04ce 0200     		.2byte	0x2
 6901 04d0 30       		.byte	0x30
 6902 04d1 9F       		.byte	0x9f
 6903 04d2 4C000000 		.4byte	.LVL155
 6904 04d6 5A000000 		.4byte	.LVL158
 6905 04da 0100     		.2byte	0x1
 6906 04dc 54       		.byte	0x54
 6907 04dd 5A000000 		.4byte	.LVL158
 6908 04e1 5C000000 		.4byte	.LVL159
 6909 04e5 0200     		.2byte	0x2
 6910 04e7 30       		.byte	0x30
 6911 04e8 9F       		.byte	0x9f
 6912 04e9 5C000000 		.4byte	.LVL159
 6913 04ed 66000000 		.4byte	.LVL160
 6914 04f1 0100     		.2byte	0x1
 6915 04f3 54       		.byte	0x54
 6916 04f4 00000000 		.4byte	0
 6917 04f8 00000000 		.4byte	0
 6918              	.LLST40:
 6919 04fc 44000000 		.4byte	.LVL154
 6920 0500 66000000 		.4byte	.LVL160
 6921 0504 0100     		.2byte	0x1
 6922 0506 55       		.byte	0x55
 6923 0507 00000000 		.4byte	0
 6924 050b 00000000 		.4byte	0
 6925              	.LLST41:
 6926 050f 4C000000 		.4byte	.LVL155
 6927 0513 55000000 		.4byte	.LVL156-1
 6928 0517 0700     		.2byte	0x7
 6929 0519 74       		.byte	0x74
 6930 051a 00       		.sleb128 0
 6931 051b 32       		.byte	0x32
 6932 051c 24       		.byte	0x24
 6933 051d 75       		.byte	0x75
 6934 051e 00       		.sleb128 0
 6935 051f 22       		.byte	0x22
 6936 0520 00000000 		.4byte	0
 6937 0524 00000000 		.4byte	0
 6938              	.LLST42:
 6939 0528 26000000 		.4byte	.LVL167
 6940 052c 46000000 		.4byte	.LVL170
 6941 0530 0200     		.2byte	0x2
 6942 0532 30       		.byte	0x30
 6943 0533 9F       		.byte	0x9f
 6944 0534 46000000 		.4byte	.LVL170
 6945 0538 54000000 		.4byte	.LVL173
 6946 053c 0100     		.2byte	0x1
 6947 053e 54       		.byte	0x54
 6948 053f 54000000 		.4byte	.LVL173
 6949 0543 56000000 		.4byte	.LVL174
 6950 0547 0200     		.2byte	0x2
 6951 0549 30       		.byte	0x30
 6952 054a 9F       		.byte	0x9f
ARM GAS  C:\Users\saman\AppData\Local\Temp\ccOAgYwr.s 			page 146


 6953 054b 56000000 		.4byte	.LVL174
 6954 054f 60000000 		.4byte	.LVL175
 6955 0553 0100     		.2byte	0x1
 6956 0555 54       		.byte	0x54
 6957 0556 00000000 		.4byte	0
 6958 055a 00000000 		.4byte	0
 6959              	.LLST43:
 6960 055e 3E000000 		.4byte	.LVL169
 6961 0562 60000000 		.4byte	.LVL175
 6962 0566 0100     		.2byte	0x1
 6963 0568 55       		.byte	0x55
 6964 0569 00000000 		.4byte	0
 6965 056d 00000000 		.4byte	0
 6966              	.LLST44:
 6967 0571 46000000 		.4byte	.LVL170
 6968 0575 4F000000 		.4byte	.LVL171-1
 6969 0579 0700     		.2byte	0x7
 6970 057b 74       		.byte	0x74
 6971 057c 00       		.sleb128 0
 6972 057d 32       		.byte	0x32
 6973 057e 24       		.byte	0x24
 6974 057f 75       		.byte	0x75
 6975 0580 00       		.sleb128 0
 6976 0581 22       		.byte	0x22
 6977 0582 00000000 		.4byte	0
 6978 0586 00000000 		.4byte	0
 6979              	.LLST45:
 6980 058a 76000000 		.4byte	.LVL183
 6981 058e A0000000 		.4byte	.LVL185
 6982 0592 0200     		.2byte	0x2
 6983 0594 30       		.byte	0x30
 6984 0595 9F       		.byte	0x9f
 6985 0596 A0000000 		.4byte	.LVL185
 6986 059a AE000000 		.4byte	.LVL188
 6987 059e 0100     		.2byte	0x1
 6988 05a0 54       		.byte	0x54
 6989 05a1 AE000000 		.4byte	.LVL188
 6990 05a5 B0000000 		.4byte	.LVL189
 6991 05a9 0200     		.2byte	0x2
 6992 05ab 30       		.byte	0x30
 6993 05ac 9F       		.byte	0x9f
 6994 05ad B0000000 		.4byte	.LVL189
 6995 05b1 BA000000 		.4byte	.LVL190
 6996 05b5 0100     		.2byte	0x1
 6997 05b7 54       		.byte	0x54
 6998 05b8 00000000 		.4byte	0
 6999 05bc 00000000 		.4byte	0
 7000              	.LLST46:
 7001 05c0 96000000 		.4byte	.LVL184
 7002 05c4 C0000000 		.4byte	.LVL191
 7003 05c8 0100     		.2byte	0x1
 7004 05ca 55       		.byte	0x55
 7005 05cb 00000000 		.4byte	0
 7006 05cf 00000000 		.4byte	0
 7007              	.LLST47:
 7008 05d3 A0000000 		.4byte	.LVL185
 7009 05d7 A9000000 		.4byte	.LVL186-1
ARM GAS  C:\Users\saman\AppData\Local\Temp\ccOAgYwr.s 			page 147


 7010 05db 0700     		.2byte	0x7
 7011 05dd 74       		.byte	0x74
 7012 05de 00       		.sleb128 0
 7013 05df 32       		.byte	0x32
 7014 05e0 24       		.byte	0x24
 7015 05e1 75       		.byte	0x75
 7016 05e2 00       		.sleb128 0
 7017 05e3 22       		.byte	0x22
 7018 05e4 00000000 		.4byte	0
 7019 05e8 00000000 		.4byte	0
 7020              	.LLST48:
 7021 05ec 00000000 		.4byte	.LVL192
 7022 05f0 06000000 		.4byte	.LVL194
 7023 05f4 0100     		.2byte	0x1
 7024 05f6 50       		.byte	0x50
 7025 05f7 06000000 		.4byte	.LVL194
 7026 05fb 10000000 		.4byte	.LFE145
 7027 05ff 0400     		.2byte	0x4
 7028 0601 F3       		.byte	0xf3
 7029 0602 01       		.uleb128 0x1
 7030 0603 50       		.byte	0x50
 7031 0604 9F       		.byte	0x9f
 7032 0605 00000000 		.4byte	0
 7033 0609 00000000 		.4byte	0
 7034              	.LLST49:
 7035 060d 02000000 		.4byte	.LVL193
 7036 0611 06000000 		.4byte	.LVL194
 7037 0615 0100     		.2byte	0x1
 7038 0617 50       		.byte	0x50
 7039 0618 06000000 		.4byte	.LVL194
 7040 061c 10000000 		.4byte	.LFE145
 7041 0620 0400     		.2byte	0x4
 7042 0622 F3       		.byte	0xf3
 7043 0623 01       		.uleb128 0x1
 7044 0624 50       		.byte	0x50
 7045 0625 9F       		.byte	0x9f
 7046 0626 00000000 		.4byte	0
 7047 062a 00000000 		.4byte	0
 7048              		.section	.debug_aranges,"",%progbits
 7049 0000 B4000000 		.4byte	0xb4
 7050 0004 0200     		.2byte	0x2
 7051 0006 00000000 		.4byte	.Ldebug_info0
 7052 000a 04       		.byte	0x4
 7053 000b 00       		.byte	0
 7054 000c 0000     		.2byte	0
 7055 000e 0000     		.2byte	0
 7056 0010 00000000 		.4byte	.LFB158
 7057 0014 8C000000 		.4byte	.LFE158-.LFB158
 7058 0018 00000000 		.4byte	.LFB159
 7059 001c B4000000 		.4byte	.LFE159-.LFB159
 7060 0020 00000000 		.4byte	.LFB160
 7061 0024 6C000000 		.4byte	.LFE160-.LFB160
 7062 0028 00000000 		.4byte	.LFB161
 7063 002c C4000000 		.4byte	.LFE161-.LFB161
 7064 0030 00000000 		.4byte	.LFB148
 7065 0034 08000000 		.4byte	.LFE148-.LFB148
 7066 0038 00000000 		.4byte	.LFB162
ARM GAS  C:\Users\saman\AppData\Local\Temp\ccOAgYwr.s 			page 148


 7067 003c 9C000000 		.4byte	.LFE162-.LFB162
 7068 0040 00000000 		.4byte	.LFB163
 7069 0044 A0000000 		.4byte	.LFE163-.LFB163
 7070 0048 00000000 		.4byte	.LFB157
 7071 004c 2C000000 		.4byte	.LFE157-.LFB157
 7072 0050 00000000 		.4byte	.LFB146
 7073 0054 6C010000 		.4byte	.LFE146-.LFB146
 7074 0058 00000000 		.4byte	.LFB147
 7075 005c 70000000 		.4byte	.LFE147-.LFB147
 7076 0060 00000000 		.4byte	.LFB152
 7077 0064 0C000000 		.4byte	.LFE152-.LFB152
 7078 0068 00000000 		.4byte	.LFB151
 7079 006c 70000000 		.4byte	.LFE151-.LFB151
 7080 0070 00000000 		.4byte	.LFB150
 7081 0074 0C000000 		.4byte	.LFE150-.LFB150
 7082 0078 00000000 		.4byte	.LFB149
 7083 007c 80000000 		.4byte	.LFE149-.LFB149
 7084 0080 00000000 		.4byte	.LFB156
 7085 0084 0C000000 		.4byte	.LFE156-.LFB156
 7086 0088 00000000 		.4byte	.LFB155
 7087 008c 70000000 		.4byte	.LFE155-.LFB155
 7088 0090 00000000 		.4byte	.LFB154
 7089 0094 0C000000 		.4byte	.LFE154-.LFB154
 7090 0098 00000000 		.4byte	.LFB153
 7091 009c 0C000000 		.4byte	.LFE153-.LFB153
 7092 00a0 00000000 		.4byte	.LFB144
 7093 00a4 C8000000 		.4byte	.LFE144-.LFB144
 7094 00a8 00000000 		.4byte	.LFB145
 7095 00ac 10000000 		.4byte	.LFE145-.LFB145
 7096 00b0 00000000 		.4byte	0
 7097 00b4 00000000 		.4byte	0
 7098              		.section	.debug_ranges,"",%progbits
 7099              	.Ldebug_ranges0:
 7100 0000 00000000 		.4byte	.LFB158
 7101 0004 8C000000 		.4byte	.LFE158
 7102 0008 00000000 		.4byte	.LFB159
 7103 000c B4000000 		.4byte	.LFE159
 7104 0010 00000000 		.4byte	.LFB160
 7105 0014 6C000000 		.4byte	.LFE160
 7106 0018 00000000 		.4byte	.LFB161
 7107 001c C4000000 		.4byte	.LFE161
 7108 0020 00000000 		.4byte	.LFB148
 7109 0024 08000000 		.4byte	.LFE148
 7110 0028 00000000 		.4byte	.LFB162
 7111 002c 9C000000 		.4byte	.LFE162
 7112 0030 00000000 		.4byte	.LFB163
 7113 0034 A0000000 		.4byte	.LFE163
 7114 0038 00000000 		.4byte	.LFB157
 7115 003c 2C000000 		.4byte	.LFE157
 7116 0040 00000000 		.4byte	.LFB146
 7117 0044 6C010000 		.4byte	.LFE146
 7118 0048 00000000 		.4byte	.LFB147
 7119 004c 70000000 		.4byte	.LFE147
 7120 0050 00000000 		.4byte	.LFB152
 7121 0054 0C000000 		.4byte	.LFE152
 7122 0058 00000000 		.4byte	.LFB151
 7123 005c 70000000 		.4byte	.LFE151
ARM GAS  C:\Users\saman\AppData\Local\Temp\ccOAgYwr.s 			page 149


 7124 0060 00000000 		.4byte	.LFB150
 7125 0064 0C000000 		.4byte	.LFE150
 7126 0068 00000000 		.4byte	.LFB149
 7127 006c 80000000 		.4byte	.LFE149
 7128 0070 00000000 		.4byte	.LFB156
 7129 0074 0C000000 		.4byte	.LFE156
 7130 0078 00000000 		.4byte	.LFB155
 7131 007c 70000000 		.4byte	.LFE155
 7132 0080 00000000 		.4byte	.LFB154
 7133 0084 0C000000 		.4byte	.LFE154
 7134 0088 00000000 		.4byte	.LFB153
 7135 008c 0C000000 		.4byte	.LFE153
 7136 0090 00000000 		.4byte	.LFB144
 7137 0094 C8000000 		.4byte	.LFE144
 7138 0098 00000000 		.4byte	.LFB145
 7139 009c 10000000 		.4byte	.LFE145
 7140 00a0 00000000 		.4byte	0
 7141 00a4 00000000 		.4byte	0
 7142              		.section	.debug_line,"",%progbits
 7143              	.Ldebug_line0:
 7144 0000 C0060000 		.section	.debug_str,"MS",%progbits,1
 7144      02008303 
 7144      00000201 
 7144      FB0E0D00 
 7144      01010101 
 7145              	.LASF87:
 7146 0000 434C4F43 		.ascii	"CLOCK_Active_Widget_t\000"
 7146      4B5F4163 
 7146      74697665 
 7146      5F576964 
 7146      6765745F 
 7147              	.LASF70:
 7148 0016 45565F4B 		.ascii	"EV_KEYLEFT\000"
 7148      45594C45 
 7148      465400
 7149              	.LASF123:
 7150 0021 434C4F43 		.ascii	"CLOCK_widget_t\000"
 7150      4B5F7769 
 7150      64676574 
 7150      5F7400
 7151              	.LASF105:
 7152 0030 66726F6D 		.ascii	"fromState\000"
 7152      53746174 
 7152      6500
 7153              	.LASF159:
 7154 003a 7265736F 		.ascii	"resource\000"
 7154      75726365 
 7154      00
 7155              	.LASF38:
 7156 0043 52435F45 		.ascii	"RC_ERROR_INVALID_STATE\000"
 7156      52524F52 
 7156      5F494E56 
 7156      414C4944 
 7156      5F535441 
 7157              	.LASF54:
 7158 005a 4D414745 		.ascii	"MAGENTA\000"
 7158      4E544100 
ARM GAS  C:\Users\saman\AppData\Local\Temp\ccOAgYwr.s 			page 150


 7159              	.LASF44:
 7160 0062 73697A65 		.ascii	"size_t\000"
 7160      5F7400
 7161              	.LASF223:
 7162 0069 53544154 		.ascii	"STATE_CLOCK_C_ISEDITINGHOURS_Transitions\000"
 7162      455F434C 
 7162      4F434B5F 
 7162      435F4953 
 7162      45444954 
 7163              	.LASF177:
 7164 0092 70546173 		.ascii	"pTaskArray\000"
 7164      6B417272 
 7164      617900
 7165              	.LASF52:
 7166 009d 47524544 		.ascii	"GRED\000"
 7166      00
 7167              	.LASF222:
 7168 00a2 53544154 		.ascii	"STATE_CLOCK_C_ISDISPLAYING_Transitions\000"
 7168      455F434C 
 7168      4F434B5F 
 7168      435F4953 
 7168      44495350 
 7169              	.LASF137:
 7170 00c9 5265736F 		.ascii	"ResourceType\000"
 7170      75726365 
 7170      54797065 
 7170      00
 7171              	.LASF194:
 7172 00d6 6C6F6361 		.ascii	"localstate\000"
 7172      6C737461 
 7172      746500
 7173              	.LASF41:
 7174 00e1 52435F74 		.ascii	"RC_t\000"
 7174      00
 7175              	.LASF30:
 7176 00e6 52435F45 		.ascii	"RC_ERROR_WRITE_ONLY\000"
 7176      52524F52 
 7176      5F575249 
 7176      54455F4F 
 7176      4E4C5900 
 7177              	.LASF238:
 7178 00fa 50726F63 		.ascii	"ProcessEvent\000"
 7178      65737345 
 7178      76656E74 
 7178      00
 7179              	.LASF100:
 7180 0107 746F5374 		.ascii	"toState\000"
 7180      61746500 
 7181              	.LASF118:
 7182 010f 6D5F7769 		.ascii	"m_widgetState\000"
 7182      64676574 
 7182      53746174 
 7182      6500
 7183              	.LASF192:
 7184 011d 434C4F43 		.ascii	"CLOCK__incrementMinuteandDisplay\000"
 7184      4B5F5F69 
 7184      6E637265 
ARM GAS  C:\Users\saman\AppData\Local\Temp\ccOAgYwr.s 			page 151


 7184      6D656E74 
 7184      4D696E75 
 7185              	.LASF179:
 7186 013e 5254455F 		.ascii	"RTE_SC_CONTROL_set\000"
 7186      53435F43 
 7186      4F4E5452 
 7186      4F4C5F73 
 7186      657400
 7187              	.LASF205:
 7188 0151 434C4F43 		.ascii	"CLOCK_Container_Transitions\000"
 7188      4B5F436F 
 7188      6E746169 
 7188      6E65725F 
 7188      5472616E 
 7189              	.LASF119:
 7190 016d 6D5F7472 		.ascii	"m_transitions\000"
 7190      616E7369 
 7190      74696F6E 
 7190      7300
 7191              	.LASF230:
 7192 017b 45455F6F 		.ascii	"EE_oo_SetEvent\000"
 7192      6F5F5365 
 7192      74457665 
 7192      6E7400
 7193              	.LASF36:
 7194 018a 52435F45 		.ascii	"RC_ERROR_BAD_DATA\000"
 7194      52524F52 
 7194      5F424144 
 7194      5F444154 
 7194      4100
 7195              	.LASF26:
 7196 019c 52435F45 		.ascii	"RC_ERROR_TIME_OUT\000"
 7196      52524F52 
 7196      5F54494D 
 7196      455F4F55 
 7196      5400
 7197              	.LASF198:
 7198 01ae 434C4F43 		.ascii	"CLOCK__dispatch_KR_Hours\000"
 7198      4B5F5F64 
 7198      69737061 
 7198      7463685F 
 7198      4B525F48 
 7199              	.LASF76:
 7200 01c7 434C4F43 		.ascii	"CLOCK_C_ISDISPLAYING\000"
 7200      4B5F435F 
 7200      49534449 
 7200      53504C41 
 7200      59494E47 
 7201              	.LASF213:
 7202 01dc 45455F6F 		.ascii	"EE_oo_IRQ_disable_count\000"
 7202      6F5F4952 
 7202      515F6469 
 7202      7361626C 
 7202      655F636F 
 7203              	.LASF84:
 7204 01f4 434C4F43 		.ascii	"CLOCK_HOURWIDGET\000"
 7204      4B5F484F 
ARM GAS  C:\Users\saman\AppData\Local\Temp\ccOAgYwr.s 			page 152


 7204      55525749 
 7204      44474554 
 7204      00
 7205              	.LASF218:
 7206 0205 49544D5F 		.ascii	"ITM_RxBuffer\000"
 7206      52784275 
 7206      66666572 
 7206      00
 7207              	.LASF48:
 7208 0212 57484954 		.ascii	"WHITE\000"
 7208      4500
 7209              	.LASF68:
 7210 0218 5446545F 		.ascii	"TFT_colors_t\000"
 7210      636F6C6F 
 7210      72735F74 
 7210      00
 7211              	.LASF189:
 7212 0225 74696D65 		.ascii	"time\000"
 7212      00
 7213              	.LASF139:
 7214 022a 5254455F 		.ascii	"RTE_SIGNALSTATUS_INITIALIZED\000"
 7214      5349474E 
 7214      414C5354 
 7214      41545553 
 7214      5F494E49 
 7215              	.LASF193:
 7216 0247 434C4F43 		.ascii	"CLOCK__incrementWidget\000"
 7216      4B5F5F69 
 7216      6E637265 
 7216      6D656E74 
 7216      57696467 
 7217              	.LASF11:
 7218 025e 6C6F6E67 		.ascii	"long long int\000"
 7218      206C6F6E 
 7218      6720696E 
 7218      7400
 7219              	.LASF0:
 7220 026c 7369676E 		.ascii	"signed char\000"
 7220      65642063 
 7220      68617200 
 7221              	.LASF196:
 7222 0278 434C4F43 		.ascii	"CLOCK__dispatch_250MS_Hours\000"
 7222      4B5F5F64 
 7222      69737061 
 7222      7463685F 
 7222      3235304D 
 7223              	.LASF152:
 7224 0294 65764F6E 		.ascii	"evOnUpdate\000"
 7224      55706461 
 7224      746500
 7225              	.LASF187:
 7226 029f 434C4F43 		.ascii	"CLOCK__updateDisplay\000"
 7226      4B5F5F75 
 7226      70646174 
 7226      65446973 
 7226      706C6179 
 7227              	.LASF106:
ARM GAS  C:\Users\saman\AppData\Local\Temp\ccOAgYwr.s 			page 153


 7228 02b4 70496E6E 		.ascii	"pInnerTransitionTable\000"
 7228      65725472 
 7228      616E7369 
 7228      74696F6E 
 7228      5461626C 
 7229              	.LASF61:
 7230 02ca 4441524B 		.ascii	"DARKBLUE\000"
 7230      424C5545 
 7230      00
 7231              	.LASF225:
 7232 02d3 53544154 		.ascii	"STATE_CLOCK_W_ISDISPLAYING_Transitions\000"
 7232      455F434C 
 7232      4F434B5F 
 7232      575F4953 
 7232      44495350 
 7233              	.LASF183:
 7234 02fa 434C4F43 		.ascii	"CLOCK__setDisplayFonts\000"
 7234      4B5F5F73 
 7234      65744469 
 7234      73706C61 
 7234      79466F6E 
 7235              	.LASF24:
 7236 0311 52435F45 		.ascii	"RC_ERROR_BUFFER_EMTPY\000"
 7236      52524F52 
 7236      5F425546 
 7236      4645525F 
 7236      454D5450 
 7237              	.LASF108:
 7238 0327 73746174 		.ascii	"state\000"
 7238      6500
 7239              	.LASF98:
 7240 032d 53544154 		.ascii	"STATE_GuardPtr_t\000"
 7240      455F4775 
 7240      61726450 
 7240      74725F74 
 7240      00
 7241              	.LASF6:
 7242 033e 6C6F6E67 		.ascii	"long int\000"
 7242      20696E74 
 7242      00
 7243              	.LASF114:
 7244 0347 6D5F6163 		.ascii	"m_actionTable\000"
 7244      74696F6E 
 7244      5461626C 
 7244      6500
 7245              	.LASF224:
 7246 0355 53544154 		.ascii	"STATE_CLOCK_C_ISEDITINGMINUTES_Transitions\000"
 7246      455F434C 
 7246      4F434B5F 
 7246      435F4953 
 7246      45444954 
 7247              	.LASF77:
 7248 0380 434C4F43 		.ascii	"CLOCK_C_ISEDITINGHOURS\000"
 7248      4B5F435F 
 7248      49534544 
 7248      4954494E 
 7248      47484F55 
ARM GAS  C:\Users\saman\AppData\Local\Temp\ccOAgYwr.s 			page 154


 7249              	.LASF58:
 7250 0397 42524F57 		.ascii	"BROWN\000"
 7250      4E00
 7251              	.LASF239:
 7252 039d 6D656D63 		.ascii	"memcpy\000"
 7252      707900
 7253              	.LASF110:
 7254 03a4 61637469 		.ascii	"actionExit\000"
 7254      6F6E4578 
 7254      697400
 7255              	.LASF57:
 7256 03af 59454C4C 		.ascii	"YELLOW\000"
 7256      4F5700
 7257              	.LASF232:
 7258 03b6 53544154 		.ascii	"STATE_initState\000"
 7258      455F696E 
 7258      69745374 
 7258      61746500 
 7259              	.LASF27:
 7260 03c6 52435F45 		.ascii	"RC_ERROR_OPEN\000"
 7260      52524F52 
 7260      5F4F5045 
 7260      4E00
 7261              	.LASF73:
 7262 03d4 45565F32 		.ascii	"EV_250MS\000"
 7262      35304D53 
 7262      00
 7263              	.LASF10:
 7264 03dd 646F7562 		.ascii	"double\000"
 7264      6C6500
 7265              	.LASF173:
 7266 03e4 53435F43 		.ascii	"SC_CONTROL_s\000"
 7266      4F4E5452 
 7266      4F4C5F73 
 7266      00
 7267              	.LASF121:
 7268 03f1 6D5F7661 		.ascii	"m_value\000"
 7268      6C756500 
 7269              	.LASF221:
 7270 03f9 62756666 		.ascii	"buffer\000"
 7270      657200
 7271              	.LASF92:
 7272 0400 795F706F 		.ascii	"y_pos\000"
 7272      7300
 7273              	.LASF140:
 7274 0406 5254455F 		.ascii	"RTE_SIGNALSTATUS_VALID\000"
 7274      5349474E 
 7274      414C5354 
 7274      41545553 
 7274      5F56414C 
 7275              	.LASF96:
 7276 041d 434C4F43 		.ascii	"CLOCK_display_t\000"
 7276      4B5F6469 
 7276      73706C61 
 7276      795F7400 
 7277              	.LASF5:
 7278 042d 73686F72 		.ascii	"short unsigned int\000"
ARM GAS  C:\Users\saman\AppData\Local\Temp\ccOAgYwr.s 			page 155


 7278      7420756E 
 7278      7369676E 
 7278      65642069 
 7278      6E7400
 7279              	.LASF154:
 7280 0440 6F6E5570 		.ascii	"onUpdateTaskCount\000"
 7280      64617465 
 7280      5461736B 
 7280      436F756E 
 7280      7400
 7281              	.LASF216:
 7282 0452 45455F73 		.ascii	"EE_std_endcycle_next_tid\000"
 7282      74645F65 
 7282      6E646379 
 7282      636C655F 
 7282      6E657874 
 7283              	.LASF185:
 7284 046b 636F6E74 		.ascii	"control\000"
 7284      726F6C00 
 7285              	.LASF71:
 7286 0473 45565F4B 		.ascii	"EV_KEYRIGHT\000"
 7286      45595249 
 7286      47485400 
 7287              	.LASF59:
 7288 047f 42525245 		.ascii	"BRRED\000"
 7288      4400
 7289              	.LASF65:
 7290 0485 4C475241 		.ascii	"LGRAY\000"
 7290      5900
 7291              	.LASF199:
 7292 048b 434C4F43 		.ascii	"CLOCK__dispatch_KL_HoursMin\000"
 7292      4B5F5F64 
 7292      69737061 
 7292      7463685F 
 7292      4B4C5F48 
 7293              	.LASF166:
 7294 04a7 686F7572 		.ascii	"hour\000"
 7294      00
 7295              	.LASF91:
 7296 04ac 785F706F 		.ascii	"x_pos\000"
 7296      7300
 7297              	.LASF133:
 7298 04b2 45455F54 		.ascii	"EE_TID\000"
 7298      494400
 7299              	.LASF95:
 7300 04b9 76616C75 		.ascii	"value\000"
 7300      6500
 7301              	.LASF231:
 7302 04bf 53544154 		.ascii	"STATE_processEvent\000"
 7302      455F7072 
 7302      6F636573 
 7302      73457665 
 7302      6E7400
 7303              	.LASF43:
 7304 04d2 756E7369 		.ascii	"unsigned int\000"
 7304      676E6564 
 7304      20696E74 
ARM GAS  C:\Users\saman\AppData\Local\Temp\ccOAgYwr.s 			page 156


 7304      00
 7305              	.LASF74:
 7306 04df 45565F31 		.ascii	"EV_1MIN\000"
 7306      4D494E00 
 7307              	.LASF4:
 7308 04e7 75696E74 		.ascii	"uint16_t\000"
 7308      31365F74 
 7308      00
 7309              	.LASF39:
 7310 04f0 52435F45 		.ascii	"RC_ERROR_UNKNOWN\000"
 7310      52524F52 
 7310      5F554E4B 
 7310      4E4F574E 
 7310      00
 7311              	.LASF131:
 7312 0501 45455F55 		.ascii	"EE_UREG\000"
 7312      52454700 
 7313              	.LASF151:
 7314 0509 6F757444 		.ascii	"outDriver\000"
 7314      72697665 
 7314      7200
 7315              	.LASF28:
 7316 0513 52435F45 		.ascii	"RC_ERROR_CHECKSUM\000"
 7316      52524F52 
 7316      5F434845 
 7316      434B5355 
 7316      4D00
 7317              	.LASF8:
 7318 0525 6C6F6E67 		.ascii	"long unsigned int\000"
 7318      20756E73 
 7318      69676E65 
 7318      6420696E 
 7318      7400
 7319              	.LASF17:
 7320 0537 52435F45 		.ascii	"RC_ERROR_NULL\000"
 7320      52524F52 
 7320      5F4E554C 
 7320      4C00
 7321              	.LASF212:
 7322 0545 434C4F43 		.ascii	"CLOCK_Widget_Actions_size\000"
 7322      4B5F5769 
 7322      64676574 
 7322      5F416374 
 7322      696F6E73 
 7323              	.LASF15:
 7324 055f 52435F53 		.ascii	"RC_SUCCESS\000"
 7324      55434345 
 7324      535300
 7325              	.LASF81:
 7326 056a 434C4F43 		.ascii	"CLOCK_W_ISAUTOINCREMENT\000"
 7326      4B5F575F 
 7326      49534155 
 7326      544F494E 
 7326      4352454D 
 7327              	.LASF236:
 7328 0582 434C4F43 		.ascii	"CLOCK__dispatch_Wrapper\000"
 7328      4B5F5F64 
ARM GAS  C:\Users\saman\AppData\Local\Temp\ccOAgYwr.s 			page 157


 7328      69737061 
 7328      7463685F 
 7328      57726170 
 7329              	.LASF148:
 7330 059a 53435F49 		.ascii	"SC_INPUT_driverIn_t\000"
 7330      4E505554 
 7330      5F647269 
 7330      76657249 
 7330      6E5F7400 
 7331              	.LASF53:
 7332 05ae 47424C55 		.ascii	"GBLUE\000"
 7332      4500
 7333              	.LASF12:
 7334 05b4 6C6F6E67 		.ascii	"long long unsigned int\000"
 7334      206C6F6E 
 7334      6720756E 
 7334      7369676E 
 7334      65642069 
 7335              	.LASF99:
 7336 05cb 6576656E 		.ascii	"event\000"
 7336      7400
 7337              	.LASF88:
 7338 05d1 73697A65 		.ascii	"size\000"
 7338      00
 7339              	.LASF134:
 7340 05d6 5461736B 		.ascii	"TaskType\000"
 7340      54797065 
 7340      00
 7341              	.LASF16:
 7342 05df 52435F45 		.ascii	"RC_ERROR\000"
 7342      52524F52 
 7342      00
 7343              	.LASF23:
 7344 05e8 52435F45 		.ascii	"RC_ERROR_BUFFER_FULL\000"
 7344      52524F52 
 7344      5F425546 
 7344      4645525F 
 7344      46554C4C 
 7345              	.LASF204:
 7346 05fd 6C6F6361 		.ascii	"local_event\000"
 7346      6C5F6576 
 7346      656E7400 
 7347              	.LASF209:
 7348 0609 434C4F43 		.ascii	"CLOCK_Widget_Transitions\000"
 7348      4B5F5769 
 7348      64676574 
 7348      5F547261 
 7348      6E736974 
 7349              	.LASF67:
 7350 0622 4C42424C 		.ascii	"LBBLUE\000"
 7350      554500
 7351              	.LASF109:
 7352 0629 61637469 		.ascii	"actionEntry\000"
 7352      6F6E456E 
 7352      74727900 
 7353              	.LASF86:
 7354 0635 4E4F4E45 		.ascii	"NONE\000"
ARM GAS  C:\Users\saman\AppData\Local\Temp\ccOAgYwr.s 			page 158


 7354      00
 7355              	.LASF66:
 7356 063a 4C475241 		.ascii	"LGRAYBLUE\000"
 7356      59424C55 
 7356      4500
 7357              	.LASF33:
 7358 0644 52435F45 		.ascii	"RC_ERROR_WRITE_FAILS\000"
 7358      52524F52 
 7358      5F575249 
 7358      54455F46 
 7358      41494C53 
 7359              	.LASF83:
 7360 0659 53544154 		.ascii	"STATE_event_t\000"
 7360      455F6576 
 7360      656E745F 
 7360      7400
 7361              	.LASF138:
 7362 0667 5254455F 		.ascii	"RTE_SIGNALSTATUS_STARTUP\000"
 7362      5349474E 
 7362      414C5354 
 7362      41545553 
 7362      5F535441 
 7363              	.LASF35:
 7364 0680 52435F45 		.ascii	"RC_ERROR_BAD_PARAM\000"
 7364      52524F52 
 7364      5F424144 
 7364      5F504152 
 7364      414D00
 7365              	.LASF113:
 7366 0693 6D5F7472 		.ascii	"m_transitionTableSize\000"
 7366      616E7369 
 7366      74696F6E 
 7366      5461626C 
 7366      6553697A 
 7367              	.LASF122:
 7368 06a9 6D5F666F 		.ascii	"m_font\000"
 7368      6E7400
 7369              	.LASF62:
 7370 06b0 4C494748 		.ascii	"LIGHTBLUE\000"
 7370      54424C55 
 7370      4500
 7371              	.LASF85:
 7372 06ba 434C4F43 		.ascii	"CLOCK_MINWIDGET\000"
 7372      4B5F4D49 
 7372      4E574944 
 7372      47455400 
 7373              	.LASF111:
 7374 06ca 53544154 		.ascii	"STATE_stateAction_t\000"
 7374      455F7374 
 7374      61746541 
 7374      6374696F 
 7374      6E5F7400 
 7375              	.LASF220:
 7376 06de 534F5F43 		.ascii	"SO_CONTROL_signal\000"
 7376      4F4E5452 
 7376      4F4C5F73 
 7376      69676E61 
ARM GAS  C:\Users\saman\AppData\Local\Temp\ccOAgYwr.s 			page 159


 7376      6C00
 7377              	.LASF19:
 7378 06f0 52435F45 		.ascii	"RC_ERROR_MEMORY\000"
 7378      52524F52 
 7378      5F4D454D 
 7378      4F525900 
 7379              	.LASF112:
 7380 0700 6D5F7472 		.ascii	"m_transitionTable\000"
 7380      616E7369 
 7380      74696F6E 
 7380      5461626C 
 7380      6500
 7381              	.LASF75:
 7382 0712 4556454E 		.ascii	"EVENT_t\000"
 7382      545F7400 
 7383              	.LASF46:
 7384 071a 73697A65 		.ascii	"sizetype\000"
 7384      74797065 
 7384      00
 7385              	.LASF200:
 7386 0723 434C4F43 		.ascii	"CLOCK__dispatch_250MS_Min\000"
 7386      4B5F5F64 
 7386      69737061 
 7386      7463685F 
 7386      3235304D 
 7387              	.LASF45:
 7388 073d 6C6F6E67 		.ascii	"long double\000"
 7388      20646F75 
 7388      626C6500 
 7389              	.LASF13:
 7390 0749 626F6F6C 		.ascii	"boolean_t\000"
 7390      65616E5F 
 7390      7400
 7391              	.LASF103:
 7392 0753 53544154 		.ascii	"STATE_stateInnerTransition_t\000"
 7392      455F7374 
 7392      61746549 
 7392      6E6E6572 
 7392      5472616E 
 7393              	.LASF214:
 7394 0770 45455F6F 		.ascii	"EE_oo_IRQ_suspend_status\000"
 7394      6F5F4952 
 7394      515F7375 
 7394      7370656E 
 7394      645F7374 
 7395              	.LASF235:
 7396 0789 443A5C68 		.ascii	"D:\\h_da\\sem2\\eaa\\lab2\\lab2\\my\\assignment2\\E"
 7396      5F64615C 
 7396      73656D32 
 7396      5C656161 
 7396      5C6C6162 
 7397 07b4 436C6F63 		.ascii	"Clock.cydsn\000"
 7397      6B2E6379 
 7397      64736E00 
 7398              	.LASF202:
 7399 07c0 434C4F43 		.ascii	"CLOCK__dispatch_KR_Min\000"
 7399      4B5F5F64 
ARM GAS  C:\Users\saman\AppData\Local\Temp\ccOAgYwr.s 			page 160


 7399      69737061 
 7399      7463685F 
 7399      4B525F4D 
 7400              	.LASF107:
 7401 07d7 53544154 		.ascii	"STATE_stateOuterTransition_t\000"
 7401      455F7374 
 7401      6174654F 
 7401      75746572 
 7401      5472616E 
 7402              	.LASF94:
 7403 07f4 666F6E74 		.ascii	"font_type\000"
 7403      5F747970 
 7403      6500
 7404              	.LASF215:
 7405 07fe 45455F41 		.ascii	"EE_ApplicationMode\000"
 7405      70706C69 
 7405      63617469 
 7405      6F6E4D6F 
 7405      646500
 7406              	.LASF37:
 7407 0811 52435F45 		.ascii	"RC_ERROR_CANCELED\000"
 7407      52524F52 
 7407      5F43414E 
 7407      43454C45 
 7407      4400
 7408              	.LASF60:
 7409 0823 47524159 		.ascii	"GRAY\000"
 7409      00
 7410              	.LASF22:
 7411 0828 52435F45 		.ascii	"RC_ERROR_UNDERRUN\000"
 7411      52524F52 
 7411      5F554E44 
 7411      45525255 
 7411      4E00
 7412              	.LASF32:
 7413 083a 52435F45 		.ascii	"RC_ERROR_READ_FAILS\000"
 7413      52524F52 
 7413      5F524541 
 7413      445F4641 
 7413      494C5300 
 7414              	.LASF171:
 7415 084e 53435F43 		.ascii	"SC_CONTROL_cfg_s\000"
 7415      4F4E5452 
 7415      4F4C5F63 
 7415      66675F73 
 7415      00
 7416              	.LASF172:
 7417 085f 53435F43 		.ascii	"SC_CONTROL_cfg_t\000"
 7417      4F4E5452 
 7417      4F4C5F63 
 7417      66675F74 
 7417      00
 7418              	.LASF170:
 7419 0870 53435F43 		.ascii	"SC_CONTROL_driverOut_t\000"
 7419      4F4E5452 
 7419      4F4C5F64 
 7419      72697665 
ARM GAS  C:\Users\saman\AppData\Local\Temp\ccOAgYwr.s 			page 161


 7419      724F7574 
 7420              	.LASF228:
 7421 0887 636F6E74 		.ascii	"containerFSM\000"
 7421      61696E65 
 7421      7246534D 
 7421      00
 7422              	.LASF207:
 7423 0894 434C4F43 		.ascii	"CLOCK_Container_Actions\000"
 7423      4B5F436F 
 7423      6E746169 
 7423      6E65725F 
 7423      41637469 
 7424              	.LASF162:
 7425 08ac 53435F49 		.ascii	"SC_INPUT_s\000"
 7425      4E505554 
 7425      5F7300
 7426              	.LASF165:
 7427 08b7 53435F49 		.ascii	"SC_INPUT_t\000"
 7427      4E505554 
 7427      5F7400
 7428              	.LASF18:
 7429 08c2 52435F45 		.ascii	"RC_ERROR_ZERO\000"
 7429      52524F52 
 7429      5F5A4552 
 7429      4F00
 7430              	.LASF143:
 7431 08d0 42757474 		.ascii	"Button_L_Status\000"
 7431      6F6E5F4C 
 7431      5F537461 
 7431      74757300 
 7432              	.LASF51:
 7433 08e0 42524544 		.ascii	"BRED\000"
 7433      00
 7434              	.LASF146:
 7435 08e5 6D5F636C 		.ascii	"m_clock_data\000"
 7435      6F636B5F 
 7435      64617461 
 7435      00
 7436              	.LASF164:
 7437 08f2 70536967 		.ascii	"pSigCfg\000"
 7437      43666700 
 7438              	.LASF206:
 7439 08fa 434C4F43 		.ascii	"CLOCK_Container_Transitions_size\000"
 7439      4B5F436F 
 7439      6E746169 
 7439      6E65725F 
 7439      5472616E 
 7440              	.LASF168:
 7441 091b 53435F43 		.ascii	"SC_CONTROL_data_t\000"
 7441      4F4E5452 
 7441      4F4C5F64 
 7441      6174615F 
 7441      7400
 7442              	.LASF227:
 7443 092d 53544154 		.ascii	"STATE_CLOCK_W_ISAUTOINCREMENT_Transitions\000"
 7443      455F434C 
 7443      4F434B5F 
ARM GAS  C:\Users\saman\AppData\Local\Temp\ccOAgYwr.s 			page 162


 7443      575F4953 
 7443      4155544F 
 7444              	.LASF25:
 7445 0957 52435F45 		.ascii	"RC_ERROR_BUSY\000"
 7445      52524F52 
 7445      5F425553 
 7445      5900
 7446              	.LASF156:
 7447 0965 6F6E4572 		.ascii	"onErrorTaskCount\000"
 7447      726F7254 
 7447      61736B43 
 7447      6F756E74 
 7447      00
 7448              	.LASF120:
 7449 0976 6D5F7374 		.ascii	"m_stateActions\000"
 7449      61746541 
 7449      6374696F 
 7449      6E7300
 7450              	.LASF93:
 7451 0985 434C4F43 		.ascii	"CLOCK_font_t\000"
 7451      4B5F666F 
 7451      6E745F74 
 7451      00
 7452              	.LASF47:
 7453 0992 696E7433 		.ascii	"int32_t\000"
 7453      325F7400 
 7454              	.LASF1:
 7455 099a 756E7369 		.ascii	"unsigned char\000"
 7455      676E6564 
 7455      20636861 
 7455      7200
 7456              	.LASF219:
 7457 09a8 534F5F49 		.ascii	"SO_INPUT_signal\000"
 7457      4E505554 
 7457      5F736967 
 7457      6E616C00 
 7458              	.LASF80:
 7459 09b8 434C4F43 		.ascii	"CLOCK_W_ISEDITING\000"
 7459      4B5F575F 
 7459      49534544 
 7459      4954494E 
 7459      4700
 7460              	.LASF104:
 7461 09ca 53544154 		.ascii	"STATE_stateInnerTransitionTable_t\000"
 7461      455F7374 
 7461      61746549 
 7461      6E6E6572 
 7461      5472616E 
 7462              	.LASF226:
 7463 09ec 53544154 		.ascii	"STATE_CLOCK_W_ISEDITING_Transitions\000"
 7463      455F434C 
 7463      4F434B5F 
 7463      575F4953 
 7463      45444954 
 7464              	.LASF150:
 7465 0a10 696E4472 		.ascii	"inDriver\000"
 7465      69766572 
ARM GAS  C:\Users\saman\AppData\Local\Temp\ccOAgYwr.s 			page 163


 7465      00
 7466              	.LASF90:
 7467 0a19 77696467 		.ascii	"widget\000"
 7467      657400
 7468              	.LASF237:
 7469 0a20 73746174 		.ascii	"statemachine_init\000"
 7469      656D6163 
 7469      68696E65 
 7469      5F696E69 
 7469      7400
 7470              	.LASF78:
 7471 0a32 434C4F43 		.ascii	"CLOCK_C_ISEDITINGMINUTES\000"
 7471      4B5F435F 
 7471      49534544 
 7471      4954494E 
 7471      474D494E 
 7472              	.LASF128:
 7473 0a4b 434C4F43 		.ascii	"CLOCK_data_t\000"
 7473      4B5F6461 
 7473      74615F74 
 7473      00
 7474              	.LASF161:
 7475 0a58 53435F49 		.ascii	"SC_INPUT_cfg_s\000"
 7475      4E505554 
 7475      5F636667 
 7475      5F7300
 7476              	.LASF160:
 7477 0a67 53435F49 		.ascii	"SC_INPUT_cfg_t\000"
 7477      4E505554 
 7477      5F636667 
 7477      5F7400
 7478              	.LASF155:
 7479 0a76 6F6E5570 		.ascii	"onUpdateTasks\000"
 7479      64617465 
 7479      5461736B 
 7479      7300
 7480              	.LASF147:
 7481 0a84 53435F49 		.ascii	"SC_INPUT_data_t\000"
 7481      4E505554 
 7481      5F646174 
 7481      615F7400 
 7482              	.LASF233:
 7483 0a94 474E5520 		.ascii	"GNU C11 5.4.1 20160609 (release) [ARM/embedded-5-br"
 7483      43313120 
 7483      352E342E 
 7483      31203230 
 7483      31363036 
 7484 0ac7 616E6368 		.ascii	"anch revision 237715] -mcpu=cortex-m3 -mthumb -g -O"
 7484      20726576 
 7484      6973696F 
 7484      6E203233 
 7484      37373135 
 7485 0afa 67202D66 		.ascii	"g -ffunction-sections -ffat-lto-objects\000"
 7485      66756E63 
 7485      74696F6E 
 7485      2D736563 
 7485      74696F6E 
ARM GAS  C:\Users\saman\AppData\Local\Temp\ccOAgYwr.s 			page 164


 7486              	.LASF180:
 7487 0b22 5254455F 		.ascii	"RTE_SC_CONTROL_get\000"
 7487      53435F43 
 7487      4F4E5452 
 7487      4F4C5F67 
 7487      657400
 7488              	.LASF153:
 7489 0b35 65764F6E 		.ascii	"evOnError\000"
 7489      4572726F 
 7489      7200
 7490              	.LASF56:
 7491 0b3f 4359414E 		.ascii	"CYAN\000"
 7491      00
 7492              	.LASF186:
 7493 0b44 696E7075 		.ascii	"input\000"
 7493      7400
 7494              	.LASF34:
 7495 0b4a 52435F45 		.ascii	"RC_ERROR_NOT_MATCH\000"
 7495      52524F52 
 7495      5F4E4F54 
 7495      5F4D4154 
 7495      434800
 7496              	.LASF182:
 7497 0b5d 5254455F 		.ascii	"RTE_SC_INPUT_set\000"
 7497      53435F49 
 7497      4E505554 
 7497      5F736574 
 7497      00
 7498              	.LASF7:
 7499 0b6e 75696E74 		.ascii	"uint32_t\000"
 7499      33325F74 
 7499      00
 7500              	.LASF175:
 7501 0b77 7369676E 		.ascii	"signal\000"
 7501      616C00
 7502              	.LASF29:
 7503 0b7e 52435F45 		.ascii	"RC_ERROR_READ_ONLY\000"
 7503      52524F52 
 7503      5F524541 
 7503      445F4F4E 
 7503      4C5900
 7504              	.LASF116:
 7505 0b91 6D5F7374 		.ascii	"m_state\000"
 7505      61746500 
 7506              	.LASF9:
 7507 0b99 666C6F61 		.ascii	"float\000"
 7507      7400
 7508              	.LASF203:
 7509 0b9f 434C4F43 		.ascii	"CLOCK__dispatch_KL_Min\000"
 7509      4B5F5F64 
 7509      69737061 
 7509      7463685F 
 7509      4B4C5F4D 
 7510              	.LASF14:
 7511 0bb6 63686172 		.ascii	"char\000"
 7511      00
 7512              	.LASF42:
ARM GAS  C:\Users\saman\AppData\Local\Temp\ccOAgYwr.s 			page 165


 7513 0bbb 5F5F696E 		.ascii	"__int32_t\000"
 7513      7433325F 
 7513      7400
 7514              	.LASF49:
 7515 0bc5 424C4143 		.ascii	"BLACK\000"
 7515      4B00
 7516              	.LASF229:
 7517 0bcb 77696467 		.ascii	"widgetFSM\000"
 7517      65744653 
 7517      4D00
 7518              	.LASF144:
 7519 0bd5 42757474 		.ascii	"Button_R_Status\000"
 7519      6F6E5F52 
 7519      5F537461 
 7519      74757300 
 7520              	.LASF158:
 7521 0be5 7265736F 		.ascii	"resourceActive\000"
 7521      75726365 
 7521      41637469 
 7521      766500
 7522              	.LASF50:
 7523 0bf4 424C5545 		.ascii	"BLUE\000"
 7523      00
 7524              	.LASF2:
 7525 0bf9 73686F72 		.ascii	"short int\000"
 7525      7420696E 
 7525      7400
 7526              	.LASF125:
 7527 0c03 6D5F6163 		.ascii	"m_activeWidget\000"
 7527      74697665 
 7527      57696467 
 7527      657400
 7528              	.LASF55:
 7529 0c12 47524545 		.ascii	"GREEN\000"
 7529      4E00
 7530              	.LASF201:
 7531 0c18 434C4F43 		.ascii	"CLOCK__dispatch_KRLP_Min\000"
 7531      4B5F5F64 
 7531      69737061 
 7531      7463685F 
 7531      4B524C50 
 7532              	.LASF40:
 7533 0c31 52435F45 		.ascii	"RC_ERROR_NOT_IMPLEMENTED\000"
 7533      52524F52 
 7533      5F4E4F54 
 7533      5F494D50 
 7533      4C454D45 
 7534              	.LASF69:
 7535 0c4a 45565F4E 		.ascii	"EV_NONE\000"
 7535      4F4E4500 
 7536              	.LASF21:
 7537 0c52 52435F45 		.ascii	"RC_ERROR_OVERRUN\000"
 7537      52524F52 
 7537      5F4F5645 
 7537      5252554E 
 7537      00
 7538              	.LASF178:
ARM GAS  C:\Users\saman\AppData\Local\Temp\ccOAgYwr.s 			page 166


 7539 0c63 7461736B 		.ascii	"task\000"
 7539      00
 7540              	.LASF64:
 7541 0c68 4C494748 		.ascii	"LIGHTGREEN\000"
 7541      54475245 
 7541      454E00
 7542              	.LASF142:
 7543 0c73 5254455F 		.ascii	"RTE_signalStatus_t\000"
 7543      7369676E 
 7543      616C5374 
 7543      61747573 
 7543      5F7400
 7544              	.LASF145:
 7545 0c86 6D5F6576 		.ascii	"m_ev\000"
 7545      00
 7546              	.LASF31:
 7547 0c8b 52435F45 		.ascii	"RC_ERROR_INVALID\000"
 7547      52524F52 
 7547      5F494E56 
 7547      414C4944 
 7547      00
 7548              	.LASF149:
 7549 0c9c 53435F49 		.ascii	"SC_INPUT_driverOut_t\000"
 7549      4E505554 
 7549      5F647269 
 7549      7665724F 
 7549      75745F74 
 7550              	.LASF188:
 7551 0cb1 434C4F43 		.ascii	"CLOCK__updateTime\000"
 7551      4B5F5F75 
 7551      70646174 
 7551      6554696D 
 7551      6500
 7552              	.LASF79:
 7553 0cc3 434C4F43 		.ascii	"CLOCK_W_ISDISPLAYING\000"
 7553      4B5F575F 
 7553      49534449 
 7553      53504C41 
 7553      59494E47 
 7554              	.LASF115:
 7555 0cd8 6D5F6163 		.ascii	"m_actionTableSize\000"
 7555      74696F6E 
 7555      5461626C 
 7555      6553697A 
 7555      6500
 7556              	.LASF136:
 7557 0cea 5461736B 		.ascii	"TaskTypeArray\000"
 7557      54797065 
 7557      41727261 
 7557      7900
 7558              	.LASF102:
 7559 0cf8 61637469 		.ascii	"actionTransition\000"
 7559      6F6E5472 
 7559      616E7369 
 7559      74696F6E 
 7559      00
 7560              	.LASF176:
ARM GAS  C:\Users\saman\AppData\Local\Temp\ccOAgYwr.s 			page 167


 7561 0d09 7461736B 		.ascii	"taskNum\000"
 7561      4E756D00 
 7562              	.LASF234:
 7563 0d11 736F7572 		.ascii	"source\\asw\\clock.c\000"
 7563      63655C61 
 7563      73775C63 
 7563      6C6F636B 
 7563      2E6300
 7564              	.LASF174:
 7565 0d24 53435F43 		.ascii	"SC_CONTROL_t\000"
 7565      4F4E5452 
 7565      4F4C5F74 
 7565      00
 7566              	.LASF184:
 7567 0d31 434C4F43 		.ascii	"CLOCK__setEditFonts\000"
 7567      4B5F5F73 
 7567      65744564 
 7567      6974466F 
 7567      6E747300 
 7568              	.LASF167:
 7569 0d45 6D696E75 		.ascii	"minute\000"
 7569      746500
 7570              	.LASF127:
 7571 0d4c 6D5F6D69 		.ascii	"m_minutes\000"
 7571      6E757465 
 7571      7300
 7572              	.LASF169:
 7573 0d56 53435F43 		.ascii	"SC_CONTROL_driverIn_t\000"
 7573      4F4E5452 
 7573      4F4C5F64 
 7573      72697665 
 7573      72496E5F 
 7574              	.LASF141:
 7575 0d6c 5254455F 		.ascii	"RTE_SIGNALSTATUS_INVALID\000"
 7575      5349474E 
 7575      414C5354 
 7575      41545553 
 7575      5F494E56 
 7576              	.LASF163:
 7577 0d85 73746174 		.ascii	"status\000"
 7577      757300
 7578              	.LASF89:
 7579 0d8c 62675F63 		.ascii	"bg_colour\000"
 7579      6F6C6F75 
 7579      7200
 7580              	.LASF217:
 7581 0d96 45455F49 		.ascii	"EE_IRQ_nesting_level\000"
 7581      52515F6E 
 7581      65737469 
 7581      6E675F6C 
 7581      6576656C 
 7582              	.LASF130:
 7583 0dab 45455F55 		.ascii	"EE_UINT32\000"
 7583      494E5433 
 7583      3200
 7584              	.LASF211:
 7585 0db5 434C4F43 		.ascii	"CLOCK_Widget_Actions\000"
ARM GAS  C:\Users\saman\AppData\Local\Temp\ccOAgYwr.s 			page 168


 7585      4B5F5769 
 7585      64676574 
 7585      5F416374 
 7585      696F6E73 
 7586              	.LASF20:
 7587 0dca 52435F45 		.ascii	"RC_ERROR_RANGE\000"
 7587      52524F52 
 7587      5F52414E 
 7587      474500
 7588              	.LASF129:
 7589 0dd9 45455F49 		.ascii	"EE_INT32\000"
 7589      4E543332 
 7589      00
 7590              	.LASF3:
 7591 0de2 75696E74 		.ascii	"uint8_t\000"
 7591      385F7400 
 7592              	.LASF181:
 7593 0dea 5254455F 		.ascii	"RTE_SC_INPUT_get\000"
 7593      53435F49 
 7593      4E505554 
 7593      5F676574 
 7593      00
 7594              	.LASF126:
 7595 0dfb 6D5F686F 		.ascii	"m_hours\000"
 7595      75727300 
 7596              	.LASF191:
 7597 0e03 434C4F43 		.ascii	"CLOCK__incrementHourandDisplay\000"
 7597      4B5F5F69 
 7597      6E637265 
 7597      6D656E74 
 7597      486F7572 
 7598              	.LASF124:
 7599 0e22 6D5F636F 		.ascii	"m_containerState\000"
 7599      6E746169 
 7599      6E657253 
 7599      74617465 
 7599      00
 7600              	.LASF82:
 7601 0e33 434C4F43 		.ascii	"CLOCK_state_t\000"
 7601      4B5F7374 
 7601      6174655F 
 7601      7400
 7602              	.LASF190:
 7603 0e41 434C4F43 		.ascii	"CLOCK__increment1Minute\000"
 7603      4B5F5F69 
 7603      6E637265 
 7603      6D656E74 
 7603      314D696E 
 7604              	.LASF72:
 7605 0e59 45565F4B 		.ascii	"EV_KEYRIGHTLONGPRESS\000"
 7605      45595249 
 7605      4748544C 
 7605      4F4E4750 
 7605      52455353 
 7606              	.LASF63:
 7607 0e6e 47524159 		.ascii	"GRAYBLUE\000"
 7607      424C5545 
ARM GAS  C:\Users\saman\AppData\Local\Temp\ccOAgYwr.s 			page 169


 7607      00
 7608              	.LASF195:
 7609 0e77 434C4F43 		.ascii	"CLOCK__dispatch_KL_Hours\000"
 7609      4B5F5F64 
 7609      69737061 
 7609      7463685F 
 7609      4B4C5F48 
 7610              	.LASF210:
 7611 0e90 434C4F43 		.ascii	"CLOCK_Widget_Transitions_size\000"
 7611      4B5F5769 
 7611      64676574 
 7611      5F547261 
 7611      6E736974 
 7612              	.LASF101:
 7613 0eae 67756172 		.ascii	"guard\000"
 7613      6400
 7614              	.LASF135:
 7615 0eb4 4576656E 		.ascii	"EventMaskType\000"
 7615      744D6173 
 7615      6B547970 
 7615      6500
 7616              	.LASF197:
 7617 0ec2 434C4F43 		.ascii	"CLOCK__dispatch_KRLP_Hours\000"
 7617      4B5F5F64 
 7617      69737061 
 7617      7463685F 
 7617      4B524C50 
 7618              	.LASF157:
 7619 0edd 6F6E4572 		.ascii	"onErrorTasks\000"
 7619      726F7254 
 7619      61736B73 
 7619      00
 7620              	.LASF97:
 7621 0eea 53544154 		.ascii	"STATE_ActionPtr_t\000"
 7621      455F4163 
 7621      74696F6E 
 7621      5074725F 
 7621      7400
 7622              	.LASF132:
 7623 0efc 45455F46 		.ascii	"EE_FREG\000"
 7623      52454700 
 7624              	.LASF208:
 7625 0f04 434C4F43 		.ascii	"CLOCK_Container_Actions_size\000"
 7625      4B5F436F 
 7625      6E746169 
 7625      6E65725F 
 7625      41637469 
 7626              	.LASF117:
 7627 0f21 53544154 		.ascii	"STATE_t\000"
 7627      455F7400 
 7628              		.ident	"GCC: (GNU Tools for ARM Embedded Processors) 5.4.1 20160609 (release) [ARM/embedded-5-bran
