ARM GAS  C:\Users\saman\AppData\Local\Temp\ccOAgYwr.s 			page 1


   1              		.syntax unified
   2              		.cpu cortex-m3
   3              		.fpu softvfp
   4              		.eabi_attribute 20, 1
   5              		.eabi_attribute 21, 1
   6              		.eabi_attribute 23, 3
   7              		.eabi_attribute 24, 1
   8              		.eabi_attribute 25, 1
   9              		.eabi_attribute 26, 1
  10              		.eabi_attribute 30, 1
  11              		.eabi_attribute 34, 1
  12              		.eabi_attribute 18, 4
  13              		.thumb
  14              		.syntax unified
  15              		.file	"clock.c"
  16              		.text
  17              	.Ltext0:
  18              		.cfi_sections	.debug_frame
  19              		.section	.text.CLOCK__setDisplayFonts,"ax",%progbits
  20              		.align	2
  21              		.thumb
  22              		.thumb_func
  23              		.type	CLOCK__setDisplayFonts, %function
  24              	CLOCK__setDisplayFonts:
  25              	.LFB158:
  26              		.file 1 "source\\asw\\clock.c"
   1:source\asw/clock.c **** /* ========================================
   2:source\asw/clock.c ****  *
   3:source\asw/clock.c ****  * Copyright YOUR COMPANY, THE YEAR
   4:source\asw/clock.c ****  * All Rights Reserved
   5:source\asw/clock.c ****  * UNPUBLISHED, LICENSED SOFTWARE.
   6:source\asw/clock.c ****  *
   7:source\asw/clock.c ****  * CONFIDENTIAL AND PROPRIETARY INFORMATION
   8:source\asw/clock.c ****  * WHICH IS THE PROPERTY OF your company.
   9:source\asw/clock.c ****  *
  10:source\asw/clock.c ****  * ========================================
  11:source\asw/clock.c **** */
  12:source\asw/clock.c **** 
  13:source\asw/clock.c **** #include "clock.h"
  14:source\asw/clock.c **** #include "sp_common.h"
  15:source\asw/clock.c **** #include "stdlib.h"
  16:source\asw/clock.c **** 
  17:source\asw/clock.c **** char buffer[100];
  18:source\asw/clock.c **** /** ---------------------------- Actions ---------------------------------- **/
  19:source\asw/clock.c **** 
  20:source\asw/clock.c **** static void CLOCK__dispatch_Wrapper(EVENT_t ev, CLOCK_Active_Widget_t widget);
  21:source\asw/clock.c **** static void CLOCK__dispatch_KL_Hours();
  22:source\asw/clock.c **** static void CLOCK__increment1Minute();
  23:source\asw/clock.c **** static void CLOCK__dispatch_KL_HoursMin();
  24:source\asw/clock.c **** static void CLOCK__dispatch_KR_Hours();
  25:source\asw/clock.c **** static void CLOCK__dispatch_KRLP_Hours();
  26:source\asw/clock.c **** static void CLOCK__dispatch_250MS_Hours();
  27:source\asw/clock.c **** static void CLOCK__dispatch_KL_Min();
  28:source\asw/clock.c **** static void CLOCK__dispatch_KR_Min();
  29:source\asw/clock.c **** static void CLOCK__dispatch_KRLP_Min();
  30:source\asw/clock.c **** static void CLOCK__dispatch_250MS_Min();
  31:source\asw/clock.c **** static void CLOCK__setEditFonts();
ARM GAS  C:\Users\saman\AppData\Local\Temp\ccOAgYwr.s 			page 2


  32:source\asw/clock.c **** static void CLOCK__incrementWidget();
  33:source\asw/clock.c **** static void CLOCK__setDisplayFonts();
  34:source\asw/clock.c **** static void CLOCK__updateDisplay();
  35:source\asw/clock.c **** static void CLOCK__updateTime();
  36:source\asw/clock.c **** static void CLOCK__incrementHourandDisplay();
  37:source\asw/clock.c **** static void CLOCK__incrementMinuteandDisplay();
  38:source\asw/clock.c **** 
  39:source\asw/clock.c **** /** ---------------------------- Actions ---------------------------------- **/
  40:source\asw/clock.c **** 
  41:source\asw/clock.c **** 
  42:source\asw/clock.c **** /** ------------------------------------- Transitions Table Start ---------------------------------
  43:source\asw/clock.c **** 
  44:source\asw/clock.c **** /**============================== Container ================================ **/
  45:source\asw/clock.c **** 
  46:source\asw/clock.c **** /** ========= CLOCK_C_ISDISPLAYING ========== **/
  47:source\asw/clock.c **** const STATE_stateInnerTransition_t STATE_CLOCK_C_ISDISPLAYING_Transitions[] = 
  48:source\asw/clock.c **** {
  49:source\asw/clock.c ****     /*  Event               ToState                         Guard           Action                 
  50:source\asw/clock.c ****     {   EV_KEYLEFT,         CLOCK_C_ISEDITINGHOURS,         0,              CLOCK__dispatch_KL_Hour
  51:source\asw/clock.c ****     {   EV_1MIN,            CLOCK_C_ISDISPLAYING,           0,              CLOCK__increment1Minute
  52:source\asw/clock.c **** };
  53:source\asw/clock.c **** 
  54:source\asw/clock.c **** /** ========= CLOCK_C_ISEDITINGHOURS ========== **/
  55:source\asw/clock.c **** const STATE_stateInnerTransition_t STATE_CLOCK_C_ISEDITINGHOURS_Transitions[] = 
  56:source\asw/clock.c **** {
  57:source\asw/clock.c ****     /*  Event                       ToState                           Guard           Action       
  58:source\asw/clock.c ****     {   EV_KEYLEFT,                 CLOCK_C_ISEDITINGMINUTES,         0,              CLOCK__dispat
  59:source\asw/clock.c ****     {   EV_KEYRIGHT,                CLOCK_C_ISEDITINGHOURS,           0,              CLOCK__dispat
  60:source\asw/clock.c ****     {   EV_KEYRIGHTLONGPRESS,       CLOCK_C_ISEDITINGHOURS,           0,              CLOCK__dispat
  61:source\asw/clock.c ****     {   EV_250MS,                   CLOCK_C_ISEDITINGHOURS,           0,              CLOCK__dispat
  62:source\asw/clock.c **** };
  63:source\asw/clock.c **** 
  64:source\asw/clock.c **** /** ========= CLOCK_C_ISEDITINGMINUTES ========== **/
  65:source\asw/clock.c **** const STATE_stateInnerTransition_t STATE_CLOCK_C_ISEDITINGMINUTES_Transitions[] = 
  66:source\asw/clock.c **** {
  67:source\asw/clock.c ****     /*  Event                       ToState                         Guard           Action         
  68:source\asw/clock.c ****     {   EV_KEYLEFT,                 CLOCK_C_ISDISPLAYING,           0,              CLOCK__dispatch
  69:source\asw/clock.c ****     {   EV_KEYRIGHT,                CLOCK_C_ISEDITINGMINUTES,       0,              CLOCK__dispatch
  70:source\asw/clock.c ****     {   EV_KEYRIGHTLONGPRESS,       CLOCK_C_ISEDITINGMINUTES,       0,              CLOCK__dispatch
  71:source\asw/clock.c ****     {   EV_250MS,                   CLOCK_C_ISEDITINGMINUTES,       0,              CLOCK__dispatch
  72:source\asw/clock.c **** };
  73:source\asw/clock.c **** 
  74:source\asw/clock.c **** static const STATE_stateOuterTransitionTable_t CLOCK_Container_Transitions = 
  75:source\asw/clock.c **** {
  76:source\asw/clock.c ****     /*  fromState                     Pointer to table                                        Size 
  77:source\asw/clock.c ****     {   CLOCK_C_ISDISPLAYING,         &STATE_CLOCK_C_ISDISPLAYING_Transitions,                sizeo
  78:source\asw/clock.c ****     {   CLOCK_C_ISEDITINGHOURS,       &STATE_CLOCK_C_ISEDITINGHOURS_Transitions,              sizeo
  79:source\asw/clock.c ****     {   CLOCK_C_ISEDITINGMINUTES,     &STATE_CLOCK_C_ISEDITINGMINUTES_Transitions,            sizeo
  80:source\asw/clock.c **** };
  81:source\asw/clock.c **** static const uint16_t CLOCK_Container_Transitions_size = sizeof(CLOCK_Container_Transitions)/sizeof
  82:source\asw/clock.c **** 
  83:source\asw/clock.c **** /** ============= Container Action ============== **/
  84:source\asw/clock.c **** static const STATE_stateActionTable_t CLOCK_Container_Actions = 
  85:source\asw/clock.c **** {
  86:source\asw/clock.c ****     /*  fromState                   actionEntry                   actionExit          */
  87:source\asw/clock.c ****     {   CLOCK_C_ISDISPLAYING,       CLOCK__updateDisplay,         0                   },
  88:source\asw/clock.c **** };
ARM GAS  C:\Users\saman\AppData\Local\Temp\ccOAgYwr.s 			page 3


  89:source\asw/clock.c **** static const uint16_t CLOCK_Container_Actions_size = sizeof(CLOCK_Container_Actions)/sizeof(STATE_s
  90:source\asw/clock.c **** 
  91:source\asw/clock.c **** /**============================== WIDGET ================================ **/
  92:source\asw/clock.c **** 
  93:source\asw/clock.c **** /** ========= CLOCK_W_ISDISPLAYING =========== **/
  94:source\asw/clock.c **** const STATE_stateInnerTransition_t STATE_CLOCK_W_ISDISPLAYING_Transitions[] = 
  95:source\asw/clock.c **** {
  96:source\asw/clock.c ****     /*  Event               ToState                    Guard           Action                  */
  97:source\asw/clock.c ****     {   EV_KEYLEFT,         CLOCK_W_ISEDITING,         0,              CLOCK__setEditFonts     },
  98:source\asw/clock.c **** };
  99:source\asw/clock.c **** 
 100:source\asw/clock.c **** /** ========= CLOCK_W_ISEDITING ============== **/
 101:source\asw/clock.c **** const STATE_stateInnerTransition_t STATE_CLOCK_W_ISEDITING_Transitions[] = 
 102:source\asw/clock.c **** {
 103:source\asw/clock.c ****     /*  Event                       ToState                         Guard           Action         
 104:source\asw/clock.c ****     {   EV_KEYRIGHT,                CLOCK_W_ISEDITING,              0,              CLOCK__incremen
 105:source\asw/clock.c ****     {   EV_KEYRIGHTLONGPRESS,       CLOCK_W_ISAUTOINCREMENT,        0,              0              
 106:source\asw/clock.c ****     {   EV_KEYLEFT,                 CLOCK_W_ISDISPLAYING,           0,              CLOCK__setDispl
 107:source\asw/clock.c **** };
 108:source\asw/clock.c **** 
 109:source\asw/clock.c **** /** ========= CLOCK_W_ISAUTOINCREMENT ========== **/
 110:source\asw/clock.c **** const STATE_stateInnerTransition_t STATE_CLOCK_W_ISAUTOINCREMENT_Transitions[] = 
 111:source\asw/clock.c **** {
 112:source\asw/clock.c ****     /*  Event                       ToState                         Guard           Action         
 113:source\asw/clock.c ****     {   EV_KEYRIGHT,                CLOCK_W_ISEDITING,              0,              CLOCK__incremen
 114:source\asw/clock.c ****     {   EV_250MS,                   CLOCK_W_ISAUTOINCREMENT,        0,              CLOCK__incremen
 115:source\asw/clock.c ****     {   EV_KEYLEFT,                 CLOCK_W_ISEDITING,              0,              CLOCK__setDispl
 116:source\asw/clock.c **** };
 117:source\asw/clock.c **** 
 118:source\asw/clock.c **** static const STATE_stateOuterTransitionTable_t CLOCK_Widget_Transitions = 
 119:source\asw/clock.c **** {
 120:source\asw/clock.c ****     /*  fromState                   Pointer to table                                Size of table [
 121:source\asw/clock.c ****     {   CLOCK_W_ISDISPLAYING,       &STATE_CLOCK_W_ISDISPLAYING_Transitions,        sizeof(STATE_CL
 122:source\asw/clock.c ****     {   CLOCK_W_ISEDITING,          &STATE_CLOCK_W_ISEDITING_Transitions,           sizeof(STATE_CL
 123:source\asw/clock.c ****     {   CLOCK_W_ISAUTOINCREMENT,    &STATE_CLOCK_W_ISAUTOINCREMENT_Transitions,     sizeof(STATE_CL
 124:source\asw/clock.c **** };
 125:source\asw/clock.c **** static const uint16_t CLOCK_Widget_Transitions_size = sizeof(CLOCK_Widget_Transitions)/sizeof(STATE
 126:source\asw/clock.c **** 
 127:source\asw/clock.c **** /** ============= Widget Action ============== **/
 128:source\asw/clock.c **** static const STATE_stateActionTable_t CLOCK_Widget_Actions = 
 129:source\asw/clock.c **** {
 130:source\asw/clock.c ****     /*  fromState                   actionEntry                  actionExit          */
 131:source\asw/clock.c ****     {   CLOCK_W_ISDISPLAYING,       CLOCK__updateDisplay,        0                   },
 132:source\asw/clock.c ****     {   CLOCK_W_ISEDITING,          CLOCK__updateDisplay,        0                   },
 133:source\asw/clock.c ****     {   CLOCK_W_ISAUTOINCREMENT,    CLOCK__updateDisplay,        0                   },
 134:source\asw/clock.c **** };
 135:source\asw/clock.c **** static const uint16_t CLOCK_Widget_Actions_size = sizeof(CLOCK_Widget_Actions)/sizeof(STATE_stateAc
 136:source\asw/clock.c **** 
 137:source\asw/clock.c **** /** ------------------------------------- Transitions Table End -----------------------------------
 138:source\asw/clock.c **** STATE_t containerFSM = {
 139:source\asw/clock.c ****     &CLOCK_Container_Transitions, 
 140:source\asw/clock.c ****     sizeof(CLOCK_Container_Transitions)/sizeof(STATE_stateOuterTransition_t), 
 141:source\asw/clock.c ****     &CLOCK_Container_Actions, 
 142:source\asw/clock.c ****     sizeof(CLOCK_Container_Actions)/sizeof(STATE_stateAction_t),
 143:source\asw/clock.c ****     CLOCK_C_ISDISPLAYING
 144:source\asw/clock.c **** };
 145:source\asw/clock.c **** 
ARM GAS  C:\Users\saman\AppData\Local\Temp\ccOAgYwr.s 			page 4


 146:source\asw/clock.c **** STATE_t widgetFSM = {
 147:source\asw/clock.c ****         &CLOCK_Widget_Transitions,
 148:source\asw/clock.c ****         sizeof(CLOCK_Widget_Transitions)/sizeof(STATE_stateOuterTransition_t),
 149:source\asw/clock.c ****         &CLOCK_Widget_Actions,
 150:source\asw/clock.c ****         sizeof(CLOCK_Widget_Actions)/sizeof(STATE_stateAction_t),
 151:source\asw/clock.c ****         CLOCK_W_ISDISPLAYING
 152:source\asw/clock.c **** };
 153:source\asw/clock.c **** 
 154:source\asw/clock.c **** void statemachine_init()
 155:source\asw/clock.c **** {   
 156:source\asw/clock.c ****     //UART_LOG_PutString("statemachine_init");
 157:source\asw/clock.c ****     SC_CONTROL_data_t control = SC_CONTROL_INIT_DATA;
 158:source\asw/clock.c ****     containerFSM.m_state = CLOCK_C_ISDISPLAYING;
 159:source\asw/clock.c ****     
 160:source\asw/clock.c ****     control = RTE_SC_CONTROL_get(&SO_CONTROL_signal);
 161:source\asw/clock.c ****     
 162:source\asw/clock.c ****     control.hour.font_type.size = 4;
 163:source\asw/clock.c ****     control.minute.font_type.size = 4;
 164:source\asw/clock.c ****     
 165:source\asw/clock.c ****     control.hour.font_type.x_pos = 10;
 166:source\asw/clock.c ****     control.hour.font_type.y_pos = 60;
 167:source\asw/clock.c ****     
 168:source\asw/clock.c ****     control.minute.font_type.x_pos = 75;
 169:source\asw/clock.c ****     control.minute.font_type.y_pos = 60;
 170:source\asw/clock.c ****     
 171:source\asw/clock.c ****     control.hour.font_type.bg_colour = BLACK;
 172:source\asw/clock.c ****     control.minute.font_type.bg_colour = BLACK;
 173:source\asw/clock.c ****     
 174:source\asw/clock.c ****     control.hour.font_type.widget = WHITE;
 175:source\asw/clock.c ****     control.minute.font_type.widget = WHITE;
 176:source\asw/clock.c ****     
 177:source\asw/clock.c ****     containerFSM.m_state = CLOCK_C_ISDISPLAYING;
 178:source\asw/clock.c ****     STATE_initState(&containerFSM);
 179:source\asw/clock.c ****     
 180:source\asw/clock.c ****     STATE_initState(&containerFSM);
 181:source\asw/clock.c ****     RTE_SC_CONTROL_set(&SO_CONTROL_signal, control);
 182:source\asw/clock.c **** }
 183:source\asw/clock.c **** void ProcessEvent(STATE_event_t event)
 184:source\asw/clock.c **** {
 185:source\asw/clock.c ****     SC_INPUT_data_t input;
 186:source\asw/clock.c ****     
 187:source\asw/clock.c ****     STATE_event_t local_event = event;
 188:source\asw/clock.c ****     STATE_processEvent(&containerFSM,local_event);
 189:source\asw/clock.c ****     
 190:source\asw/clock.c ****     input = RTE_SC_INPUT_get(&SO_INPUT_signal);
 191:source\asw/clock.c ****     input.m_clock_data.m_containerState = containerFSM.m_state;
 192:source\asw/clock.c ****     
 193:source\asw/clock.c ****     /*char buffer[100];
 194:source\asw/clock.c ****     UART_LOG_PutString("ProcessEvent: container state post process: ");
 195:source\asw/clock.c ****     itoa(containerFSM.m_state, buffer, 10);
 196:source\asw/clock.c ****     UART_LOG_PutString(buffer);
 197:source\asw/clock.c ****     UART_LOG_PutString("\n");
 198:source\asw/clock.c ****     
 199:source\asw/clock.c ****     UART_LOG_PutString("ProcessEvent: hr state: ");
 200:source\asw/clock.c ****     itoa(containerFSM.m_state, buffer, 10);
 201:source\asw/clock.c ****     UART_LOG_PutString(buffer);
 202:source\asw/clock.c ****     UART_LOG_PutString("\n");
ARM GAS  C:\Users\saman\AppData\Local\Temp\ccOAgYwr.s 			page 5


 203:source\asw/clock.c ****     
 204:source\asw/clock.c ****     UART_LOG_PutString("ProcessEvent: min state: ");
 205:source\asw/clock.c ****     itoa(containerFSM.m_state, buffer, 10);
 206:source\asw/clock.c ****     UART_LOG_PutString(buffer);
 207:source\asw/clock.c ****     UART_LOG_PutString("\n");*/
 208:source\asw/clock.c **** }
 209:source\asw/clock.c **** 
 210:source\asw/clock.c **** void CLOCK__dispatch_Wrapper(EVENT_t ev, CLOCK_Active_Widget_t widget)
 211:source\asw/clock.c **** {
 212:source\asw/clock.c ****     SC_INPUT_data_t input = RTE_SC_INPUT_get(&SO_INPUT_signal);
 213:source\asw/clock.c ****     
 214:source\asw/clock.c ****     //UART_LOG_PutString("CLOCK__dispatch_Wrapper active widget: ");
 215:source\asw/clock.c ****     /*
 216:source\asw/clock.c ****     itoa(input.m_ev, buffer, 10);
 217:source\asw/clock.c ****     UART_LOG_PutString(buffer);
 218:source\asw/clock.c ****     UART_LOG_PutString("\n");
 219:source\asw/clock.c ****     */
 220:source\asw/clock.c ****     
 221:source\asw/clock.c ****     //to clear prev event
 222:source\asw/clock.c ****     input.m_ev = EV_NONE;
 223:source\asw/clock.c ****     //UART_LOG_PutString("CLOCK__dispatch_Wrapper active widget: ");
 224:source\asw/clock.c ****     input.m_clock_data.m_activeWidget = widget;
 225:source\asw/clock.c ****     
 226:source\asw/clock.c ****     RTE_SC_INPUT_set(&SO_INPUT_signal, input);
 227:source\asw/clock.c ****     
 228:source\asw/clock.c ****     /*
 229:source\asw/clock.c ****     itoa(input.m_clock_data.m_activeWidget, buffer, 10);
 230:source\asw/clock.c ****     UART_LOG_PutString(buffer);
 231:source\asw/clock.c ****     UART_LOG_PutString("\n");
 232:source\asw/clock.c ****     */
 233:source\asw/clock.c ****     if(widget == CLOCK_HOURWIDGET)
 234:source\asw/clock.c ****     {
 235:source\asw/clock.c ****         CLOCK_state_t localstate = input.m_clock_data.m_hours.m_widgetState;
 236:source\asw/clock.c ****         
 237:source\asw/clock.c ****         /*UART_LOG_PutString("Hour widget state from signal: ");
 238:source\asw/clock.c ****        itoa(localstate, buffer, 10);
 239:source\asw/clock.c ****         UART_LOG_PutString(buffer);
 240:source\asw/clock.c ****         UART_LOG_PutString("\n");
 241:source\asw/clock.c ****         UART_LOG_PutString("Hour widget state from state machine obj: ");
 242:source\asw/clock.c ****        itoa(widgetFSM.m_state, buffer, 10);
 243:source\asw/clock.c ****         UART_LOG_PutString(buffer);
 244:source\asw/clock.c ****         UART_LOG_PutString("\n");*/
 245:source\asw/clock.c ****         
 246:source\asw/clock.c ****         widgetFSM.m_state = localstate;
 247:source\asw/clock.c ****         STATE_processEvent(&widgetFSM,ev);
 248:source\asw/clock.c ****         
 249:source\asw/clock.c ****         /*
 250:source\asw/clock.c ****         UART_LOG_PutString("after process event state: ");
 251:source\asw/clock.c ****         itoa(widgetFSM.m_state, buffer, 10);
 252:source\asw/clock.c ****         UART_LOG_PutString(buffer);
 253:source\asw/clock.c ****         UART_LOG_PutString("\n");*/
 254:source\asw/clock.c ****         
 255:source\asw/clock.c ****         input = RTE_SC_INPUT_get(&SO_INPUT_signal);
 256:source\asw/clock.c ****         input.m_clock_data.m_hours.m_widgetState = widgetFSM.m_state;
 257:source\asw/clock.c ****         RTE_SC_INPUT_set(&SO_INPUT_signal, input);
 258:source\asw/clock.c ****     }
 259:source\asw/clock.c ****     else if(widget == CLOCK_MINWIDGET)
ARM GAS  C:\Users\saman\AppData\Local\Temp\ccOAgYwr.s 			page 6


 260:source\asw/clock.c ****     {
 261:source\asw/clock.c ****         CLOCK_state_t localstate = input.m_clock_data.m_minutes.m_widgetState;
 262:source\asw/clock.c ****         
 263:source\asw/clock.c ****         /*UART_LOG_PutString("Minute widget state: ");
 264:source\asw/clock.c ****         itoa(localstate, buffer, 10);
 265:source\asw/clock.c ****         UART_LOG_PutString(buffer);
 266:source\asw/clock.c ****         UART_LOG_PutString("\n");*/
 267:source\asw/clock.c ****         
 268:source\asw/clock.c ****         widgetFSM.m_state = localstate;
 269:source\asw/clock.c ****         STATE_processEvent(&widgetFSM,ev);
 270:source\asw/clock.c ****         /*UART_LOG_PutString("Minute widget state: after process ");
 271:source\asw/clock.c ****         itoa(widgetFSM.m_state, buffer, 10);
 272:source\asw/clock.c ****         UART_LOG_PutString(buffer);
 273:source\asw/clock.c ****         UART_LOG_PutString("\n");*/
 274:source\asw/clock.c ****         input = RTE_SC_INPUT_get(&SO_INPUT_signal);
 275:source\asw/clock.c ****         
 276:source\asw/clock.c ****         input.m_clock_data.m_minutes.m_widgetState = widgetFSM.m_state;
 277:source\asw/clock.c ****         
 278:source\asw/clock.c ****         RTE_SC_INPUT_set(&SO_INPUT_signal, input);
 279:source\asw/clock.c ****     }
 280:source\asw/clock.c **** }
 281:source\asw/clock.c **** 
 282:source\asw/clock.c **** void CLOCK__dispatch_KL_Hours()
 283:source\asw/clock.c **** {
 284:source\asw/clock.c ****     //UART_LOG_PutString("CLOCK__dispatch_KL_Hours\n");
 285:source\asw/clock.c ****     SC_INPUT_data_t input = RTE_SC_INPUT_get(&SO_INPUT_signal);
 286:source\asw/clock.c ****     input.m_clock_data.m_hours.m_widgetState = CLOCK_W_ISDISPLAYING;
 287:source\asw/clock.c ****     RTE_SC_INPUT_set(&SO_INPUT_signal, input);
 288:source\asw/clock.c ****     CLOCK__dispatch_Wrapper(EV_KEYLEFT, CLOCK_HOURWIDGET);
 289:source\asw/clock.c **** }
 290:source\asw/clock.c **** 
 291:source\asw/clock.c **** void CLOCK__increment1Minute()
 292:source\asw/clock.c **** {
 293:source\asw/clock.c ****     CLOCK__updateTime();
 294:source\asw/clock.c **** }
 295:source\asw/clock.c **** 
 296:source\asw/clock.c **** void CLOCK__dispatch_KL_HoursMin()
 297:source\asw/clock.c **** {
 298:source\asw/clock.c ****     //UART_LOG_PutString("CLOCK__dispatch_KL_HoursMin\n");
 299:source\asw/clock.c ****     SC_INPUT_data_t input = RTE_SC_INPUT_get(&SO_INPUT_signal);
 300:source\asw/clock.c ****     input.m_clock_data.m_hours.m_widgetState = CLOCK_W_ISEDITING;
 301:source\asw/clock.c ****     input.m_clock_data.m_minutes.m_widgetState = CLOCK_W_ISDISPLAYING;
 302:source\asw/clock.c ****     RTE_SC_INPUT_set(&SO_INPUT_signal, input);
 303:source\asw/clock.c ****     
 304:source\asw/clock.c ****     CLOCK__dispatch_Wrapper(EV_KEYLEFT, CLOCK_HOURWIDGET);
 305:source\asw/clock.c ****     CLOCK__dispatch_Wrapper(EV_KEYLEFT, CLOCK_MINWIDGET);
 306:source\asw/clock.c **** }
 307:source\asw/clock.c **** 
 308:source\asw/clock.c **** void CLOCK__dispatch_KR_Hours()
 309:source\asw/clock.c **** {
 310:source\asw/clock.c ****     //UART_LOG_PutString("CLOCK__dispatch_KR_Hours\n");
 311:source\asw/clock.c ****     CLOCK__dispatch_Wrapper(EV_KEYRIGHT, CLOCK_HOURWIDGET);
 312:source\asw/clock.c **** }
 313:source\asw/clock.c **** 
 314:source\asw/clock.c **** void CLOCK__dispatch_KRLP_Hours()
 315:source\asw/clock.c **** {
 316:source\asw/clock.c ****     //UART_LOG_PutString("CLOCK__dispatch_KRLP_Hours\n");
ARM GAS  C:\Users\saman\AppData\Local\Temp\ccOAgYwr.s 			page 7


 317:source\asw/clock.c ****     SC_INPUT_data_t input = RTE_SC_INPUT_get(&SO_INPUT_signal);
 318:source\asw/clock.c ****     input.m_clock_data.m_hours.m_widgetState = CLOCK_W_ISEDITING;
 319:source\asw/clock.c ****     RTE_SC_INPUT_set(&SO_INPUT_signal, input);
 320:source\asw/clock.c ****     CLOCK__dispatch_Wrapper(EV_KEYRIGHTLONGPRESS, CLOCK_HOURWIDGET);
 321:source\asw/clock.c **** }
 322:source\asw/clock.c **** 
 323:source\asw/clock.c **** void CLOCK__dispatch_250MS_Hours()
 324:source\asw/clock.c **** {
 325:source\asw/clock.c ****     //UART_LOG_PutString("CLOCK__dispatch_250MS_Hours\n");
 326:source\asw/clock.c ****     CLOCK__dispatch_Wrapper(EV_250MS, CLOCK_HOURWIDGET);
 327:source\asw/clock.c **** }
 328:source\asw/clock.c **** 
 329:source\asw/clock.c **** void CLOCK__dispatch_KL_Min()
 330:source\asw/clock.c **** {
 331:source\asw/clock.c ****     //UART_LOG_PutString("CLOCK__dispatch_KL_Min\n");
 332:source\asw/clock.c ****     CLOCK__dispatch_Wrapper(EV_KEYLEFT, CLOCK_MINWIDGET);
 333:source\asw/clock.c **** }
 334:source\asw/clock.c **** 
 335:source\asw/clock.c **** void CLOCK__dispatch_KR_Min()
 336:source\asw/clock.c **** {
 337:source\asw/clock.c ****     //UART_LOG_PutString("CLOCK__dispatch_KR_Min\n");
 338:source\asw/clock.c ****     CLOCK__dispatch_Wrapper(EV_KEYRIGHT, CLOCK_MINWIDGET);
 339:source\asw/clock.c **** }
 340:source\asw/clock.c **** 
 341:source\asw/clock.c **** void CLOCK__dispatch_KRLP_Min()
 342:source\asw/clock.c **** {
 343:source\asw/clock.c ****     //UART_LOG_PutString("CLOCK__dispatch_KRLP_Min\n");
 344:source\asw/clock.c ****     SC_INPUT_data_t input = RTE_SC_INPUT_get(&SO_INPUT_signal);
 345:source\asw/clock.c ****     input.m_clock_data.m_minutes.m_widgetState = CLOCK_W_ISEDITING;
 346:source\asw/clock.c ****     RTE_SC_INPUT_set(&SO_INPUT_signal, input);
 347:source\asw/clock.c ****     CLOCK__dispatch_Wrapper(EV_KEYRIGHTLONGPRESS, CLOCK_MINWIDGET);
 348:source\asw/clock.c **** }
 349:source\asw/clock.c **** 
 350:source\asw/clock.c **** void CLOCK__dispatch_250MS_Min()
 351:source\asw/clock.c **** {
 352:source\asw/clock.c ****     //UART_LOG_PutString("CLOCK__dispatch_250MS_Min\n");
 353:source\asw/clock.c ****     CLOCK__dispatch_Wrapper(EV_250MS, CLOCK_MINWIDGET);
 354:source\asw/clock.c **** }
 355:source\asw/clock.c **** 
 356:source\asw/clock.c **** void CLOCK__incrementWidget()
 357:source\asw/clock.c **** {
 358:source\asw/clock.c ****     SC_INPUT_data_t input = RTE_SC_INPUT_get(&SO_INPUT_signal);
 359:source\asw/clock.c ****     if(input.m_clock_data.m_activeWidget == CLOCK_HOURWIDGET)
 360:source\asw/clock.c ****     {
 361:source\asw/clock.c ****         //UART_LOG_PutString("CLOCK__incrementWidget hr\n");
 362:source\asw/clock.c ****         CLOCK__incrementHourandDisplay();
 363:source\asw/clock.c ****     }
 364:source\asw/clock.c ****     else if(input.m_clock_data.m_activeWidget == CLOCK_MINWIDGET)
 365:source\asw/clock.c ****     {
 366:source\asw/clock.c ****         //UART_LOG_PutString("CLOCK__incrementWidget min\n");
 367:source\asw/clock.c ****         CLOCK__incrementMinuteandDisplay();
 368:source\asw/clock.c ****     }
 369:source\asw/clock.c **** }
 370:source\asw/clock.c **** 
 371:source\asw/clock.c **** void CLOCK__setDisplayFonts()
 372:source\asw/clock.c **** {
  27              		.loc 1 372 0
ARM GAS  C:\Users\saman\AppData\Local\Temp\ccOAgYwr.s 			page 8


  28              		.cfi_startproc
  29              		@ args = 0, pretend = 0, frame = 48
  30              		@ frame_needed = 0, uses_anonymous_args = 0
  31 0000 F0B5     		push	{r4, r5, r6, r7, lr}
  32              		.cfi_def_cfa_offset 20
  33              		.cfi_offset 4, -20
  34              		.cfi_offset 5, -16
  35              		.cfi_offset 6, -12
  36              		.cfi_offset 7, -8
  37              		.cfi_offset 14, -4
  38 0002 8DB0     		sub	sp, sp, #52
  39              		.cfi_def_cfa_offset 72
  40              	.LVL0:
  41              	.LBB80:
  42              	.LBB81:
  43              		.file 2 ".\\source\\rte/sc_control.h"
   1:.\source\rte/sc_control.h **** 
   2:.\source\rte/sc_control.h **** 
   3:.\source\rte/sc_control.h **** /**
   4:.\source\rte/sc_control.h ****  *  file    SC_CONTROL_signal.h
   5:.\source\rte/sc_control.h ****  *
   6:.\source\rte/sc_control.h ****  *  brief   signal base class for signal sc_control
   7:.\source\rte/sc_control.h ****  *
   8:.\source\rte/sc_control.h ****  *  author  Autogenerated, Peter Fromm       <peter.fromm@h-da.de>
   9:.\source\rte/sc_control.h ****  *
  10:.\source\rte/sc_control.h ****  * description: Signalclass
  11:.\source\rte/sc_control.h ****  * name: sc_control
  12:.\source\rte/sc_control.h ****  * shortname: control
  13:.\source\rte/sc_control.h ****  *
  14:.\source\rte/sc_control.h ****  */
  15:.\source\rte/sc_control.h **** 
  16:.\source\rte/sc_control.h **** 
  17:.\source\rte/sc_control.h **** 
  18:.\source\rte/sc_control.h **** #ifndef SC_CONTROL_SIGNAL_H_INCLUDED
  19:.\source\rte/sc_control.h **** #define SC_CONTROL_SIGNAL_H_INCLUDED
  20:.\source\rte/sc_control.h **** 
  21:.\source\rte/sc_control.h **** /*================================================[ public includes  ]=============================
  22:.\source\rte/sc_control.h **** #include "global.h"
  23:.\source\rte/sc_control.h **** #include "project.h"
  24:.\source\rte/sc_control.h **** #include "rte.h"
  25:.\source\rte/sc_control.h **** #include "rte_types.h"
  26:.\source\rte/sc_control.h **** 
  27:.\source\rte/sc_control.h **** #include "sc_control_type.h"
  28:.\source\rte/sc_control.h **** 
  29:.\source\rte/sc_control.h **** 
  30:.\source\rte/sc_control.h **** /**************************************************************************************************
  31:.\source\rte/sc_control.h **** /* The driver API block																						*/
  32:.\source\rte/sc_control.h **** /**************************************************************************************************
  33:.\source\rte/sc_control.h ****                                                                                                    
  34:.\source\rte/sc_control.h **** /**
  35:.\source\rte/sc_control.h ****  *  Definition of function types for driver interfaces.
  36:.\source\rte/sc_control.h ****  *  I-Port
  37:.\source\rte/sc_control.h ****  */
  38:.\source\rte/sc_control.h **** typedef RC_t (*SC_CONTROL_driverIn_t)(SC_CONTROL_data_t * const);
  39:.\source\rte/sc_control.h **** 
  40:.\source\rte/sc_control.h **** /**
  41:.\source\rte/sc_control.h ****  *  Definition of function types for driver interfaces.
ARM GAS  C:\Users\saman\AppData\Local\Temp\ccOAgYwr.s 			page 9


  42:.\source\rte/sc_control.h ****  *  O-Port
  43:.\source\rte/sc_control.h ****  */
  44:.\source\rte/sc_control.h **** typedef RC_t (*SC_CONTROL_driverOut_t)( const SC_CONTROL_data_t * const);
  45:.\source\rte/sc_control.h **** 
  46:.\source\rte/sc_control.h **** 
  47:.\source\rte/sc_control.h **** /**************************************************************************************************
  48:.\source\rte/sc_control.h **** /* The signal configuration API block																				*/
  49:.\source\rte/sc_control.h **** /**************************************************************************************************
  50:.\source\rte/sc_control.h **** 
  51:.\source\rte/sc_control.h **** /**
  52:.\source\rte/sc_control.h ****  * Instances of the struct SC_CONTROL_cfg_t represent the signal object configuration.
  53:.\source\rte/sc_control.h ****  */
  54:.\source\rte/sc_control.h **** struct SC_CONTROL_cfg_s
  55:.\source\rte/sc_control.h **** {
  56:.\source\rte/sc_control.h ****     /**
  57:.\source\rte/sc_control.h ****      * Function pointer to the input driver
  58:.\source\rte/sc_control.h ****      */
  59:.\source\rte/sc_control.h ****     SC_CONTROL_driverIn_t const inDriver;
  60:.\source\rte/sc_control.h **** 
  61:.\source\rte/sc_control.h ****     /**
  62:.\source\rte/sc_control.h ****      * Function pointer to the output driver table
  63:.\source\rte/sc_control.h ****      */
  64:.\source\rte/sc_control.h ****    SC_CONTROL_driverOut_t const outDriver;
  65:.\source\rte/sc_control.h ****    
  66:.\source\rte/sc_control.h ****     /**
  67:.\source\rte/sc_control.h ****      * Event onUpdate
  68:.\source\rte/sc_control.h ****      */
  69:.\source\rte/sc_control.h ****     EventMaskType const evOnUpdate;
  70:.\source\rte/sc_control.h ****     
  71:.\source\rte/sc_control.h ****     
  72:.\source\rte/sc_control.h ****     /**
  73:.\source\rte/sc_control.h ****      * Event onError
  74:.\source\rte/sc_control.h ****      */
  75:.\source\rte/sc_control.h ****     EventMaskType const evOnError;
  76:.\source\rte/sc_control.h ****     
  77:.\source\rte/sc_control.h ****     /**
  78:.\source\rte/sc_control.h ****      * Task Count onUpdate
  79:.\source\rte/sc_control.h ****      */
  80:.\source\rte/sc_control.h ****     size_t const onUpdateTaskCount;
  81:.\source\rte/sc_control.h **** 
  82:.\source\rte/sc_control.h ****     /**
  83:.\source\rte/sc_control.h ****      * Task List onUpdate
  84:.\source\rte/sc_control.h ****      */
  85:.\source\rte/sc_control.h ****     TaskTypeArray* const onUpdateTasks;
  86:.\source\rte/sc_control.h ****     
  87:.\source\rte/sc_control.h ****     /**
  88:.\source\rte/sc_control.h ****      * Task Count onError
  89:.\source\rte/sc_control.h ****      */
  90:.\source\rte/sc_control.h ****     size_t const onErrorTaskCount;
  91:.\source\rte/sc_control.h **** 
  92:.\source\rte/sc_control.h ****     /**
  93:.\source\rte/sc_control.h ****      * Task List onError
  94:.\source\rte/sc_control.h ****      */
  95:.\source\rte/sc_control.h ****     TaskTypeArray* const onErrorTasks;
  96:.\source\rte/sc_control.h **** 	
  97:.\source\rte/sc_control.h **** 	
  98:.\source\rte/sc_control.h **** 	/**
ARM GAS  C:\Users\saman\AppData\Local\Temp\ccOAgYwr.s 			page 10


  99:.\source\rte/sc_control.h **** 	 * Ressourse is active? We need an additional boolean as a ressource value 0 is valid.
 100:.\source\rte/sc_control.h **** 	 */
 101:.\source\rte/sc_control.h **** 	 boolean_t const resourceActive;
 102:.\source\rte/sc_control.h **** 	 
 103:.\source\rte/sc_control.h **** 	/**
 104:.\source\rte/sc_control.h **** 	 * Ressourse 
 105:.\source\rte/sc_control.h **** 	 */
 106:.\source\rte/sc_control.h **** 	 ResourceType const resource;
 107:.\source\rte/sc_control.h **** 
 108:.\source\rte/sc_control.h **** };                                                                                                 
 109:.\source\rte/sc_control.h **** typedef const struct SC_CONTROL_cfg_s SC_CONTROL_cfg_t;
 110:.\source\rte/sc_control.h ****                               
 111:.\source\rte/sc_control.h **** /**************************************************************************************************
 112:.\source\rte/sc_control.h **** /* The data interface block																							*/
 113:.\source\rte/sc_control.h **** /**************************************************************************************************
 114:.\source\rte/sc_control.h **** 
 115:.\source\rte/sc_control.h ****                                                                                                    
 116:.\source\rte/sc_control.h **** 							  
 117:.\source\rte/sc_control.h **** /**
 118:.\source\rte/sc_control.h ****  * Instances of the struct SC_CONTROL_t represent the signal objects.
 119:.\source\rte/sc_control.h ****  * A signal object contains the current application value 'value' as well as relevant meta data.
 120:.\source\rte/sc_control.h ****  */
 121:.\source\rte/sc_control.h **** struct SC_CONTROL_s
 122:.\source\rte/sc_control.h **** {                                                                                                  
 123:.\source\rte/sc_control.h **** 
 124:.\source\rte/sc_control.h **** 	/**
 125:.\source\rte/sc_control.h **** 	 * Data buffer for the application value
 126:.\source\rte/sc_control.h **** 	 */
 127:.\source\rte/sc_control.h ****     SC_CONTROL_data_t value;
 128:.\source\rte/sc_control.h **** 
 129:.\source\rte/sc_control.h ****     /**
 130:.\source\rte/sc_control.h ****      * Current signal status
 131:.\source\rte/sc_control.h ****      */
 132:.\source\rte/sc_control.h ****     RTE_signalStatus_t status;
 133:.\source\rte/sc_control.h **** 
 134:.\source\rte/sc_control.h ****     /**
 135:.\source\rte/sc_control.h ****      * Current age of the signal (in calling cycles)
 136:.\source\rte/sc_control.h ****      */
 137:.\source\rte/sc_control.h ****     uint32_t age;
 138:.\source\rte/sc_control.h **** 
 139:.\source\rte/sc_control.h ****     /**
 140:.\source\rte/sc_control.h ****      * Pointer to the signal configuration
 141:.\source\rte/sc_control.h ****      */
 142:.\source\rte/sc_control.h **** 	const SC_CONTROL_cfg_t * const    pSigCfg;
 143:.\source\rte/sc_control.h **** 
 144:.\source\rte/sc_control.h **** };                                                                                                 
 145:.\source\rte/sc_control.h **** typedef struct SC_CONTROL_s SC_CONTROL_t;
 146:.\source\rte/sc_control.h **** 
 147:.\source\rte/sc_control.h **** /**************************************************************************************************
 148:.\source\rte/sc_control.h **** /* Signal initialisation   																							*/
 149:.\source\rte/sc_control.h **** /**************************************************************************************************
 150:.\source\rte/sc_control.h **** 
 151:.\source\rte/sc_control.h **** /**
 152:.\source\rte/sc_control.h ****  * Initializes a signal instance with a passed init value.
 153:.\source\rte/sc_control.h ****  * Depending on the configured conversion or scaling function the raw_value will be calculated.
 154:.\source\rte/sc_control.h ****  * Signal status will change from RTE_SIGNALSTATUS_STARTUP to RTE_SIGNALSTATUS_INITIALIZED.
 155:.\source\rte/sc_control.h ****  *
ARM GAS  C:\Users\saman\AppData\Local\Temp\ccOAgYwr.s 			page 11


 156:.\source\rte/sc_control.h ****  * @param  SC_CONTROL_t * const signal: Pointer to the signal object which will be initialised
 157:.\source\rte/sc_control.h ****  * @return RC_t: standard return code, currently only RC_SUCCESS
 158:.\source\rte/sc_control.h ****  *
 159:.\source\rte/sc_control.h ****  **/
 160:.\source\rte/sc_control.h **** inline RC_t RTE_SC_CONTROL_init( SC_CONTROL_t * const signal )
 161:.\source\rte/sc_control.h **** {                                                                                                  
 162:.\source\rte/sc_control.h **** 
 163:.\source\rte/sc_control.h ****    RC_t ret = RC_SUCCESS;
 164:.\source\rte/sc_control.h **** 
 165:.\source\rte/sc_control.h ****    //Set value and raw value
 166:.\source\rte/sc_control.h ****    signal->value  = SC_CONTROL_INIT_DATA;
 167:.\source\rte/sc_control.h ****    signal->age    = 0;
 168:.\source\rte/sc_control.h ****    signal->status = RTE_SIGNALSTATUS_INITIALIZED;
 169:.\source\rte/sc_control.h **** 
 170:.\source\rte/sc_control.h ****    return ret;
 171:.\source\rte/sc_control.h **** }
 172:.\source\rte/sc_control.h **** 
 173:.\source\rte/sc_control.h **** /**************************************************************************************************
 174:.\source\rte/sc_control.h **** /* Status and timeout control																						*/
 175:.\source\rte/sc_control.h **** /**************************************************************************************************
 176:.\source\rte/sc_control.h **** 
 177:.\source\rte/sc_control.h **** /**
 178:.\source\rte/sc_control.h ****  *  Returns the current signal status of the passed signal instance.
 179:.\source\rte/sc_control.h ****  *
 180:.\source\rte/sc_control.h ****  * @param  SC_CONTROL_t * const signal: Pointer to the signal object
 181:.\source\rte/sc_control.h ****  * @return  sig_status_t: The current signal status
 182:.\source\rte/sc_control.h ****  *
 183:.\source\rte/sc_control.h ****  **/
 184:.\source\rte/sc_control.h **** inline RTE_signalStatus_t RTE_SC_CONTROL_getStatus( const SC_CONTROL_t * const signal )
 185:.\source\rte/sc_control.h **** {
 186:.\source\rte/sc_control.h ****    return signal->status;
 187:.\source\rte/sc_control.h **** }
 188:.\source\rte/sc_control.h **** 
 189:.\source\rte/sc_control.h **** 
 190:.\source\rte/sc_control.h **** /**
 191:.\source\rte/sc_control.h ****  *  Sets a new signal status of the passed signal instance by passing the new status.
 192:.\source\rte/sc_control.h ****  *
 193:.\source\rte/sc_control.h ****  * @param  SC_CONTROL_t * const signal: Pointer to the signal object
 194:.\source\rte/sc_control.h ****  * @param  const sig_status_t status: New signal status
 195:.\source\rte/sc_control.h ****  * @return RC_t: standard return code, currently only RC_SUCCESS
 196:.\source\rte/sc_control.h ****  *
 197:.\source\rte/sc_control.h ****  */
 198:.\source\rte/sc_control.h **** inline RC_t RTE_SC_CONTROL_setStatus( SC_CONTROL_t * const signal, const RTE_signalStatus_t status 
 199:.\source\rte/sc_control.h **** {
 200:.\source\rte/sc_control.h ****    signal->status = status;
 201:.\source\rte/sc_control.h ****    size_t taskNum=0;
 202:.\source\rte/sc_control.h ****    
 203:.\source\rte/sc_control.h ****    //Fire error events in case of invalid state
 204:.\source\rte/sc_control.h ****    if (signal->status == RTE_SIGNALSTATUS_INVALID)
 205:.\source\rte/sc_control.h ****    {
 206:.\source\rte/sc_control.h **** 	    //Pointer to the Taskarray, containing the tasks receiving the onUpdate events
 207:.\source\rte/sc_control.h **** 		TaskTypeArray* pTaskArray = signal->pSigCfg->onErrorTasks;
 208:.\source\rte/sc_control.h **** 
 209:.\source\rte/sc_control.h **** 		if (0 != signal->pSigCfg->evOnError && NULL != pTaskArray){
 210:.\source\rte/sc_control.h **** 			for( taskNum=0 ; taskNum < signal->pSigCfg->onErrorTaskCount ;taskNum++){
 211:.\source\rte/sc_control.h **** 				TaskType task = (*pTaskArray)[taskNum];
 212:.\source\rte/sc_control.h **** 				SetEvent( task, signal->pSigCfg->evOnError);
ARM GAS  C:\Users\saman\AppData\Local\Temp\ccOAgYwr.s 			page 12


 213:.\source\rte/sc_control.h **** 			}
 214:.\source\rte/sc_control.h **** 		}
 215:.\source\rte/sc_control.h ****    }
 216:.\source\rte/sc_control.h ****    
 217:.\source\rte/sc_control.h ****    return RC_SUCCESS;
 218:.\source\rte/sc_control.h **** }
 219:.\source\rte/sc_control.h **** 
 220:.\source\rte/sc_control.h **** 
 221:.\source\rte/sc_control.h **** /**
 222:.\source\rte/sc_control.h ****  * Returns the count of refreshing trials (refresh, set or set_raw) that failed.
 223:.\source\rte/sc_control.h ****  * Prerquisite: The signal is refreshed cyclically
 224:.\source\rte/sc_control.h ****  *
 225:.\source\rte/sc_control.h ****  * @param  SC_CONTROL_t * const signal: Pointer to the signal object
 226:.\source\rte/sc_control.h ****  * @return uint32_t: Number of cycles since the signal has been updated for the last time
 227:.\source\rte/sc_control.h ****  */
 228:.\source\rte/sc_control.h **** inline uint32_t RTE_SC_CONTROL_getAge( const SC_CONTROL_t * const signal )
 229:.\source\rte/sc_control.h **** {
 230:.\source\rte/sc_control.h ****    return signal->age;
 231:.\source\rte/sc_control.h **** }
 232:.\source\rte/sc_control.h **** 
 233:.\source\rte/sc_control.h **** /**
 234:.\source\rte/sc_control.h ****  * Should be called by application or driver if no new value can be provided.
 235:.\source\rte/sc_control.h ****  * @param  SC_CONTROL_t * const signal: Pointer to the signal object
 236:.\source\rte/sc_control.h ****  * @param uint32_t increment: incrementvalue, typically in [ms]
 237:.\source\rte/sc_control.h ****  * @return void
 238:.\source\rte/sc_control.h ****  */
 239:.\source\rte/sc_control.h **** inline void RTE_SC_CONTROL_incAge(  SC_CONTROL_t * const signal , uint32_t increment)
 240:.\source\rte/sc_control.h **** {
 241:.\source\rte/sc_control.h **** 	   //Hack....
 242:.\source\rte/sc_control.h **** 	   if ( 0xFFFF0000 > (signal->age + increment) )
 243:.\source\rte/sc_control.h **** 	   {
 244:.\source\rte/sc_control.h **** 	      signal->age += increment;
 245:.\source\rte/sc_control.h **** 	   }
 246:.\source\rte/sc_control.h **** }
 247:.\source\rte/sc_control.h **** 
 248:.\source\rte/sc_control.h **** 
 249:.\source\rte/sc_control.h **** /**************************************************************************************************
 250:.\source\rte/sc_control.h **** /* Application Data read/write Interface																			*/
 251:.\source\rte/sc_control.h **** /**************************************************************************************************
 252:.\source\rte/sc_control.h **** 
 253:.\source\rte/sc_control.h **** /**
 254:.\source\rte/sc_control.h ****  * Returns the current application value as pointer to the signal payload.
 255:.\source\rte/sc_control.h ****  * Careful: This is not threadsafe!!!
 256:.\source\rte/sc_control.h ****  *
 257:.\source\rte/sc_control.h ****  * @param  SC_CONTROL_t * const signal: Pointer to the signal object
 258:.\source\rte/sc_control.h ****  * @return sc_control_data_t*: pointer to the current value of the application data buffer
 259:.\source\rte/sc_control.h ****  *
 260:.\source\rte/sc_control.h ****  **/
 261:.\source\rte/sc_control.h **** inline SC_CONTROL_data_t* RTE_SC_CONTROL_getPtr( SC_CONTROL_t * const signal )
 262:.\source\rte/sc_control.h **** {               
 263:.\source\rte/sc_control.h ****    //Todo: Critical region cannot be protected using return values																						
 264:.\source\rte/sc_control.h ****    return &(signal->value);                                                                        
 265:.\source\rte/sc_control.h **** }
 266:.\source\rte/sc_control.h **** 
 267:.\source\rte/sc_control.h **** /**
 268:.\source\rte/sc_control.h ****  * Returns the current application value of the passed signal instance.
 269:.\source\rte/sc_control.h ****  *
ARM GAS  C:\Users\saman\AppData\Local\Temp\ccOAgYwr.s 			page 13


 270:.\source\rte/sc_control.h ****  * @param  SC_CONTROL_t * const signal: Pointer to the signal object
 271:.\source\rte/sc_control.h ****  * @return sc_control_data_t: current value of the application data buffer
 272:.\source\rte/sc_control.h ****  *
 273:.\source\rte/sc_control.h ****  **/
 274:.\source\rte/sc_control.h **** inline SC_CONTROL_data_t RTE_SC_CONTROL_get( const SC_CONTROL_t * const signal )
 275:.\source\rte/sc_control.h **** {               
 276:.\source\rte/sc_control.h ****    //Todo: Critical region cannot be protected using return values																						
 277:.\source\rte/sc_control.h ****    return signal->value;                                                                           
  44              		.loc 2 277 0
  45 0004 204F     		ldr	r7, .L7
  46 0006 06AD     		add	r5, sp, #24
  47 0008 3C46     		mov	r4, r7
  48 000a 0FCC     		ldmia	r4!, {r0, r1, r2, r3}
  49 000c 0FC5     		stmia	r5!, {r0, r1, r2, r3}
  50 000e 94E80300 		ldmia	r4, {r0, r1}
  51 0012 85E80300 		stmia	r5, {r0, r1}
  52              	.LVL1:
  53              	.LBE81:
  54              	.LBE80:
 373:source\asw/clock.c ****     SC_CONTROL_data_t control = RTE_SC_CONTROL_get(&SO_CONTROL_signal);;
 374:source\asw/clock.c ****     control.hour.font_type.bg_colour = BLACK;
  55              		.loc 1 374 0
  56 0016 4FF0000E 		mov	lr, #0
  57 001a ADF81CE0 		strh	lr, [sp, #28]	@ movhi
 375:source\asw/clock.c ****     control.hour.font_type.widget = WHITE;
  58              		.loc 1 375 0
  59 001e 4FF6FF73 		movw	r3, #65535
  60 0022 ADF81E30 		strh	r3, [sp, #30]	@ movhi
 376:source\asw/clock.c ****     control.minute.font_type.bg_colour   = BLACK;
  61              		.loc 1 376 0
  62 0026 ADF828E0 		strh	lr, [sp, #40]	@ movhi
 377:source\asw/clock.c ****     control.minute.font_type.widget = WHITE;
  63              		.loc 1 377 0
  64 002a ADF82A30 		strh	r3, [sp, #42]	@ movhi
  65              	.LVL2:
  66 002e 6D46     		mov	r5, sp
  67 0030 06AE     		add	r6, sp, #24
  68 0032 0FCE     		ldmia	r6!, {r0, r1, r2, r3}
  69 0034 0FC5     		stmia	r5!, {r0, r1, r2, r3}
  70 0036 96E80300 		ldmia	r6, {r0, r1}
  71 003a 85E80300 		stmia	r5, {r0, r1}
  72              	.LVL3:
  73              	.LBB82:
  74              	.LBB83:
 278:.\source\rte/sc_control.h **** }                                                                                                  
 279:.\source\rte/sc_control.h ****                                                                                                    
 280:.\source\rte/sc_control.h **** /**
 281:.\source\rte/sc_control.h ****  * Returns the current application value of the passed signal instance threadsafe.
 282:.\source\rte/sc_control.h ****  *
 283:.\source\rte/sc_control.h ****  * @param  SC_CONTROL_t * const signal: Pointer to the signal object
 284:.\source\rte/sc_control.h ****  * @param  SC_CONTROL_data_t* data: Pointer to the return data Pointer to the signal object
 285:.\source\rte/sc_control.h ****  * @return RC_SUCCESS
 286:.\source\rte/sc_control.h ****  *
 287:.\source\rte/sc_control.h ****  **/
 288:.\source\rte/sc_control.h **** inline RC_t RTE_SC_CONTROL_getThreadSafe( const SC_CONTROL_t * const signal, SC_CONTROL_data_t * co
 289:.\source\rte/sc_control.h **** {    
 290:.\source\rte/sc_control.h ****    if (TRUE == signal->pSigCfg->resourceActive) GetResource(signal->pSigCfg->resource);
ARM GAS  C:\Users\saman\AppData\Local\Temp\ccOAgYwr.s 			page 14


 291:.\source\rte/sc_control.h ****    *data = signal->value;
 292:.\source\rte/sc_control.h ****    if (TRUE == signal->pSigCfg->resourceActive) ReleaseResource(signal->pSigCfg->resource);        
 293:.\source\rte/sc_control.h **** 
 294:.\source\rte/sc_control.h ****    return RC_SUCCESS;                                                                   
 295:.\source\rte/sc_control.h ****    
 296:.\source\rte/sc_control.h **** }                                                                                                  
 297:.\source\rte/sc_control.h ****                                                                                                    
 298:.\source\rte/sc_control.h **** /**
 299:.\source\rte/sc_control.h ****  * Sets a new application value to the passed signal instance by passing the new value.
 300:.\source\rte/sc_control.h ****  * The corresponding driver raw value will be calculated immediately by using the default conversio
 301:.\source\rte/sc_control.h ****  * signal specific scaling function.
 302:.\source\rte/sc_control.h ****  * The signal age will be set to 0 and the new status will be 'RTE_SIGNALSTATUS_VALID'.
 303:.\source\rte/sc_control.h ****  *
 304:.\source\rte/sc_control.h ****  * @param  SC_CONTROL_t * const signal: Pointer to the signal object
 305:.\source\rte/sc_control.h ****  * @param  sc_control_data_t const value: value for the application data buffer
 306:.\source\rte/sc_control.h ****  * @return RC_t: standard return code, currently only RC_SUCCESS
 307:.\source\rte/sc_control.h ****  *
 308:.\source\rte/sc_control.h ****  **/
 309:.\source\rte/sc_control.h **** inline RC_t RTE_SC_CONTROL_set(SC_CONTROL_t * const signal, const SC_CONTROL_data_t value  )
 310:.\source\rte/sc_control.h **** {
 311:.\source\rte/sc_control.h **** 
 312:.\source\rte/sc_control.h ****    RC_t ret = RC_SUCCESS;
 313:.\source\rte/sc_control.h ****    size_t taskNum=0;
 314:.\source\rte/sc_control.h **** 
 315:.\source\rte/sc_control.h **** 
 316:.\source\rte/sc_control.h ****    if (TRUE == signal->pSigCfg->resourceActive) GetResource(signal->pSigCfg->resource);
  75              		.loc 2 316 0
  76 003e D7F820C0 		ldr	ip, [r7, #32]
 317:.\source\rte/sc_control.h ****    signal->value  = value;
  77              		.loc 2 317 0
  78 0042 3E46     		mov	r6, r7
  79 0044 6D46     		mov	r5, sp
  80 0046 0FCD     		ldmia	r5!, {r0, r1, r2, r3}
  81 0048 0FC6     		stmia	r6!, {r0, r1, r2, r3}
  82 004a 95E80300 		ldmia	r5, {r0, r1}
  83 004e 84E80300 		stmia	r4, {r0, r1}
 318:.\source\rte/sc_control.h ****    signal->age    = 0;
  84              		.loc 2 318 0
  85 0052 C7F81CE0 		str	lr, [r7, #28]
 319:.\source\rte/sc_control.h ****    signal->status = RTE_SIGNALSTATUS_VALID;
  86              		.loc 2 319 0
  87 0056 0223     		movs	r3, #2
  88 0058 3B76     		strb	r3, [r7, #24]
 320:.\source\rte/sc_control.h ****    if (TRUE == signal->pSigCfg->resourceActive) ReleaseResource(signal->pSigCfg->resource);
 321:.\source\rte/sc_control.h **** 
 322:.\source\rte/sc_control.h ****    //Pointer to the Taskarray, containing the tasks receiving the onUpdate events
 323:.\source\rte/sc_control.h ****    TaskTypeArray* pTaskArray = signal->pSigCfg->onUpdateTasks;
  89              		.loc 2 323 0
  90 005a DCF81450 		ldr	r5, [ip, #20]
  91              	.LVL4:
 324:.\source\rte/sc_control.h **** 
 325:.\source\rte/sc_control.h ****    if (0 != signal->pSigCfg->evOnUpdate && NULL != pTaskArray){
  92              		.loc 2 325 0
  93 005e DCF80830 		ldr	r3, [ip, #8]
  94 0062 73B1     		cbz	r3, .L1
  95 0064 3DB9     		cbnz	r5, .L5
  96 0066 0CE0     		b	.L1
ARM GAS  C:\Users\saman\AppData\Local\Temp\ccOAgYwr.s 			page 15


  97              	.LVL5:
  98              	.L4:
  99              	.LBB84:
 326:.\source\rte/sc_control.h ****       for( taskNum=0 ; taskNum < signal->pSigCfg->onUpdateTaskCount ;taskNum++){
 327:.\source\rte/sc_control.h **** 		  
 328:.\source\rte/sc_control.h ****           TaskType task = (*pTaskArray)[taskNum];
 329:.\source\rte/sc_control.h **** 	      SetEvent( task, signal->pSigCfg->evOnUpdate);
 100              		.loc 2 329 0
 101 0068 9968     		ldr	r1, [r3, #8]
 102 006a 55F82400 		ldr	r0, [r5, r4, lsl #2]
 103 006e FFF7FEFF 		bl	EE_oo_SetEvent
 104              	.LVL6:
 105              	.LBE84:
 326:.\source\rte/sc_control.h ****       for( taskNum=0 ; taskNum < signal->pSigCfg->onUpdateTaskCount ;taskNum++){
 106              		.loc 2 326 0
 107 0072 0134     		adds	r4, r4, #1
 108              	.LVL7:
 109 0074 00E0     		b	.L3
 110              	.LVL8:
 111              	.L5:
 325:.\source\rte/sc_control.h ****       for( taskNum=0 ; taskNum < signal->pSigCfg->onUpdateTaskCount ;taskNum++){
 112              		.loc 2 325 0
 113 0076 0024     		movs	r4, #0
 114              	.LVL9:
 115              	.L3:
 326:.\source\rte/sc_control.h ****       for( taskNum=0 ; taskNum < signal->pSigCfg->onUpdateTaskCount ;taskNum++){
 116              		.loc 2 326 0
 117 0078 034B     		ldr	r3, .L7
 118 007a 1B6A     		ldr	r3, [r3, #32]
 119 007c 1A69     		ldr	r2, [r3, #16]
 120 007e 9442     		cmp	r4, r2
 121 0080 F2D3     		bcc	.L4
 122              	.LVL10:
 123              	.L1:
 124              	.LBE83:
 125              	.LBE82:
 378:source\asw/clock.c ****     RTE_SC_CONTROL_set(&SO_CONTROL_signal, control);
 379:source\asw/clock.c **** }
 126              		.loc 1 379 0
 127 0082 0DB0     		add	sp, sp, #52
 128              		.cfi_def_cfa_offset 20
 129              		@ sp needed
 130 0084 F0BD     		pop	{r4, r5, r6, r7, pc}
 131              	.LVL11:
 132              	.L8:
 133 0086 00BF     		.align	2
 134              	.L7:
 135 0088 00000000 		.word	SO_CONTROL_signal
 136              		.cfi_endproc
 137              	.LFE158:
 138              		.size	CLOCK__setDisplayFonts, .-CLOCK__setDisplayFonts
 139              		.section	.text.CLOCK__setEditFonts,"ax",%progbits
 140              		.align	2
 141              		.thumb
 142              		.thumb_func
 143              		.type	CLOCK__setEditFonts, %function
 144              	CLOCK__setEditFonts:
ARM GAS  C:\Users\saman\AppData\Local\Temp\ccOAgYwr.s 			page 16


 145              	.LFB159:
 380:source\asw/clock.c **** 
 381:source\asw/clock.c **** void CLOCK__setEditFonts()
 382:source\asw/clock.c **** {
 146              		.loc 1 382 0
 147              		.cfi_startproc
 148              		@ args = 0, pretend = 0, frame = 120
 149              		@ frame_needed = 0, uses_anonymous_args = 0
 150 0000 F0B5     		push	{r4, r5, r6, r7, lr}
 151              		.cfi_def_cfa_offset 20
 152              		.cfi_offset 4, -20
 153              		.cfi_offset 5, -16
 154              		.cfi_offset 6, -12
 155              		.cfi_offset 7, -8
 156              		.cfi_offset 14, -4
 157 0002 9FB0     		sub	sp, sp, #124
 158              		.cfi_def_cfa_offset 144
 159              	.LVL12:
 160              	.LBB85:
 161              	.LBB86:
 162              		.file 3 ".\\source\\rte/sc_input.h"
   1:.\source\rte/sc_input.h **** 
   2:.\source\rte/sc_input.h **** 
   3:.\source\rte/sc_input.h **** /**
   4:.\source\rte/sc_input.h ****  *  file    SC_INPUT_signal.h
   5:.\source\rte/sc_input.h ****  *
   6:.\source\rte/sc_input.h ****  *  brief   signal base class for signal sc_input
   7:.\source\rte/sc_input.h ****  *
   8:.\source\rte/sc_input.h ****  *  author  Autogenerated, Peter Fromm       <peter.fromm@h-da.de>
   9:.\source\rte/sc_input.h ****  *
  10:.\source\rte/sc_input.h ****  * description: Signalclass
  11:.\source\rte/sc_input.h ****  * name: sc_input
  12:.\source\rte/sc_input.h ****  * shortname: input
  13:.\source\rte/sc_input.h ****  *
  14:.\source\rte/sc_input.h ****  */
  15:.\source\rte/sc_input.h **** 
  16:.\source\rte/sc_input.h **** 
  17:.\source\rte/sc_input.h **** 
  18:.\source\rte/sc_input.h **** #ifndef SC_INPUT_SIGNAL_H_INCLUDED
  19:.\source\rte/sc_input.h **** #define SC_INPUT_SIGNAL_H_INCLUDED
  20:.\source\rte/sc_input.h **** 
  21:.\source\rte/sc_input.h **** /*================================================[ public includes  ]=============================
  22:.\source\rte/sc_input.h **** #include "global.h"
  23:.\source\rte/sc_input.h **** #include "project.h"
  24:.\source\rte/sc_input.h **** #include "rte.h"
  25:.\source\rte/sc_input.h **** #include "rte_types.h"
  26:.\source\rte/sc_input.h **** 
  27:.\source\rte/sc_input.h **** #include "sc_input_type.h"
  28:.\source\rte/sc_input.h **** 
  29:.\source\rte/sc_input.h **** 
  30:.\source\rte/sc_input.h **** /**************************************************************************************************
  31:.\source\rte/sc_input.h **** /* The driver API block																						*/
  32:.\source\rte/sc_input.h **** /**************************************************************************************************
  33:.\source\rte/sc_input.h ****                                                                                                    
  34:.\source\rte/sc_input.h **** /**
  35:.\source\rte/sc_input.h ****  *  Definition of function types for driver interfaces.
  36:.\source\rte/sc_input.h ****  *  I-Port
ARM GAS  C:\Users\saman\AppData\Local\Temp\ccOAgYwr.s 			page 17


  37:.\source\rte/sc_input.h ****  */
  38:.\source\rte/sc_input.h **** typedef RC_t (*SC_INPUT_driverIn_t)(SC_INPUT_data_t * const);
  39:.\source\rte/sc_input.h **** 
  40:.\source\rte/sc_input.h **** /**
  41:.\source\rte/sc_input.h ****  *  Definition of function types for driver interfaces.
  42:.\source\rte/sc_input.h ****  *  O-Port
  43:.\source\rte/sc_input.h ****  */
  44:.\source\rte/sc_input.h **** typedef RC_t (*SC_INPUT_driverOut_t)( const SC_INPUT_data_t * const);
  45:.\source\rte/sc_input.h **** 
  46:.\source\rte/sc_input.h **** 
  47:.\source\rte/sc_input.h **** /**************************************************************************************************
  48:.\source\rte/sc_input.h **** /* The signal configuration API block																				*/
  49:.\source\rte/sc_input.h **** /**************************************************************************************************
  50:.\source\rte/sc_input.h **** 
  51:.\source\rte/sc_input.h **** /**
  52:.\source\rte/sc_input.h ****  * Instances of the struct SC_INPUT_cfg_t represent the signal object configuration.
  53:.\source\rte/sc_input.h ****  */
  54:.\source\rte/sc_input.h **** struct SC_INPUT_cfg_s
  55:.\source\rte/sc_input.h **** {
  56:.\source\rte/sc_input.h ****     /**
  57:.\source\rte/sc_input.h ****      * Function pointer to the input driver
  58:.\source\rte/sc_input.h ****      */
  59:.\source\rte/sc_input.h ****     SC_INPUT_driverIn_t const inDriver;
  60:.\source\rte/sc_input.h **** 
  61:.\source\rte/sc_input.h ****     /**
  62:.\source\rte/sc_input.h ****      * Function pointer to the output driver table
  63:.\source\rte/sc_input.h ****      */
  64:.\source\rte/sc_input.h ****    SC_INPUT_driverOut_t const outDriver;
  65:.\source\rte/sc_input.h ****    
  66:.\source\rte/sc_input.h ****     /**
  67:.\source\rte/sc_input.h ****      * Event onUpdate
  68:.\source\rte/sc_input.h ****      */
  69:.\source\rte/sc_input.h ****     EventMaskType const evOnUpdate;
  70:.\source\rte/sc_input.h ****     
  71:.\source\rte/sc_input.h ****     
  72:.\source\rte/sc_input.h ****     /**
  73:.\source\rte/sc_input.h ****      * Event onError
  74:.\source\rte/sc_input.h ****      */
  75:.\source\rte/sc_input.h ****     EventMaskType const evOnError;
  76:.\source\rte/sc_input.h ****     
  77:.\source\rte/sc_input.h ****     /**
  78:.\source\rte/sc_input.h ****      * Task Count onUpdate
  79:.\source\rte/sc_input.h ****      */
  80:.\source\rte/sc_input.h ****     size_t const onUpdateTaskCount;
  81:.\source\rte/sc_input.h **** 
  82:.\source\rte/sc_input.h ****     /**
  83:.\source\rte/sc_input.h ****      * Task List onUpdate
  84:.\source\rte/sc_input.h ****      */
  85:.\source\rte/sc_input.h ****     TaskTypeArray* const onUpdateTasks;
  86:.\source\rte/sc_input.h ****     
  87:.\source\rte/sc_input.h ****     /**
  88:.\source\rte/sc_input.h ****      * Task Count onError
  89:.\source\rte/sc_input.h ****      */
  90:.\source\rte/sc_input.h ****     size_t const onErrorTaskCount;
  91:.\source\rte/sc_input.h **** 
  92:.\source\rte/sc_input.h ****     /**
  93:.\source\rte/sc_input.h ****      * Task List onError
ARM GAS  C:\Users\saman\AppData\Local\Temp\ccOAgYwr.s 			page 18


  94:.\source\rte/sc_input.h ****      */
  95:.\source\rte/sc_input.h ****     TaskTypeArray* const onErrorTasks;
  96:.\source\rte/sc_input.h **** 	
  97:.\source\rte/sc_input.h **** 	
  98:.\source\rte/sc_input.h **** 	/**
  99:.\source\rte/sc_input.h **** 	 * Ressourse is active? We need an additional boolean as a ressource value 0 is valid.
 100:.\source\rte/sc_input.h **** 	 */
 101:.\source\rte/sc_input.h **** 	 boolean_t const resourceActive;
 102:.\source\rte/sc_input.h **** 	 
 103:.\source\rte/sc_input.h **** 	/**
 104:.\source\rte/sc_input.h **** 	 * Ressourse 
 105:.\source\rte/sc_input.h **** 	 */
 106:.\source\rte/sc_input.h **** 	 ResourceType const resource;
 107:.\source\rte/sc_input.h **** 
 108:.\source\rte/sc_input.h **** };                                                                                                 
 109:.\source\rte/sc_input.h **** typedef const struct SC_INPUT_cfg_s SC_INPUT_cfg_t;
 110:.\source\rte/sc_input.h ****                               
 111:.\source\rte/sc_input.h **** /**************************************************************************************************
 112:.\source\rte/sc_input.h **** /* The data interface block																							*/
 113:.\source\rte/sc_input.h **** /**************************************************************************************************
 114:.\source\rte/sc_input.h **** 
 115:.\source\rte/sc_input.h ****                                                                                                    
 116:.\source\rte/sc_input.h **** 							  
 117:.\source\rte/sc_input.h **** /**
 118:.\source\rte/sc_input.h ****  * Instances of the struct SC_INPUT_t represent the signal objects.
 119:.\source\rte/sc_input.h ****  * A signal object contains the current application value 'value' as well as relevant meta data.
 120:.\source\rte/sc_input.h ****  */
 121:.\source\rte/sc_input.h **** struct SC_INPUT_s
 122:.\source\rte/sc_input.h **** {                                                                                                  
 123:.\source\rte/sc_input.h **** 
 124:.\source\rte/sc_input.h **** 	/**
 125:.\source\rte/sc_input.h **** 	 * Data buffer for the application value
 126:.\source\rte/sc_input.h **** 	 */
 127:.\source\rte/sc_input.h ****     SC_INPUT_data_t value;
 128:.\source\rte/sc_input.h **** 
 129:.\source\rte/sc_input.h ****     /**
 130:.\source\rte/sc_input.h ****      * Current signal status
 131:.\source\rte/sc_input.h ****      */
 132:.\source\rte/sc_input.h ****     RTE_signalStatus_t status;
 133:.\source\rte/sc_input.h **** 
 134:.\source\rte/sc_input.h ****     /**
 135:.\source\rte/sc_input.h ****      * Current age of the signal (in calling cycles)
 136:.\source\rte/sc_input.h ****      */
 137:.\source\rte/sc_input.h ****     uint32_t age;
 138:.\source\rte/sc_input.h **** 
 139:.\source\rte/sc_input.h ****     /**
 140:.\source\rte/sc_input.h ****      * Pointer to the signal configuration
 141:.\source\rte/sc_input.h ****      */
 142:.\source\rte/sc_input.h **** 	const SC_INPUT_cfg_t * const    pSigCfg;
 143:.\source\rte/sc_input.h **** 
 144:.\source\rte/sc_input.h **** };                                                                                                 
 145:.\source\rte/sc_input.h **** typedef struct SC_INPUT_s SC_INPUT_t;
 146:.\source\rte/sc_input.h **** 
 147:.\source\rte/sc_input.h **** /**************************************************************************************************
 148:.\source\rte/sc_input.h **** /* Signal initialisation   																							*/
 149:.\source\rte/sc_input.h **** /**************************************************************************************************
 150:.\source\rte/sc_input.h **** 
ARM GAS  C:\Users\saman\AppData\Local\Temp\ccOAgYwr.s 			page 19


 151:.\source\rte/sc_input.h **** /**
 152:.\source\rte/sc_input.h ****  * Initializes a signal instance with a passed init value.
 153:.\source\rte/sc_input.h ****  * Depending on the configured conversion or scaling function the raw_value will be calculated.
 154:.\source\rte/sc_input.h ****  * Signal status will change from RTE_SIGNALSTATUS_STARTUP to RTE_SIGNALSTATUS_INITIALIZED.
 155:.\source\rte/sc_input.h ****  *
 156:.\source\rte/sc_input.h ****  * @param  SC_INPUT_t * const signal: Pointer to the signal object which will be initialised
 157:.\source\rte/sc_input.h ****  * @return RC_t: standard return code, currently only RC_SUCCESS
 158:.\source\rte/sc_input.h ****  *
 159:.\source\rte/sc_input.h ****  **/
 160:.\source\rte/sc_input.h **** inline RC_t RTE_SC_INPUT_init( SC_INPUT_t * const signal )
 161:.\source\rte/sc_input.h **** {                                                                                                  
 162:.\source\rte/sc_input.h **** 
 163:.\source\rte/sc_input.h ****    RC_t ret = RC_SUCCESS;
 164:.\source\rte/sc_input.h **** 
 165:.\source\rte/sc_input.h ****    //Set value and raw value
 166:.\source\rte/sc_input.h ****    signal->value  = SC_INPUT_INIT_DATA;
 167:.\source\rte/sc_input.h ****    signal->age    = 0;
 168:.\source\rte/sc_input.h ****    signal->status = RTE_SIGNALSTATUS_INITIALIZED;
 169:.\source\rte/sc_input.h **** 
 170:.\source\rte/sc_input.h ****    return ret;
 171:.\source\rte/sc_input.h **** }
 172:.\source\rte/sc_input.h **** 
 173:.\source\rte/sc_input.h **** /**************************************************************************************************
 174:.\source\rte/sc_input.h **** /* Status and timeout control																						*/
 175:.\source\rte/sc_input.h **** /**************************************************************************************************
 176:.\source\rte/sc_input.h **** 
 177:.\source\rte/sc_input.h **** /**
 178:.\source\rte/sc_input.h ****  *  Returns the current signal status of the passed signal instance.
 179:.\source\rte/sc_input.h ****  *
 180:.\source\rte/sc_input.h ****  * @param  SC_INPUT_t * const signal: Pointer to the signal object
 181:.\source\rte/sc_input.h ****  * @return  sig_status_t: The current signal status
 182:.\source\rte/sc_input.h ****  *
 183:.\source\rte/sc_input.h ****  **/
 184:.\source\rte/sc_input.h **** inline RTE_signalStatus_t RTE_SC_INPUT_getStatus( const SC_INPUT_t * const signal )
 185:.\source\rte/sc_input.h **** {
 186:.\source\rte/sc_input.h ****    return signal->status;
 187:.\source\rte/sc_input.h **** }
 188:.\source\rte/sc_input.h **** 
 189:.\source\rte/sc_input.h **** 
 190:.\source\rte/sc_input.h **** /**
 191:.\source\rte/sc_input.h ****  *  Sets a new signal status of the passed signal instance by passing the new status.
 192:.\source\rte/sc_input.h ****  *
 193:.\source\rte/sc_input.h ****  * @param  SC_INPUT_t * const signal: Pointer to the signal object
 194:.\source\rte/sc_input.h ****  * @param  const sig_status_t status: New signal status
 195:.\source\rte/sc_input.h ****  * @return RC_t: standard return code, currently only RC_SUCCESS
 196:.\source\rte/sc_input.h ****  *
 197:.\source\rte/sc_input.h ****  */
 198:.\source\rte/sc_input.h **** inline RC_t RTE_SC_INPUT_setStatus( SC_INPUT_t * const signal, const RTE_signalStatus_t status )
 199:.\source\rte/sc_input.h **** {
 200:.\source\rte/sc_input.h ****    signal->status = status;
 201:.\source\rte/sc_input.h ****    size_t taskNum=0;
 202:.\source\rte/sc_input.h ****    
 203:.\source\rte/sc_input.h ****    //Fire error events in case of invalid state
 204:.\source\rte/sc_input.h ****    if (signal->status == RTE_SIGNALSTATUS_INVALID)
 205:.\source\rte/sc_input.h ****    {
 206:.\source\rte/sc_input.h **** 	    //Pointer to the Taskarray, containing the tasks receiving the onUpdate events
 207:.\source\rte/sc_input.h **** 		TaskTypeArray* pTaskArray = signal->pSigCfg->onErrorTasks;
ARM GAS  C:\Users\saman\AppData\Local\Temp\ccOAgYwr.s 			page 20


 208:.\source\rte/sc_input.h **** 
 209:.\source\rte/sc_input.h **** 		if (0 != signal->pSigCfg->evOnError && NULL != pTaskArray){
 210:.\source\rte/sc_input.h **** 			for( taskNum=0 ; taskNum < signal->pSigCfg->onErrorTaskCount ;taskNum++){
 211:.\source\rte/sc_input.h **** 				TaskType task = (*pTaskArray)[taskNum];
 212:.\source\rte/sc_input.h **** 				SetEvent( task, signal->pSigCfg->evOnError);
 213:.\source\rte/sc_input.h **** 			}
 214:.\source\rte/sc_input.h **** 		}
 215:.\source\rte/sc_input.h ****    }
 216:.\source\rte/sc_input.h ****    
 217:.\source\rte/sc_input.h ****    return RC_SUCCESS;
 218:.\source\rte/sc_input.h **** }
 219:.\source\rte/sc_input.h **** 
 220:.\source\rte/sc_input.h **** 
 221:.\source\rte/sc_input.h **** /**
 222:.\source\rte/sc_input.h ****  * Returns the count of refreshing trials (refresh, set or set_raw) that failed.
 223:.\source\rte/sc_input.h ****  * Prerquisite: The signal is refreshed cyclically
 224:.\source\rte/sc_input.h ****  *
 225:.\source\rte/sc_input.h ****  * @param  SC_INPUT_t * const signal: Pointer to the signal object
 226:.\source\rte/sc_input.h ****  * @return uint32_t: Number of cycles since the signal has been updated for the last time
 227:.\source\rte/sc_input.h ****  */
 228:.\source\rte/sc_input.h **** inline uint32_t RTE_SC_INPUT_getAge( const SC_INPUT_t * const signal )
 229:.\source\rte/sc_input.h **** {
 230:.\source\rte/sc_input.h ****    return signal->age;
 231:.\source\rte/sc_input.h **** }
 232:.\source\rte/sc_input.h **** 
 233:.\source\rte/sc_input.h **** /**
 234:.\source\rte/sc_input.h ****  * Should be called by application or driver if no new value can be provided.
 235:.\source\rte/sc_input.h ****  * @param  SC_INPUT_t * const signal: Pointer to the signal object
 236:.\source\rte/sc_input.h ****  * @param uint32_t increment: incrementvalue, typically in [ms]
 237:.\source\rte/sc_input.h ****  * @return void
 238:.\source\rte/sc_input.h ****  */
 239:.\source\rte/sc_input.h **** inline void RTE_SC_INPUT_incAge(  SC_INPUT_t * const signal , uint32_t increment)
 240:.\source\rte/sc_input.h **** {
 241:.\source\rte/sc_input.h **** 	   //Hack....
 242:.\source\rte/sc_input.h **** 	   if ( 0xFFFF0000 > (signal->age + increment) )
 243:.\source\rte/sc_input.h **** 	   {
 244:.\source\rte/sc_input.h **** 	      signal->age += increment;
 245:.\source\rte/sc_input.h **** 	   }
 246:.\source\rte/sc_input.h **** }
 247:.\source\rte/sc_input.h **** 
 248:.\source\rte/sc_input.h **** 
 249:.\source\rte/sc_input.h **** /**************************************************************************************************
 250:.\source\rte/sc_input.h **** /* Application Data read/write Interface																			*/
 251:.\source\rte/sc_input.h **** /**************************************************************************************************
 252:.\source\rte/sc_input.h **** 
 253:.\source\rte/sc_input.h **** /**
 254:.\source\rte/sc_input.h ****  * Returns the current application value as pointer to the signal payload.
 255:.\source\rte/sc_input.h ****  * Careful: This is not threadsafe!!!
 256:.\source\rte/sc_input.h ****  *
 257:.\source\rte/sc_input.h ****  * @param  SC_INPUT_t * const signal: Pointer to the signal object
 258:.\source\rte/sc_input.h ****  * @return sc_input_data_t*: pointer to the current value of the application data buffer
 259:.\source\rte/sc_input.h ****  *
 260:.\source\rte/sc_input.h ****  **/
 261:.\source\rte/sc_input.h **** inline SC_INPUT_data_t* RTE_SC_INPUT_getPtr( SC_INPUT_t * const signal )
 262:.\source\rte/sc_input.h **** {               
 263:.\source\rte/sc_input.h ****    //Todo: Critical region cannot be protected using return values																						
 264:.\source\rte/sc_input.h ****    return &(signal->value);                                                                        
ARM GAS  C:\Users\saman\AppData\Local\Temp\ccOAgYwr.s 			page 21


 265:.\source\rte/sc_input.h **** }
 266:.\source\rte/sc_input.h **** 
 267:.\source\rte/sc_input.h **** /**
 268:.\source\rte/sc_input.h ****  * Returns the current application value of the passed signal instance.
 269:.\source\rte/sc_input.h ****  *
 270:.\source\rte/sc_input.h ****  * @param  SC_INPUT_t * const signal: Pointer to the signal object
 271:.\source\rte/sc_input.h ****  * @return sc_input_data_t: current value of the application data buffer
 272:.\source\rte/sc_input.h ****  *
 273:.\source\rte/sc_input.h ****  **/
 274:.\source\rte/sc_input.h **** inline SC_INPUT_data_t RTE_SC_INPUT_get( const SC_INPUT_t * const signal )
 275:.\source\rte/sc_input.h **** {               
 276:.\source\rte/sc_input.h ****    //Todo: Critical region cannot be protected using return values																						
 277:.\source\rte/sc_input.h ****    return signal->value;                                                                           
 163              		.loc 3 277 0
 164 0004 4422     		movs	r2, #68
 165 0006 2949     		ldr	r1, .L17
 166 0008 0DA8     		add	r0, sp, #52
 167 000a FFF7FEFF 		bl	memcpy
 168              	.LVL13:
 169              	.LBE86:
 170              	.LBE85:
 171              	.LBB87:
 172              	.LBB88:
 277:.\source\rte/sc_control.h **** }                                                                                                  
 173              		.loc 2 277 0
 174 000e 07AC     		add	r4, sp, #28
 175 0010 274D     		ldr	r5, .L17+4
 176 0012 0FCD     		ldmia	r5!, {r0, r1, r2, r3}
 177 0014 0FC4     		stmia	r4!, {r0, r1, r2, r3}
 178 0016 95E80300 		ldmia	r5, {r0, r1}
 179 001a 84E80300 		stmia	r4, {r0, r1}
 180              	.LVL14:
 181              	.LBE88:
 182              	.LBE87:
 383:source\asw/clock.c ****     SC_INPUT_data_t input = RTE_SC_INPUT_get(&SO_INPUT_signal);
 384:source\asw/clock.c ****     SC_CONTROL_data_t control =RTE_SC_CONTROL_get(&SO_CONTROL_signal);
 385:source\asw/clock.c ****     if(input.m_clock_data.m_activeWidget == CLOCK_HOURWIDGET)
 183              		.loc 1 385 0
 184 001e 9DF84430 		ldrb	r3, [sp, #68]	@ zero_extendqisi2
 185 0022 5BB9     		cbnz	r3, .L10
 386:source\asw/clock.c ****     {
 387:source\asw/clock.c ****         //UART_LOG_PutString("hr edit font\n");
 388:source\asw/clock.c ****         control.hour.font_type.bg_colour = WHITE;
 186              		.loc 1 388 0
 187 0024 4FF6FF73 		movw	r3, #65535
 188 0028 ADF82030 		strh	r3, [sp, #32]	@ movhi
 389:source\asw/clock.c ****         control.hour.font_type.widget = BLACK;
 189              		.loc 1 389 0
 190 002c 0022     		movs	r2, #0
 191 002e ADF82220 		strh	r2, [sp, #34]	@ movhi
 390:source\asw/clock.c ****         control.minute.font_type.bg_colour   = BLACK;
 192              		.loc 1 390 0
 193 0032 ADF82C20 		strh	r2, [sp, #44]	@ movhi
 391:source\asw/clock.c ****         control.minute.font_type.widget = WHITE;
 194              		.loc 1 391 0
 195 0036 ADF82E30 		strh	r3, [sp, #46]	@ movhi
 196 003a 0CE0     		b	.L11
ARM GAS  C:\Users\saman\AppData\Local\Temp\ccOAgYwr.s 			page 22


 197              	.L10:
 392:source\asw/clock.c ****     }
 393:source\asw/clock.c ****     else if(input.m_clock_data.m_activeWidget == CLOCK_MINWIDGET)
 198              		.loc 1 393 0
 199 003c 012B     		cmp	r3, #1
 200 003e 0AD1     		bne	.L11
 394:source\asw/clock.c ****     {
 395:source\asw/clock.c ****         //UART_LOG_PutString("min edit font\n");        
 396:source\asw/clock.c ****         control.hour.font_type.bg_colour = BLACK;
 201              		.loc 1 396 0
 202 0040 0023     		movs	r3, #0
 203 0042 ADF82030 		strh	r3, [sp, #32]	@ movhi
 397:source\asw/clock.c ****         control.hour.font_type.widget = WHITE;
 204              		.loc 1 397 0
 205 0046 4FF6FF72 		movw	r2, #65535
 206 004a ADF82220 		strh	r2, [sp, #34]	@ movhi
 398:source\asw/clock.c ****         control.minute.font_type.bg_colour   = WHITE;
 207              		.loc 1 398 0
 208 004e ADF82C20 		strh	r2, [sp, #44]	@ movhi
 399:source\asw/clock.c ****         control.minute.font_type.widget = BLACK;
 209              		.loc 1 399 0
 210 0052 ADF82E30 		strh	r3, [sp, #46]	@ movhi
 211              	.L11:
 212              	.LVL15:
 213 0056 01AC     		add	r4, sp, #4
 214 0058 07AD     		add	r5, sp, #28
 215 005a 0FCD     		ldmia	r5!, {r0, r1, r2, r3}
 216 005c 0FC4     		stmia	r4!, {r0, r1, r2, r3}
 217 005e 95E80300 		ldmia	r5, {r0, r1}
 218 0062 84E80300 		stmia	r4, {r0, r1}
 219              	.LVL16:
 220              	.LBB89:
 221              	.LBB90:
 316:.\source\rte/sc_control.h ****    signal->value  = value;
 222              		.loc 2 316 0
 223 0066 124E     		ldr	r6, .L17+4
 224 0068 376A     		ldr	r7, [r6, #32]
 317:.\source\rte/sc_control.h ****    signal->age    = 0;
 225              		.loc 2 317 0
 226 006a 3446     		mov	r4, r6
 227 006c 01AD     		add	r5, sp, #4
 228 006e 0FCD     		ldmia	r5!, {r0, r1, r2, r3}
 229 0070 0FC4     		stmia	r4!, {r0, r1, r2, r3}
 230 0072 95E80300 		ldmia	r5, {r0, r1}
 231 0076 84E80300 		stmia	r4, {r0, r1}
 318:.\source\rte/sc_control.h ****    signal->status = RTE_SIGNALSTATUS_VALID;
 232              		.loc 2 318 0
 233 007a 0023     		movs	r3, #0
 234 007c F361     		str	r3, [r6, #28]
 319:.\source\rte/sc_control.h ****    if (TRUE == signal->pSigCfg->resourceActive) ReleaseResource(signal->pSigCfg->resource);
 235              		.loc 2 319 0
 236 007e 0223     		movs	r3, #2
 237 0080 3376     		strb	r3, [r6, #24]
 323:.\source\rte/sc_control.h **** 
 238              		.loc 2 323 0
 239 0082 7D69     		ldr	r5, [r7, #20]
 240              	.LVL17:
ARM GAS  C:\Users\saman\AppData\Local\Temp\ccOAgYwr.s 			page 23


 325:.\source\rte/sc_control.h ****       for( taskNum=0 ; taskNum < signal->pSigCfg->onUpdateTaskCount ;taskNum++){
 241              		.loc 2 325 0
 242 0084 BB68     		ldr	r3, [r7, #8]
 243 0086 73B1     		cbz	r3, .L9
 244 0088 3DB9     		cbnz	r5, .L15
 245 008a 0CE0     		b	.L9
 246              	.LVL18:
 247              	.L14:
 248              	.LBB91:
 249              		.loc 2 329 0
 250 008c 9968     		ldr	r1, [r3, #8]
 251 008e 55F82400 		ldr	r0, [r5, r4, lsl #2]
 252 0092 FFF7FEFF 		bl	EE_oo_SetEvent
 253              	.LVL19:
 254              	.LBE91:
 326:.\source\rte/sc_control.h **** 		  
 255              		.loc 2 326 0
 256 0096 0134     		adds	r4, r4, #1
 257              	.LVL20:
 258 0098 00E0     		b	.L13
 259              	.LVL21:
 260              	.L15:
 325:.\source\rte/sc_control.h ****       for( taskNum=0 ; taskNum < signal->pSigCfg->onUpdateTaskCount ;taskNum++){
 261              		.loc 2 325 0
 262 009a 0024     		movs	r4, #0
 263              	.LVL22:
 264              	.L13:
 326:.\source\rte/sc_control.h **** 		  
 265              		.loc 2 326 0
 266 009c 044B     		ldr	r3, .L17+4
 267 009e 1B6A     		ldr	r3, [r3, #32]
 268 00a0 1A69     		ldr	r2, [r3, #16]
 269 00a2 9442     		cmp	r4, r2
 270 00a4 F2D3     		bcc	.L14
 271              	.LVL23:
 272              	.L9:
 273              	.LBE90:
 274              	.LBE89:
 400:source\asw/clock.c ****     }
 401:source\asw/clock.c ****     RTE_SC_CONTROL_set(&SO_CONTROL_signal, control);
 402:source\asw/clock.c **** }
 275              		.loc 1 402 0
 276 00a6 1FB0     		add	sp, sp, #124
 277              		.cfi_def_cfa_offset 20
 278              		@ sp needed
 279 00a8 F0BD     		pop	{r4, r5, r6, r7, pc}
 280              	.LVL24:
 281              	.L18:
 282 00aa 00BF     		.align	2
 283              	.L17:
 284 00ac 00000000 		.word	SO_INPUT_signal
 285 00b0 00000000 		.word	SO_CONTROL_signal
 286              		.cfi_endproc
 287              	.LFE159:
 288              		.size	CLOCK__setEditFonts, .-CLOCK__setEditFonts
 289              		.section	.text.CLOCK__updateDisplay,"ax",%progbits
 290              		.align	2
ARM GAS  C:\Users\saman\AppData\Local\Temp\ccOAgYwr.s 			page 24


 291              		.thumb
 292              		.thumb_func
 293              		.type	CLOCK__updateDisplay, %function
 294              	CLOCK__updateDisplay:
 295              	.LFB160:
 403:source\asw/clock.c **** 
 404:source\asw/clock.c **** void CLOCK__updateDisplay()
 405:source\asw/clock.c **** {
 296              		.loc 1 405 0
 297              		.cfi_startproc
 298              		@ args = 0, pretend = 0, frame = 48
 299              		@ frame_needed = 0, uses_anonymous_args = 0
 300 0000 F0B5     		push	{r4, r5, r6, r7, lr}
 301              		.cfi_def_cfa_offset 20
 302              		.cfi_offset 4, -20
 303              		.cfi_offset 5, -16
 304              		.cfi_offset 6, -12
 305              		.cfi_offset 7, -8
 306              		.cfi_offset 14, -4
 307 0002 8DB0     		sub	sp, sp, #52
 308              		.cfi_def_cfa_offset 72
 309              	.LVL25:
 310              	.LBB92:
 311              	.LBB93:
 277:.\source\rte/sc_control.h **** }                                                                                                  
 312              		.loc 2 277 0
 313 0004 184F     		ldr	r7, .L25
 314 0006 06AD     		add	r5, sp, #24
 315 0008 3C46     		mov	r4, r7
 316 000a 0FCC     		ldmia	r4!, {r0, r1, r2, r3}
 317 000c 0FC5     		stmia	r5!, {r0, r1, r2, r3}
 318 000e 94E80300 		ldmia	r4, {r0, r1}
 319 0012 85E80300 		stmia	r5, {r0, r1}
 320              	.LVL26:
 321 0016 6D46     		mov	r5, sp
 322 0018 06AE     		add	r6, sp, #24
 323 001a 0FCE     		ldmia	r6!, {r0, r1, r2, r3}
 324 001c 0FC5     		stmia	r5!, {r0, r1, r2, r3}
 325 001e 96E80300 		ldmia	r6, {r0, r1}
 326 0022 85E80300 		stmia	r5, {r0, r1}
 327              	.LVL27:
 328              	.LBE93:
 329              	.LBE92:
 330              	.LBB94:
 331              	.LBB95:
 316:.\source\rte/sc_control.h ****    signal->value  = value;
 332              		.loc 2 316 0
 333 0026 D7F820E0 		ldr	lr, [r7, #32]
 317:.\source\rte/sc_control.h ****    signal->age    = 0;
 334              		.loc 2 317 0
 335 002a 3E46     		mov	r6, r7
 336 002c 6D46     		mov	r5, sp
 337 002e 0FCD     		ldmia	r5!, {r0, r1, r2, r3}
 338 0030 0FC6     		stmia	r6!, {r0, r1, r2, r3}
 318:.\source\rte/sc_control.h ****    signal->status = RTE_SIGNALSTATUS_VALID;
 339              		.loc 2 318 0
 340 0032 0023     		movs	r3, #0
ARM GAS  C:\Users\saman\AppData\Local\Temp\ccOAgYwr.s 			page 25


 341 0034 FB61     		str	r3, [r7, #28]
 319:.\source\rte/sc_control.h ****    if (TRUE == signal->pSigCfg->resourceActive) ReleaseResource(signal->pSigCfg->resource);
 342              		.loc 2 319 0
 343 0036 0223     		movs	r3, #2
 344 0038 3B76     		strb	r3, [r7, #24]
 323:.\source\rte/sc_control.h **** 
 345              		.loc 2 323 0
 346 003a DEF81450 		ldr	r5, [lr, #20]
 347              	.LVL28:
 325:.\source\rte/sc_control.h ****       for( taskNum=0 ; taskNum < signal->pSigCfg->onUpdateTaskCount ;taskNum++){
 348              		.loc 2 325 0
 349 003e DEF80830 		ldr	r3, [lr, #8]
 350 0042 73B1     		cbz	r3, .L19
 351 0044 3DB9     		cbnz	r5, .L23
 352 0046 0CE0     		b	.L19
 353              	.LVL29:
 354              	.L22:
 355              	.LBB96:
 356              		.loc 2 329 0
 357 0048 9968     		ldr	r1, [r3, #8]
 358 004a 55F82400 		ldr	r0, [r5, r4, lsl #2]
 359 004e FFF7FEFF 		bl	EE_oo_SetEvent
 360              	.LVL30:
 361              	.LBE96:
 326:.\source\rte/sc_control.h **** 		  
 362              		.loc 2 326 0
 363 0052 0134     		adds	r4, r4, #1
 364              	.LVL31:
 365 0054 00E0     		b	.L21
 366              	.LVL32:
 367              	.L23:
 325:.\source\rte/sc_control.h ****       for( taskNum=0 ; taskNum < signal->pSigCfg->onUpdateTaskCount ;taskNum++){
 368              		.loc 2 325 0
 369 0056 0024     		movs	r4, #0
 370              	.LVL33:
 371              	.L21:
 326:.\source\rte/sc_control.h **** 		  
 372              		.loc 2 326 0
 373 0058 034B     		ldr	r3, .L25
 374 005a 1B6A     		ldr	r3, [r3, #32]
 375 005c 1A69     		ldr	r2, [r3, #16]
 376 005e 9442     		cmp	r4, r2
 377 0060 F2D3     		bcc	.L22
 378              	.LVL34:
 379              	.L19:
 380              	.LBE95:
 381              	.LBE94:
 406:source\asw/clock.c ****     SC_CONTROL_data_t control = RTE_SC_CONTROL_get(&SO_CONTROL_signal);
 407:source\asw/clock.c ****     RTE_SC_CONTROL_set(&SO_CONTROL_signal, control);   
 408:source\asw/clock.c **** }
 382              		.loc 1 408 0
 383 0062 0DB0     		add	sp, sp, #52
 384              		.cfi_def_cfa_offset 20
 385              		@ sp needed
 386 0064 F0BD     		pop	{r4, r5, r6, r7, pc}
 387              	.LVL35:
 388              	.L26:
ARM GAS  C:\Users\saman\AppData\Local\Temp\ccOAgYwr.s 			page 26


 389 0066 00BF     		.align	2
 390              	.L25:
 391 0068 00000000 		.word	SO_CONTROL_signal
 392              		.cfi_endproc
 393              	.LFE160:
 394              		.size	CLOCK__updateDisplay, .-CLOCK__updateDisplay
 395              		.section	.text.CLOCK__updateTime,"ax",%progbits
 396              		.align	2
 397              		.thumb
 398              		.thumb_func
 399              		.type	CLOCK__updateTime, %function
 400              	CLOCK__updateTime:
 401              	.LFB161:
 409:source\asw/clock.c **** 
 410:source\asw/clock.c **** void CLOCK__updateTime()
 411:source\asw/clock.c **** {
 402              		.loc 1 411 0
 403              		.cfi_startproc
 404              		@ args = 0, pretend = 0, frame = 48
 405              		@ frame_needed = 0, uses_anonymous_args = 0
 406 0000 F0B5     		push	{r4, r5, r6, r7, lr}
 407              		.cfi_def_cfa_offset 20
 408              		.cfi_offset 4, -20
 409              		.cfi_offset 5, -16
 410              		.cfi_offset 6, -12
 411              		.cfi_offset 7, -8
 412              		.cfi_offset 14, -4
 413 0002 8DB0     		sub	sp, sp, #52
 414              		.cfi_def_cfa_offset 72
 415              	.LVL36:
 416              	.LBB97:
 417              	.LBB98:
 277:.\source\rte/sc_control.h **** }                                                                                                  
 418              		.loc 2 277 0
 419 0004 06AC     		add	r4, sp, #24
 420 0006 2C4D     		ldr	r5, .L35
 421 0008 0FCD     		ldmia	r5!, {r0, r1, r2, r3}
 422 000a 0FC4     		stmia	r4!, {r0, r1, r2, r3}
 423 000c 95E80300 		ldmia	r5, {r0, r1}
 424 0010 84E80300 		stmia	r4, {r0, r1}
 425              	.LVL37:
 426              	.LBE98:
 427              	.LBE97:
 412:source\asw/clock.c ****     //UART_LOG_PutString("CLOCK__updateTime\n");
 413:source\asw/clock.c ****     SC_CONTROL_data_t time = RTE_SC_CONTROL_get(&SO_CONTROL_signal);
 414:source\asw/clock.c ****     time.minute.value++;
 428              		.loc 1 414 0
 429 0014 9DF82E30 		ldrb	r3, [sp, #46]	@ zero_extendqisi2
 430 0018 0133     		adds	r3, r3, #1
 431 001a DBB2     		uxtb	r3, r3
 432 001c 8DF82E30 		strb	r3, [sp, #46]
 415:source\asw/clock.c ****     if(time.minute.value%60 == 0)
 433              		.loc 1 415 0
 434 0020 264A     		ldr	r2, .L35+4
 435 0022 A2FB0312 		umull	r1, r2, r2, r3
 436 0026 5209     		lsrs	r2, r2, #5
 437 0028 C2EB0212 		rsb	r2, r2, r2, lsl #4
ARM GAS  C:\Users\saman\AppData\Local\Temp\ccOAgYwr.s 			page 27


 438 002c 9100     		lsls	r1, r2, #2
 439 002e 5B1A     		subs	r3, r3, r1
 440 0030 13F0FF0F 		tst	r3, #255
 441 0034 16D1     		bne	.L28
 416:source\asw/clock.c ****     {
 417:source\asw/clock.c ****         //UART_LOG_PutString("1 hr\n");
 418:source\asw/clock.c ****         time.hour.value++;
 442              		.loc 1 418 0
 443 0036 9DF82230 		ldrb	r3, [sp, #34]	@ zero_extendqisi2
 444 003a 0133     		adds	r3, r3, #1
 445 003c DBB2     		uxtb	r3, r3
 446 003e 8DF82230 		strb	r3, [sp, #34]
 419:source\asw/clock.c ****         if(time.hour.value%24 == 0)
 447              		.loc 1 419 0
 448 0042 1F4A     		ldr	r2, .L35+8
 449 0044 A2FB0312 		umull	r1, r2, r2, r3
 450 0048 1209     		lsrs	r2, r2, #4
 451 004a 02EB4202 		add	r2, r2, r2, lsl #1
 452 004e D100     		lsls	r1, r2, #3
 453 0050 5B1A     		subs	r3, r3, r1
 454 0052 13F0FF0F 		tst	r3, #255
 455 0056 02D1     		bne	.L29
 420:source\asw/clock.c ****         {
 421:source\asw/clock.c ****             time.hour.value = 0;
 456              		.loc 1 421 0
 457 0058 0023     		movs	r3, #0
 458 005a 8DF82230 		strb	r3, [sp, #34]
 459              	.L29:
 422:source\asw/clock.c ****         }
 423:source\asw/clock.c ****         time.minute.value = 0;
 460              		.loc 1 423 0
 461 005e 0023     		movs	r3, #0
 462 0060 8DF82E30 		strb	r3, [sp, #46]
 463              	.L28:
 464              	.LVL38:
 465 0064 6C46     		mov	r4, sp
 466 0066 06AD     		add	r5, sp, #24
 467 0068 0FCD     		ldmia	r5!, {r0, r1, r2, r3}
 468 006a 0FC4     		stmia	r4!, {r0, r1, r2, r3}
 469 006c 95E80300 		ldmia	r5, {r0, r1}
 470 0070 84E80300 		stmia	r4, {r0, r1}
 471              	.LVL39:
 472              	.LBB99:
 473              	.LBB100:
 316:.\source\rte/sc_control.h ****    signal->value  = value;
 474              		.loc 2 316 0
 475 0074 104E     		ldr	r6, .L35
 476 0076 376A     		ldr	r7, [r6, #32]
 317:.\source\rte/sc_control.h ****    signal->age    = 0;
 477              		.loc 2 317 0
 478 0078 3446     		mov	r4, r6
 479 007a 6D46     		mov	r5, sp
 480 007c 0FCD     		ldmia	r5!, {r0, r1, r2, r3}
 481 007e 0FC4     		stmia	r4!, {r0, r1, r2, r3}
 482 0080 95E80300 		ldmia	r5, {r0, r1}
 483 0084 84E80300 		stmia	r4, {r0, r1}
 318:.\source\rte/sc_control.h ****    signal->status = RTE_SIGNALSTATUS_VALID;
ARM GAS  C:\Users\saman\AppData\Local\Temp\ccOAgYwr.s 			page 28


 484              		.loc 2 318 0
 485 0088 0023     		movs	r3, #0
 486 008a F361     		str	r3, [r6, #28]
 319:.\source\rte/sc_control.h ****    if (TRUE == signal->pSigCfg->resourceActive) ReleaseResource(signal->pSigCfg->resource);
 487              		.loc 2 319 0
 488 008c 0223     		movs	r3, #2
 489 008e 3376     		strb	r3, [r6, #24]
 323:.\source\rte/sc_control.h **** 
 490              		.loc 2 323 0
 491 0090 7D69     		ldr	r5, [r7, #20]
 492              	.LVL40:
 325:.\source\rte/sc_control.h ****       for( taskNum=0 ; taskNum < signal->pSigCfg->onUpdateTaskCount ;taskNum++){
 493              		.loc 2 325 0
 494 0092 BB68     		ldr	r3, [r7, #8]
 495 0094 73B1     		cbz	r3, .L27
 496 0096 3DB9     		cbnz	r5, .L33
 497 0098 0CE0     		b	.L27
 498              	.LVL41:
 499              	.L32:
 500              	.LBB101:
 501              		.loc 2 329 0
 502 009a 9968     		ldr	r1, [r3, #8]
 503 009c 55F82400 		ldr	r0, [r5, r4, lsl #2]
 504 00a0 FFF7FEFF 		bl	EE_oo_SetEvent
 505              	.LVL42:
 506              	.LBE101:
 326:.\source\rte/sc_control.h **** 		  
 507              		.loc 2 326 0
 508 00a4 0134     		adds	r4, r4, #1
 509              	.LVL43:
 510 00a6 00E0     		b	.L31
 511              	.LVL44:
 512              	.L33:
 325:.\source\rte/sc_control.h ****       for( taskNum=0 ; taskNum < signal->pSigCfg->onUpdateTaskCount ;taskNum++){
 513              		.loc 2 325 0
 514 00a8 0024     		movs	r4, #0
 515              	.LVL45:
 516              	.L31:
 326:.\source\rte/sc_control.h **** 		  
 517              		.loc 2 326 0
 518 00aa 034B     		ldr	r3, .L35
 519 00ac 1B6A     		ldr	r3, [r3, #32]
 520 00ae 1A69     		ldr	r2, [r3, #16]
 521 00b0 9442     		cmp	r4, r2
 522 00b2 F2D3     		bcc	.L32
 523              	.LVL46:
 524              	.L27:
 525              	.LBE100:
 526              	.LBE99:
 424:source\asw/clock.c ****     }
 425:source\asw/clock.c ****     RTE_SC_CONTROL_set(&SO_CONTROL_signal, time);
 426:source\asw/clock.c **** }
 527              		.loc 1 426 0
 528 00b4 0DB0     		add	sp, sp, #52
 529              		.cfi_def_cfa_offset 20
 530              		@ sp needed
 531 00b6 F0BD     		pop	{r4, r5, r6, r7, pc}
ARM GAS  C:\Users\saman\AppData\Local\Temp\ccOAgYwr.s 			page 29


 532              	.LVL47:
 533              	.L36:
 534              		.align	2
 535              	.L35:
 536 00b8 00000000 		.word	SO_CONTROL_signal
 537 00bc 89888888 		.word	-2004318071
 538 00c0 ABAAAAAA 		.word	-1431655765
 539              		.cfi_endproc
 540              	.LFE161:
 541              		.size	CLOCK__updateTime, .-CLOCK__updateTime
 542              		.section	.text.CLOCK__increment1Minute,"ax",%progbits
 543              		.align	2
 544              		.thumb
 545              		.thumb_func
 546              		.type	CLOCK__increment1Minute, %function
 547              	CLOCK__increment1Minute:
 548              	.LFB148:
 292:source\asw/clock.c ****     CLOCK__updateTime();
 549              		.loc 1 292 0
 550              		.cfi_startproc
 551              		@ args = 0, pretend = 0, frame = 0
 552              		@ frame_needed = 0, uses_anonymous_args = 0
 553 0000 08B5     		push	{r3, lr}
 554              		.cfi_def_cfa_offset 8
 555              		.cfi_offset 3, -8
 556              		.cfi_offset 14, -4
 293:source\asw/clock.c **** }
 557              		.loc 1 293 0
 558 0002 FFF7FEFF 		bl	CLOCK__updateTime
 559              	.LVL48:
 560 0006 08BD     		pop	{r3, pc}
 561              		.cfi_endproc
 562              	.LFE148:
 563              		.size	CLOCK__increment1Minute, .-CLOCK__increment1Minute
 564              		.section	.text.CLOCK__incrementHourandDisplay,"ax",%progbits
 565              		.align	2
 566              		.thumb
 567              		.thumb_func
 568              		.type	CLOCK__incrementHourandDisplay, %function
 569              	CLOCK__incrementHourandDisplay:
 570              	.LFB162:
 427:source\asw/clock.c **** 
 428:source\asw/clock.c **** void CLOCK__incrementHourandDisplay()
 429:source\asw/clock.c **** {
 571              		.loc 1 429 0
 572              		.cfi_startproc
 573              		@ args = 0, pretend = 0, frame = 48
 574              		@ frame_needed = 0, uses_anonymous_args = 0
 575 0000 F0B5     		push	{r4, r5, r6, r7, lr}
 576              		.cfi_def_cfa_offset 20
 577              		.cfi_offset 4, -20
 578              		.cfi_offset 5, -16
 579              		.cfi_offset 6, -12
 580              		.cfi_offset 7, -8
 581              		.cfi_offset 14, -4
 582 0002 8DB0     		sub	sp, sp, #52
 583              		.cfi_def_cfa_offset 72
ARM GAS  C:\Users\saman\AppData\Local\Temp\ccOAgYwr.s 			page 30


 584              	.LVL49:
 585              	.LBB102:
 586              	.LBB103:
 277:.\source\rte/sc_control.h **** }                                                                                                  
 587              		.loc 2 277 0
 588 0004 06AC     		add	r4, sp, #24
 589 0006 234D     		ldr	r5, .L46
 590 0008 0FCD     		ldmia	r5!, {r0, r1, r2, r3}
 591 000a 0FC4     		stmia	r4!, {r0, r1, r2, r3}
 592 000c 95E80300 		ldmia	r5, {r0, r1}
 593 0010 84E80300 		stmia	r4, {r0, r1}
 594              	.LVL50:
 595              	.LBE103:
 596              	.LBE102:
 430:source\asw/clock.c ****     SC_CONTROL_data_t control = RTE_SC_CONTROL_get(&SO_CONTROL_signal);
 431:source\asw/clock.c ****     control.hour.value++;
 597              		.loc 1 431 0
 598 0014 9DF82230 		ldrb	r3, [sp, #34]	@ zero_extendqisi2
 599 0018 0133     		adds	r3, r3, #1
 600 001a DBB2     		uxtb	r3, r3
 601 001c 8DF82230 		strb	r3, [sp, #34]
 432:source\asw/clock.c ****     if(control.hour.value%24 == 0)
 602              		.loc 1 432 0
 603 0020 1D4A     		ldr	r2, .L46+4
 604 0022 A2FB0312 		umull	r1, r2, r2, r3
 605 0026 1209     		lsrs	r2, r2, #4
 606 0028 02EB4202 		add	r2, r2, r2, lsl #1
 607 002c D100     		lsls	r1, r2, #3
 608 002e 5B1A     		subs	r3, r3, r1
 609 0030 13F0FF0F 		tst	r3, #255
 610 0034 02D1     		bne	.L40
 433:source\asw/clock.c ****     {
 434:source\asw/clock.c ****         control.hour.value = 0;
 611              		.loc 1 434 0
 612 0036 0023     		movs	r3, #0
 613 0038 8DF82230 		strb	r3, [sp, #34]
 614              	.L40:
 435:source\asw/clock.c ****     }    
 436:source\asw/clock.c ****     /*itoa(clock_hour.hour.value, buffer, 10);
 437:source\asw/clock.c ****     UART_LOG_PutString("hr value: ");
 438:source\asw/clock.c ****     UART_LOG_PutString(buffer);
 439:source\asw/clock.c ****     UART_LOG_PutString("\n");*/
 440:source\asw/clock.c ****     CLOCK__updateDisplay(); 
 615              		.loc 1 440 0
 616 003c FFF7FEFF 		bl	CLOCK__updateDisplay
 617              	.LVL51:
 618 0040 6C46     		mov	r4, sp
 619 0042 06AD     		add	r5, sp, #24
 620 0044 0FCD     		ldmia	r5!, {r0, r1, r2, r3}
 621 0046 0FC4     		stmia	r4!, {r0, r1, r2, r3}
 622 0048 95E80300 		ldmia	r5, {r0, r1}
 623 004c 84E80300 		stmia	r4, {r0, r1}
 624              	.LVL52:
 625              	.LBB104:
 626              	.LBB105:
 316:.\source\rte/sc_control.h ****    signal->value  = value;
 627              		.loc 2 316 0
ARM GAS  C:\Users\saman\AppData\Local\Temp\ccOAgYwr.s 			page 31


 628 0050 104E     		ldr	r6, .L46
 629 0052 376A     		ldr	r7, [r6, #32]
 317:.\source\rte/sc_control.h ****    signal->age    = 0;
 630              		.loc 2 317 0
 631 0054 3446     		mov	r4, r6
 632 0056 6D46     		mov	r5, sp
 633 0058 0FCD     		ldmia	r5!, {r0, r1, r2, r3}
 634 005a 0FC4     		stmia	r4!, {r0, r1, r2, r3}
 635 005c 95E80300 		ldmia	r5, {r0, r1}
 636 0060 84E80300 		stmia	r4, {r0, r1}
 318:.\source\rte/sc_control.h ****    signal->status = RTE_SIGNALSTATUS_VALID;
 637              		.loc 2 318 0
 638 0064 0023     		movs	r3, #0
 639 0066 F361     		str	r3, [r6, #28]
 319:.\source\rte/sc_control.h ****    if (TRUE == signal->pSigCfg->resourceActive) ReleaseResource(signal->pSigCfg->resource);
 640              		.loc 2 319 0
 641 0068 0223     		movs	r3, #2
 642 006a 3376     		strb	r3, [r6, #24]
 323:.\source\rte/sc_control.h **** 
 643              		.loc 2 323 0
 644 006c 7D69     		ldr	r5, [r7, #20]
 645              	.LVL53:
 325:.\source\rte/sc_control.h ****       for( taskNum=0 ; taskNum < signal->pSigCfg->onUpdateTaskCount ;taskNum++){
 646              		.loc 2 325 0
 647 006e BB68     		ldr	r3, [r7, #8]
 648 0070 73B1     		cbz	r3, .L39
 649 0072 3DB9     		cbnz	r5, .L44
 650 0074 0CE0     		b	.L39
 651              	.LVL54:
 652              	.L43:
 653              	.LBB106:
 654              		.loc 2 329 0
 655 0076 9968     		ldr	r1, [r3, #8]
 656 0078 55F82400 		ldr	r0, [r5, r4, lsl #2]
 657 007c FFF7FEFF 		bl	EE_oo_SetEvent
 658              	.LVL55:
 659              	.LBE106:
 326:.\source\rte/sc_control.h **** 		  
 660              		.loc 2 326 0
 661 0080 0134     		adds	r4, r4, #1
 662              	.LVL56:
 663 0082 00E0     		b	.L42
 664              	.LVL57:
 665              	.L44:
 325:.\source\rte/sc_control.h ****       for( taskNum=0 ; taskNum < signal->pSigCfg->onUpdateTaskCount ;taskNum++){
 666              		.loc 2 325 0
 667 0084 0024     		movs	r4, #0
 668              	.LVL58:
 669              	.L42:
 326:.\source\rte/sc_control.h **** 		  
 670              		.loc 2 326 0
 671 0086 034B     		ldr	r3, .L46
 672 0088 1B6A     		ldr	r3, [r3, #32]
 673 008a 1A69     		ldr	r2, [r3, #16]
 674 008c 9442     		cmp	r4, r2
 675 008e F2D3     		bcc	.L43
 676              	.LVL59:
ARM GAS  C:\Users\saman\AppData\Local\Temp\ccOAgYwr.s 			page 32


 677              	.L39:
 678              	.LBE105:
 679              	.LBE104:
 441:source\asw/clock.c ****     
 442:source\asw/clock.c ****     RTE_SC_CONTROL_set(&SO_CONTROL_signal, control);
 443:source\asw/clock.c **** }
 680              		.loc 1 443 0
 681 0090 0DB0     		add	sp, sp, #52
 682              		.cfi_def_cfa_offset 20
 683              		@ sp needed
 684 0092 F0BD     		pop	{r4, r5, r6, r7, pc}
 685              	.LVL60:
 686              	.L47:
 687              		.align	2
 688              	.L46:
 689 0094 00000000 		.word	SO_CONTROL_signal
 690 0098 ABAAAAAA 		.word	-1431655765
 691              		.cfi_endproc
 692              	.LFE162:
 693              		.size	CLOCK__incrementHourandDisplay, .-CLOCK__incrementHourandDisplay
 694              		.section	.text.CLOCK__incrementMinuteandDisplay,"ax",%progbits
 695              		.align	2
 696              		.thumb
 697              		.thumb_func
 698              		.type	CLOCK__incrementMinuteandDisplay, %function
 699              	CLOCK__incrementMinuteandDisplay:
 700              	.LFB163:
 444:source\asw/clock.c **** 
 445:source\asw/clock.c **** void CLOCK__incrementMinuteandDisplay()
 446:source\asw/clock.c **** {
 701              		.loc 1 446 0
 702              		.cfi_startproc
 703              		@ args = 0, pretend = 0, frame = 48
 704              		@ frame_needed = 0, uses_anonymous_args = 0
 705 0000 F0B5     		push	{r4, r5, r6, r7, lr}
 706              		.cfi_def_cfa_offset 20
 707              		.cfi_offset 4, -20
 708              		.cfi_offset 5, -16
 709              		.cfi_offset 6, -12
 710              		.cfi_offset 7, -8
 711              		.cfi_offset 14, -4
 712 0002 8DB0     		sub	sp, sp, #52
 713              		.cfi_def_cfa_offset 72
 714              	.LVL61:
 715              	.LBB107:
 716              	.LBB108:
 277:.\source\rte/sc_control.h **** }                                                                                                  
 717              		.loc 2 277 0
 718 0004 06AC     		add	r4, sp, #24
 719 0006 244D     		ldr	r5, .L55
 720 0008 0FCD     		ldmia	r5!, {r0, r1, r2, r3}
 721 000a 0FC4     		stmia	r4!, {r0, r1, r2, r3}
 722 000c 95E80300 		ldmia	r5, {r0, r1}
 723 0010 84E80300 		stmia	r4, {r0, r1}
 724              	.LVL62:
 725              	.LBE108:
 726              	.LBE107:
ARM GAS  C:\Users\saman\AppData\Local\Temp\ccOAgYwr.s 			page 33


 447:source\asw/clock.c ****     SC_CONTROL_data_t control = RTE_SC_CONTROL_get(&SO_CONTROL_signal);   
 448:source\asw/clock.c ****     control.minute.value++;
 727              		.loc 1 448 0
 728 0014 9DF82E30 		ldrb	r3, [sp, #46]	@ zero_extendqisi2
 729 0018 0133     		adds	r3, r3, #1
 730 001a DBB2     		uxtb	r3, r3
 731 001c 8DF82E30 		strb	r3, [sp, #46]
 449:source\asw/clock.c ****     if(control.minute.value%60 == 0)
 732              		.loc 1 449 0
 733 0020 1E4A     		ldr	r2, .L55+4
 734 0022 A2FB0312 		umull	r1, r2, r2, r3
 735 0026 5209     		lsrs	r2, r2, #5
 736 0028 C2EB0212 		rsb	r2, r2, r2, lsl #4
 737 002c 9100     		lsls	r1, r2, #2
 738 002e 5B1A     		subs	r3, r3, r1
 739 0030 13F0FF0F 		tst	r3, #255
 740 0034 04D1     		bne	.L49
 450:source\asw/clock.c ****     {
 451:source\asw/clock.c ****         control.minute.value = 0;
 741              		.loc 1 451 0
 742 0036 0023     		movs	r3, #0
 743 0038 8DF82E30 		strb	r3, [sp, #46]
 452:source\asw/clock.c ****         CLOCK__incrementHourandDisplay();
 744              		.loc 1 452 0
 745 003c FFF7FEFF 		bl	CLOCK__incrementHourandDisplay
 746              	.LVL63:
 747              	.L49:
 453:source\asw/clock.c ****     }
 454:source\asw/clock.c ****     /*itoa(clock_minute.minute.value, buffer, 10);
 455:source\asw/clock.c ****     UART_LOG_PutString("min value: ");
 456:source\asw/clock.c ****     UART_LOG_PutString(buffer);
 457:source\asw/clock.c ****     UART_LOG_PutString("\n");*/
 458:source\asw/clock.c ****     CLOCK__updateDisplay();
 748              		.loc 1 458 0
 749 0040 FFF7FEFF 		bl	CLOCK__updateDisplay
 750              	.LVL64:
 751 0044 6C46     		mov	r4, sp
 752 0046 06AD     		add	r5, sp, #24
 753 0048 0FCD     		ldmia	r5!, {r0, r1, r2, r3}
 754 004a 0FC4     		stmia	r4!, {r0, r1, r2, r3}
 755 004c 95E80300 		ldmia	r5, {r0, r1}
 756 0050 84E80300 		stmia	r4, {r0, r1}
 757              	.LVL65:
 758              	.LBB109:
 759              	.LBB110:
 316:.\source\rte/sc_control.h ****    signal->value  = value;
 760              		.loc 2 316 0
 761 0054 104E     		ldr	r6, .L55
 762 0056 376A     		ldr	r7, [r6, #32]
 317:.\source\rte/sc_control.h ****    signal->age    = 0;
 763              		.loc 2 317 0
 764 0058 3446     		mov	r4, r6
 765 005a 6D46     		mov	r5, sp
 766 005c 0FCD     		ldmia	r5!, {r0, r1, r2, r3}
 767 005e 0FC4     		stmia	r4!, {r0, r1, r2, r3}
 768 0060 95E80300 		ldmia	r5, {r0, r1}
 769 0064 84E80300 		stmia	r4, {r0, r1}
ARM GAS  C:\Users\saman\AppData\Local\Temp\ccOAgYwr.s 			page 34


 318:.\source\rte/sc_control.h ****    signal->status = RTE_SIGNALSTATUS_VALID;
 770              		.loc 2 318 0
 771 0068 0023     		movs	r3, #0
 772 006a F361     		str	r3, [r6, #28]
 319:.\source\rte/sc_control.h ****    if (TRUE == signal->pSigCfg->resourceActive) ReleaseResource(signal->pSigCfg->resource);
 773              		.loc 2 319 0
 774 006c 0223     		movs	r3, #2
 775 006e 3376     		strb	r3, [r6, #24]
 323:.\source\rte/sc_control.h **** 
 776              		.loc 2 323 0
 777 0070 7D69     		ldr	r5, [r7, #20]
 778              	.LVL66:
 325:.\source\rte/sc_control.h ****       for( taskNum=0 ; taskNum < signal->pSigCfg->onUpdateTaskCount ;taskNum++){
 779              		.loc 2 325 0
 780 0072 BB68     		ldr	r3, [r7, #8]
 781 0074 73B1     		cbz	r3, .L48
 782 0076 3DB9     		cbnz	r5, .L53
 783 0078 0CE0     		b	.L48
 784              	.LVL67:
 785              	.L52:
 786              	.LBB111:
 787              		.loc 2 329 0
 788 007a 9968     		ldr	r1, [r3, #8]
 789 007c 55F82400 		ldr	r0, [r5, r4, lsl #2]
 790 0080 FFF7FEFF 		bl	EE_oo_SetEvent
 791              	.LVL68:
 792              	.LBE111:
 326:.\source\rte/sc_control.h **** 		  
 793              		.loc 2 326 0
 794 0084 0134     		adds	r4, r4, #1
 795              	.LVL69:
 796 0086 00E0     		b	.L51
 797              	.LVL70:
 798              	.L53:
 325:.\source\rte/sc_control.h ****       for( taskNum=0 ; taskNum < signal->pSigCfg->onUpdateTaskCount ;taskNum++){
 799              		.loc 2 325 0
 800 0088 0024     		movs	r4, #0
 801              	.LVL71:
 802              	.L51:
 326:.\source\rte/sc_control.h **** 		  
 803              		.loc 2 326 0
 804 008a 034B     		ldr	r3, .L55
 805 008c 1B6A     		ldr	r3, [r3, #32]
 806 008e 1A69     		ldr	r2, [r3, #16]
 807 0090 9442     		cmp	r4, r2
 808 0092 F2D3     		bcc	.L52
 809              	.LVL72:
 810              	.L48:
 811              	.LBE110:
 812              	.LBE109:
 459:source\asw/clock.c ****     RTE_SC_CONTROL_set(&SO_CONTROL_signal, control);
 460:source\asw/clock.c **** }
 813              		.loc 1 460 0
 814 0094 0DB0     		add	sp, sp, #52
 815              		.cfi_def_cfa_offset 20
 816              		@ sp needed
 817 0096 F0BD     		pop	{r4, r5, r6, r7, pc}
ARM GAS  C:\Users\saman\AppData\Local\Temp\ccOAgYwr.s 			page 35


 818              	.LVL73:
 819              	.L56:
 820              		.align	2
 821              	.L55:
 822 0098 00000000 		.word	SO_CONTROL_signal
 823 009c 89888888 		.word	-2004318071
 824              		.cfi_endproc
 825              	.LFE163:
 826              		.size	CLOCK__incrementMinuteandDisplay, .-CLOCK__incrementMinuteandDisplay
 827              		.section	.text.CLOCK__incrementWidget,"ax",%progbits
 828              		.align	2
 829              		.thumb
 830              		.thumb_func
 831              		.type	CLOCK__incrementWidget, %function
 832              	CLOCK__incrementWidget:
 833              	.LFB157:
 357:source\asw/clock.c ****     SC_INPUT_data_t input = RTE_SC_INPUT_get(&SO_INPUT_signal);
 834              		.loc 1 357 0
 835              		.cfi_startproc
 836              		@ args = 0, pretend = 0, frame = 72
 837              		@ frame_needed = 0, uses_anonymous_args = 0
 838 0000 00B5     		push	{lr}
 839              		.cfi_def_cfa_offset 4
 840              		.cfi_offset 14, -4
 841 0002 93B0     		sub	sp, sp, #76
 842              		.cfi_def_cfa_offset 80
 843              	.LVL74:
 844              	.LBB112:
 845              	.LBB113:
 846              		.loc 3 277 0
 847 0004 4422     		movs	r2, #68
 848 0006 0849     		ldr	r1, .L61
 849 0008 01A8     		add	r0, sp, #4
 850 000a FFF7FEFF 		bl	memcpy
 851              	.LVL75:
 852              	.LBE113:
 853              	.LBE112:
 359:source\asw/clock.c ****     {
 854              		.loc 1 359 0
 855 000e 9DF81430 		ldrb	r3, [sp, #20]	@ zero_extendqisi2
 856 0012 13B9     		cbnz	r3, .L58
 362:source\asw/clock.c ****     }
 857              		.loc 1 362 0
 858 0014 FFF7FEFF 		bl	CLOCK__incrementHourandDisplay
 859              	.LVL76:
 860 0018 03E0     		b	.L57
 861              	.L58:
 364:source\asw/clock.c ****     {
 862              		.loc 1 364 0
 863 001a 012B     		cmp	r3, #1
 864 001c 01D1     		bne	.L57
 367:source\asw/clock.c ****     }
 865              		.loc 1 367 0
 866 001e FFF7FEFF 		bl	CLOCK__incrementMinuteandDisplay
 867              	.LVL77:
 868              	.L57:
 369:source\asw/clock.c **** 
ARM GAS  C:\Users\saman\AppData\Local\Temp\ccOAgYwr.s 			page 36


 869              		.loc 1 369 0
 870 0022 13B0     		add	sp, sp, #76
 871              		.cfi_def_cfa_offset 4
 872              		@ sp needed
 873 0024 5DF804FB 		ldr	pc, [sp], #4
 874              	.L62:
 875              		.align	2
 876              	.L61:
 877 0028 00000000 		.word	SO_INPUT_signal
 878              		.cfi_endproc
 879              	.LFE157:
 880              		.size	CLOCK__incrementWidget, .-CLOCK__incrementWidget
 881              		.section	.text.CLOCK__dispatch_Wrapper,"ax",%progbits
 882              		.align	2
 883              		.thumb
 884              		.thumb_func
 885              		.type	CLOCK__dispatch_Wrapper, %function
 886              	CLOCK__dispatch_Wrapper:
 887              	.LFB146:
 211:source\asw/clock.c ****     SC_INPUT_data_t input = RTE_SC_INPUT_get(&SO_INPUT_signal);
 888              		.loc 1 211 0
 889              		.cfi_startproc
 890              		@ args = 0, pretend = 0, frame = 408
 891              		@ frame_needed = 0, uses_anonymous_args = 0
 892              	.LVL78:
 893 0000 2DE9F043 		push	{r4, r5, r6, r7, r8, r9, lr}
 894              		.cfi_def_cfa_offset 28
 895              		.cfi_offset 4, -28
 896              		.cfi_offset 5, -24
 897              		.cfi_offset 6, -20
 898              		.cfi_offset 7, -16
 899              		.cfi_offset 8, -12
 900              		.cfi_offset 9, -8
 901              		.cfi_offset 14, -4
 902 0004 E7B0     		sub	sp, sp, #412
 903              		.cfi_def_cfa_offset 440
 904 0006 8046     		mov	r8, r0
 905 0008 0E46     		mov	r6, r1
 906              	.LVL79:
 907              	.LBB114:
 908              	.LBB115:
 909              		.loc 3 277 0
 910 000a 564C     		ldr	r4, .L77
 911 000c 4425     		movs	r5, #68
 912 000e 2A46     		mov	r2, r5
 913 0010 2146     		mov	r1, r4
 914              	.LVL80:
 915 0012 55A8     		add	r0, sp, #340
 916              	.LVL81:
 917 0014 FFF7FEFF 		bl	memcpy
 918              	.LVL82:
 919              	.LBE115:
 920              	.LBE114:
 222:source\asw/clock.c ****     //UART_LOG_PutString("CLOCK__dispatch_Wrapper active widget: ");
 921              		.loc 1 222 0
 922 0018 4FF00009 		mov	r9, #0
 923 001c 8DF85691 		strb	r9, [sp, #342]
ARM GAS  C:\Users\saman\AppData\Local\Temp\ccOAgYwr.s 			page 37


 224:source\asw/clock.c ****     
 924              		.loc 1 224 0
 925 0020 8DF86461 		strb	r6, [sp, #356]
 926              	.LVL83:
 927 0024 2A46     		mov	r2, r5
 928 0026 55A9     		add	r1, sp, #340
 929 0028 6846     		mov	r0, sp
 930 002a FFF7FEFF 		bl	memcpy
 931              	.LVL84:
 932              	.LBB116:
 933              	.LBB117:
 278:.\source\rte/sc_input.h **** }                                                                                                  
 279:.\source\rte/sc_input.h ****                                                                                                    
 280:.\source\rte/sc_input.h **** /**
 281:.\source\rte/sc_input.h ****  * Returns the current application value of the passed signal instance threadsafe.
 282:.\source\rte/sc_input.h ****  *
 283:.\source\rte/sc_input.h ****  * @param  SC_INPUT_t * const signal: Pointer to the signal object
 284:.\source\rte/sc_input.h ****  * @param  SC_INPUT_data_t* data: Pointer to the return data Pointer to the signal object
 285:.\source\rte/sc_input.h ****  * @return RC_SUCCESS
 286:.\source\rte/sc_input.h ****  *
 287:.\source\rte/sc_input.h ****  **/
 288:.\source\rte/sc_input.h **** inline RC_t RTE_SC_INPUT_getThreadSafe( const SC_INPUT_t * const signal, SC_INPUT_data_t * const da
 289:.\source\rte/sc_input.h **** {    
 290:.\source\rte/sc_input.h ****    if (TRUE == signal->pSigCfg->resourceActive) GetResource(signal->pSigCfg->resource);
 291:.\source\rte/sc_input.h ****    *data = signal->value;
 292:.\source\rte/sc_input.h ****    if (TRUE == signal->pSigCfg->resourceActive) ReleaseResource(signal->pSigCfg->resource);        
 293:.\source\rte/sc_input.h **** 
 294:.\source\rte/sc_input.h ****    return RC_SUCCESS;                                                                   
 295:.\source\rte/sc_input.h ****    
 296:.\source\rte/sc_input.h **** }                                                                                                  
 297:.\source\rte/sc_input.h ****                                                                                                    
 298:.\source\rte/sc_input.h **** /**
 299:.\source\rte/sc_input.h ****  * Sets a new application value to the passed signal instance by passing the new value.
 300:.\source\rte/sc_input.h ****  * The corresponding driver raw value will be calculated immediately by using the default conversio
 301:.\source\rte/sc_input.h ****  * signal specific scaling function.
 302:.\source\rte/sc_input.h ****  * The signal age will be set to 0 and the new status will be 'RTE_SIGNALSTATUS_VALID'.
 303:.\source\rte/sc_input.h ****  *
 304:.\source\rte/sc_input.h ****  * @param  SC_INPUT_t * const signal: Pointer to the signal object
 305:.\source\rte/sc_input.h ****  * @param  sc_input_data_t const value: value for the application data buffer
 306:.\source\rte/sc_input.h ****  * @return RC_t: standard return code, currently only RC_SUCCESS
 307:.\source\rte/sc_input.h ****  *
 308:.\source\rte/sc_input.h ****  **/
 309:.\source\rte/sc_input.h **** inline RC_t RTE_SC_INPUT_set(SC_INPUT_t * const signal, const SC_INPUT_data_t value  )
 310:.\source\rte/sc_input.h **** {
 311:.\source\rte/sc_input.h **** 
 312:.\source\rte/sc_input.h ****    RC_t ret = RC_SUCCESS;
 313:.\source\rte/sc_input.h ****    size_t taskNum=0;
 314:.\source\rte/sc_input.h **** 
 315:.\source\rte/sc_input.h **** 
 316:.\source\rte/sc_input.h ****    if (TRUE == signal->pSigCfg->resourceActive) GetResource(signal->pSigCfg->resource);
 934              		.loc 3 316 0
 935 002e E76C     		ldr	r7, [r4, #76]
 317:.\source\rte/sc_input.h ****    signal->value  = value;
 936              		.loc 3 317 0
 937 0030 2A46     		mov	r2, r5
 938 0032 6946     		mov	r1, sp
 939 0034 2046     		mov	r0, r4
ARM GAS  C:\Users\saman\AppData\Local\Temp\ccOAgYwr.s 			page 38


 940 0036 FFF7FEFF 		bl	memcpy
 941              	.LVL85:
 318:.\source\rte/sc_input.h ****    signal->age    = 0;
 942              		.loc 3 318 0
 943 003a C4F84890 		str	r9, [r4, #72]
 319:.\source\rte/sc_input.h ****    signal->status = RTE_SIGNALSTATUS_VALID;
 944              		.loc 3 319 0
 945 003e 0223     		movs	r3, #2
 946 0040 84F84430 		strb	r3, [r4, #68]
 320:.\source\rte/sc_input.h ****    if (TRUE == signal->pSigCfg->resourceActive) ReleaseResource(signal->pSigCfg->resource);
 321:.\source\rte/sc_input.h **** 
 322:.\source\rte/sc_input.h ****    //Pointer to the Taskarray, containing the tasks receiving the onUpdate events
 323:.\source\rte/sc_input.h ****    TaskTypeArray* pTaskArray = signal->pSigCfg->onUpdateTasks;
 947              		.loc 3 323 0
 948 0044 7D69     		ldr	r5, [r7, #20]
 949              	.LVL86:
 324:.\source\rte/sc_input.h **** 
 325:.\source\rte/sc_input.h ****    if (0 != signal->pSigCfg->evOnUpdate && NULL != pTaskArray){
 950              		.loc 3 325 0
 951 0046 BB68     		ldr	r3, [r7, #8]
 952 0048 73B1     		cbz	r3, .L64
 953 004a 3DB9     		cbnz	r5, .L73
 954 004c 0CE0     		b	.L64
 955              	.LVL87:
 956              	.L66:
 957              	.LBB118:
 326:.\source\rte/sc_input.h ****       for( taskNum=0 ; taskNum < signal->pSigCfg->onUpdateTaskCount ;taskNum++){
 327:.\source\rte/sc_input.h **** 		  
 328:.\source\rte/sc_input.h ****           TaskType task = (*pTaskArray)[taskNum];
 329:.\source\rte/sc_input.h **** 	      SetEvent( task, signal->pSigCfg->evOnUpdate);
 958              		.loc 3 329 0
 959 004e 9968     		ldr	r1, [r3, #8]
 960 0050 55F82400 		ldr	r0, [r5, r4, lsl #2]
 961 0054 FFF7FEFF 		bl	EE_oo_SetEvent
 962              	.LVL88:
 963              	.LBE118:
 326:.\source\rte/sc_input.h ****       for( taskNum=0 ; taskNum < signal->pSigCfg->onUpdateTaskCount ;taskNum++){
 964              		.loc 3 326 0
 965 0058 0134     		adds	r4, r4, #1
 966              	.LVL89:
 967 005a 00E0     		b	.L65
 968              	.LVL90:
 969              	.L73:
 325:.\source\rte/sc_input.h ****       for( taskNum=0 ; taskNum < signal->pSigCfg->onUpdateTaskCount ;taskNum++){
 970              		.loc 3 325 0
 971 005c 0024     		movs	r4, #0
 972              	.LVL91:
 973              	.L65:
 326:.\source\rte/sc_input.h ****       for( taskNum=0 ; taskNum < signal->pSigCfg->onUpdateTaskCount ;taskNum++){
 974              		.loc 3 326 0
 975 005e 414B     		ldr	r3, .L77
 976 0060 DB6C     		ldr	r3, [r3, #76]
 977 0062 1A69     		ldr	r2, [r3, #16]
 978 0064 9442     		cmp	r4, r2
 979 0066 F2D3     		bcc	.L66
 980              	.LVL92:
 981              	.L64:
ARM GAS  C:\Users\saman\AppData\Local\Temp\ccOAgYwr.s 			page 39


 982              	.LBE117:
 983              	.LBE116:
 233:source\asw/clock.c ****     {
 984              		.loc 1 233 0
 985 0068 002E     		cmp	r6, #0
 986 006a 3CD1     		bne	.L67
 987              	.LBB119:
 235:source\asw/clock.c ****         
 988              		.loc 1 235 0
 989 006c 9DF86831 		ldrb	r3, [sp, #360]	@ zero_extendqisi2
 990              	.LVL93:
 246:source\asw/clock.c ****         STATE_processEvent(&widgetFSM,ev);
 991              		.loc 1 246 0
 992 0070 3D4E     		ldr	r6, .L77+4
 993 0072 F381     		strh	r3, [r6, #14]	@ movhi
 247:source\asw/clock.c ****         
 994              		.loc 1 247 0
 995 0074 4146     		mov	r1, r8
 996 0076 3046     		mov	r0, r6
 997 0078 FFF7FEFF 		bl	STATE_processEvent
 998              	.LVL94:
 999              	.LBB120:
 1000              	.LBB121:
 277:.\source\rte/sc_input.h **** }                                                                                                  
 1001              		.loc 3 277 0
 1002 007c 394C     		ldr	r4, .L77
 1003 007e 4425     		movs	r5, #68
 1004 0080 2A46     		mov	r2, r5
 1005 0082 2146     		mov	r1, r4
 1006 0084 22A8     		add	r0, sp, #136
 1007 0086 FFF7FEFF 		bl	memcpy
 1008              	.LVL95:
 1009              	.LBE121:
 1010              	.LBE120:
 255:source\asw/clock.c ****         input.m_clock_data.m_hours.m_widgetState = widgetFSM.m_state;
 1011              		.loc 1 255 0
 1012 008a 2A46     		mov	r2, r5
 1013 008c 22A9     		add	r1, sp, #136
 1014 008e 55A8     		add	r0, sp, #340
 1015 0090 FFF7FEFF 		bl	memcpy
 1016              	.LVL96:
 256:source\asw/clock.c ****         RTE_SC_INPUT_set(&SO_INPUT_signal, input);
 1017              		.loc 1 256 0
 1018 0094 F389     		ldrh	r3, [r6, #14]
 1019 0096 8DF86831 		strb	r3, [sp, #360]
 1020              	.LVL97:
 1021 009a 2A46     		mov	r2, r5
 1022 009c 55A9     		add	r1, sp, #340
 1023 009e 0DEB0500 		add	r0, sp, r5
 1024 00a2 FFF7FEFF 		bl	memcpy
 1025              	.LVL98:
 1026              	.LBB122:
 1027              	.LBB123:
 316:.\source\rte/sc_input.h ****    signal->value  = value;
 1028              		.loc 3 316 0
 1029 00a6 E66C     		ldr	r6, [r4, #76]
 317:.\source\rte/sc_input.h ****    signal->age    = 0;
ARM GAS  C:\Users\saman\AppData\Local\Temp\ccOAgYwr.s 			page 40


 1030              		.loc 3 317 0
 1031 00a8 2A46     		mov	r2, r5
 1032 00aa 0DEB0501 		add	r1, sp, r5
 1033 00ae 2046     		mov	r0, r4
 1034 00b0 FFF7FEFF 		bl	memcpy
 1035              	.LVL99:
 318:.\source\rte/sc_input.h ****    signal->status = RTE_SIGNALSTATUS_VALID;
 1036              		.loc 3 318 0
 1037 00b4 0023     		movs	r3, #0
 1038 00b6 A364     		str	r3, [r4, #72]
 319:.\source\rte/sc_input.h ****    if (TRUE == signal->pSigCfg->resourceActive) ReleaseResource(signal->pSigCfg->resource);
 1039              		.loc 3 319 0
 1040 00b8 0223     		movs	r3, #2
 1041 00ba 84F84430 		strb	r3, [r4, #68]
 323:.\source\rte/sc_input.h **** 
 1042              		.loc 3 323 0
 1043 00be 7569     		ldr	r5, [r6, #20]
 1044              	.LVL100:
 325:.\source\rte/sc_input.h ****       for( taskNum=0 ; taskNum < signal->pSigCfg->onUpdateTaskCount ;taskNum++){
 1045              		.loc 3 325 0
 1046 00c0 B368     		ldr	r3, [r6, #8]
 1047 00c2 002B     		cmp	r3, #0
 1048 00c4 4AD0     		beq	.L63
 1049 00c6 3DB9     		cbnz	r5, .L74
 1050 00c8 48E0     		b	.L63
 1051              	.LVL101:
 1052              	.L70:
 1053              	.LBB124:
 1054              		.loc 3 329 0
 1055 00ca 9968     		ldr	r1, [r3, #8]
 1056 00cc 55F82400 		ldr	r0, [r5, r4, lsl #2]
 1057 00d0 FFF7FEFF 		bl	EE_oo_SetEvent
 1058              	.LVL102:
 1059              	.LBE124:
 326:.\source\rte/sc_input.h **** 		  
 1060              		.loc 3 326 0
 1061 00d4 0134     		adds	r4, r4, #1
 1062              	.LVL103:
 1063 00d6 00E0     		b	.L69
 1064              	.LVL104:
 1065              	.L74:
 325:.\source\rte/sc_input.h ****       for( taskNum=0 ; taskNum < signal->pSigCfg->onUpdateTaskCount ;taskNum++){
 1066              		.loc 3 325 0
 1067 00d8 0024     		movs	r4, #0
 1068              	.LVL105:
 1069              	.L69:
 326:.\source\rte/sc_input.h **** 		  
 1070              		.loc 3 326 0
 1071 00da 224B     		ldr	r3, .L77
 1072 00dc DB6C     		ldr	r3, [r3, #76]
 1073 00de 1A69     		ldr	r2, [r3, #16]
 1074 00e0 9442     		cmp	r4, r2
 1075 00e2 F2D3     		bcc	.L70
 1076 00e4 3AE0     		b	.L63
 1077              	.LVL106:
 1078              	.L67:
 1079              	.LBE123:
ARM GAS  C:\Users\saman\AppData\Local\Temp\ccOAgYwr.s 			page 41


 1080              	.LBE122:
 1081              	.LBE119:
 259:source\asw/clock.c ****     {
 1082              		.loc 1 259 0
 1083 00e6 012E     		cmp	r6, #1
 1084 00e8 38D1     		bne	.L63
 1085              	.LBB125:
 261:source\asw/clock.c ****         
 1086              		.loc 1 261 0
 1087 00ea 9DF88031 		ldrb	r3, [sp, #384]	@ zero_extendqisi2
 1088              	.LVL107:
 268:source\asw/clock.c ****         STATE_processEvent(&widgetFSM,ev);
 1089              		.loc 1 268 0
 1090 00ee 1E4E     		ldr	r6, .L77+4
 1091 00f0 F381     		strh	r3, [r6, #14]	@ movhi
 269:source\asw/clock.c ****         /*UART_LOG_PutString("Minute widget state: after process ");
 1092              		.loc 1 269 0
 1093 00f2 4146     		mov	r1, r8
 1094 00f4 3046     		mov	r0, r6
 1095 00f6 FFF7FEFF 		bl	STATE_processEvent
 1096              	.LVL108:
 1097              	.LBB126:
 1098              	.LBB127:
 277:.\source\rte/sc_input.h **** }                                                                                                  
 1099              		.loc 3 277 0
 1100 00fa 1A4C     		ldr	r4, .L77
 1101 00fc 4425     		movs	r5, #68
 1102 00fe 2A46     		mov	r2, r5
 1103 0100 2146     		mov	r1, r4
 1104 0102 44A8     		add	r0, sp, #272
 1105 0104 FFF7FEFF 		bl	memcpy
 1106              	.LVL109:
 1107              	.LBE127:
 1108              	.LBE126:
 274:source\asw/clock.c ****         
 1109              		.loc 1 274 0
 1110 0108 2A46     		mov	r2, r5
 1111 010a 44A9     		add	r1, sp, #272
 1112 010c 55A8     		add	r0, sp, #340
 1113 010e FFF7FEFF 		bl	memcpy
 1114              	.LVL110:
 276:source\asw/clock.c ****         
 1115              		.loc 1 276 0
 1116 0112 F389     		ldrh	r3, [r6, #14]
 1117 0114 8DF88031 		strb	r3, [sp, #384]
 1118              	.LVL111:
 1119 0118 2A46     		mov	r2, r5
 1120 011a 55A9     		add	r1, sp, #340
 1121 011c 33A8     		add	r0, sp, #204
 1122 011e FFF7FEFF 		bl	memcpy
 1123              	.LVL112:
 1124              	.LBB128:
 1125              	.LBB129:
 316:.\source\rte/sc_input.h ****    signal->value  = value;
 1126              		.loc 3 316 0
 1127 0122 E66C     		ldr	r6, [r4, #76]
 317:.\source\rte/sc_input.h ****    signal->age    = 0;
ARM GAS  C:\Users\saman\AppData\Local\Temp\ccOAgYwr.s 			page 42


 1128              		.loc 3 317 0
 1129 0124 2A46     		mov	r2, r5
 1130 0126 33A9     		add	r1, sp, #204
 1131 0128 2046     		mov	r0, r4
 1132 012a FFF7FEFF 		bl	memcpy
 1133              	.LVL113:
 318:.\source\rte/sc_input.h ****    signal->status = RTE_SIGNALSTATUS_VALID;
 1134              		.loc 3 318 0
 1135 012e 0023     		movs	r3, #0
 1136 0130 A364     		str	r3, [r4, #72]
 319:.\source\rte/sc_input.h ****    if (TRUE == signal->pSigCfg->resourceActive) ReleaseResource(signal->pSigCfg->resource);
 1137              		.loc 3 319 0
 1138 0132 0223     		movs	r3, #2
 1139 0134 84F84430 		strb	r3, [r4, #68]
 323:.\source\rte/sc_input.h **** 
 1140              		.loc 3 323 0
 1141 0138 7569     		ldr	r5, [r6, #20]
 1142              	.LVL114:
 325:.\source\rte/sc_input.h ****       for( taskNum=0 ; taskNum < signal->pSigCfg->onUpdateTaskCount ;taskNum++){
 1143              		.loc 3 325 0
 1144 013a B368     		ldr	r3, [r6, #8]
 1145 013c 73B1     		cbz	r3, .L63
 1146 013e 3DB9     		cbnz	r5, .L75
 1147 0140 0CE0     		b	.L63
 1148              	.LVL115:
 1149              	.L72:
 1150              	.LBB130:
 1151              		.loc 3 329 0
 1152 0142 9968     		ldr	r1, [r3, #8]
 1153 0144 55F82400 		ldr	r0, [r5, r4, lsl #2]
 1154 0148 FFF7FEFF 		bl	EE_oo_SetEvent
 1155              	.LVL116:
 1156              	.LBE130:
 326:.\source\rte/sc_input.h **** 		  
 1157              		.loc 3 326 0
 1158 014c 0134     		adds	r4, r4, #1
 1159              	.LVL117:
 1160 014e 00E0     		b	.L71
 1161              	.LVL118:
 1162              	.L75:
 325:.\source\rte/sc_input.h ****       for( taskNum=0 ; taskNum < signal->pSigCfg->onUpdateTaskCount ;taskNum++){
 1163              		.loc 3 325 0
 1164 0150 0024     		movs	r4, #0
 1165              	.LVL119:
 1166              	.L71:
 326:.\source\rte/sc_input.h **** 		  
 1167              		.loc 3 326 0
 1168 0152 044B     		ldr	r3, .L77
 1169 0154 DB6C     		ldr	r3, [r3, #76]
 1170 0156 1A69     		ldr	r2, [r3, #16]
 1171 0158 9442     		cmp	r4, r2
 1172 015a F2D3     		bcc	.L72
 1173              	.LVL120:
 1174              	.L63:
 1175              	.LBE129:
 1176              	.LBE128:
 1177              	.LBE125:
ARM GAS  C:\Users\saman\AppData\Local\Temp\ccOAgYwr.s 			page 43


 280:source\asw/clock.c **** 
 1178              		.loc 1 280 0
 1179 015c 67B0     		add	sp, sp, #412
 1180              		.cfi_def_cfa_offset 28
 1181              		@ sp needed
 1182 015e BDE8F083 		pop	{r4, r5, r6, r7, r8, r9, pc}
 1183              	.L78:
 1184 0162 00BF     		.align	2
 1185              	.L77:
 1186 0164 00000000 		.word	SO_INPUT_signal
 1187 0168 00000000 		.word	.LANCHOR0
 1188              		.cfi_endproc
 1189              	.LFE146:
 1190              		.size	CLOCK__dispatch_Wrapper, .-CLOCK__dispatch_Wrapper
 1191              		.section	.text.CLOCK__dispatch_KL_Hours,"ax",%progbits
 1192              		.align	2
 1193              		.thumb
 1194              		.thumb_func
 1195              		.type	CLOCK__dispatch_KL_Hours, %function
 1196              	CLOCK__dispatch_KL_Hours:
 1197              	.LFB147:
 283:source\asw/clock.c ****     //UART_LOG_PutString("CLOCK__dispatch_KL_Hours\n");
 1198              		.loc 1 283 0
 1199              		.cfi_startproc
 1200              		@ args = 0, pretend = 0, frame = 136
 1201              		@ frame_needed = 0, uses_anonymous_args = 0
 1202 0000 70B5     		push	{r4, r5, r6, lr}
 1203              		.cfi_def_cfa_offset 16
 1204              		.cfi_offset 4, -16
 1205              		.cfi_offset 5, -12
 1206              		.cfi_offset 6, -8
 1207              		.cfi_offset 14, -4
 1208 0002 A2B0     		sub	sp, sp, #136
 1209              		.cfi_def_cfa_offset 152
 1210              	.LVL121:
 1211              	.LBB131:
 1212              	.LBB132:
 277:.\source\rte/sc_input.h **** }                                                                                                  
 1213              		.loc 3 277 0
 1214 0004 194C     		ldr	r4, .L85
 1215 0006 4425     		movs	r5, #68
 1216 0008 2A46     		mov	r2, r5
 1217 000a 2146     		mov	r1, r4
 1218 000c 0DEB0500 		add	r0, sp, r5
 1219 0010 FFF7FEFF 		bl	memcpy
 1220              	.LVL122:
 1221              	.LBE132:
 1222              	.LBE131:
 286:source\asw/clock.c ****     RTE_SC_INPUT_set(&SO_INPUT_signal, input);
 1223              		.loc 1 286 0
 1224 0014 0323     		movs	r3, #3
 1225 0016 8DF85830 		strb	r3, [sp, #88]
 1226              	.LVL123:
 1227 001a 2A46     		mov	r2, r5
 1228 001c 0DEB0501 		add	r1, sp, r5
 1229 0020 6846     		mov	r0, sp
 1230 0022 FFF7FEFF 		bl	memcpy
ARM GAS  C:\Users\saman\AppData\Local\Temp\ccOAgYwr.s 			page 44


 1231              	.LVL124:
 1232              	.LBB133:
 1233              	.LBB134:
 316:.\source\rte/sc_input.h ****    signal->value  = value;
 1234              		.loc 3 316 0
 1235 0026 E66C     		ldr	r6, [r4, #76]
 317:.\source\rte/sc_input.h ****    signal->age    = 0;
 1236              		.loc 3 317 0
 1237 0028 2A46     		mov	r2, r5
 1238 002a 6946     		mov	r1, sp
 1239 002c 2046     		mov	r0, r4
 1240 002e FFF7FEFF 		bl	memcpy
 1241              	.LVL125:
 318:.\source\rte/sc_input.h ****    signal->status = RTE_SIGNALSTATUS_VALID;
 1242              		.loc 3 318 0
 1243 0032 0023     		movs	r3, #0
 1244 0034 A364     		str	r3, [r4, #72]
 319:.\source\rte/sc_input.h ****    if (TRUE == signal->pSigCfg->resourceActive) ReleaseResource(signal->pSigCfg->resource);
 1245              		.loc 3 319 0
 1246 0036 0223     		movs	r3, #2
 1247 0038 84F84430 		strb	r3, [r4, #68]
 323:.\source\rte/sc_input.h **** 
 1248              		.loc 3 323 0
 1249 003c 7569     		ldr	r5, [r6, #20]
 1250              	.LVL126:
 325:.\source\rte/sc_input.h ****       for( taskNum=0 ; taskNum < signal->pSigCfg->onUpdateTaskCount ;taskNum++){
 1251              		.loc 3 325 0
 1252 003e B368     		ldr	r3, [r6, #8]
 1253 0040 73B1     		cbz	r3, .L80
 1254 0042 3DB9     		cbnz	r5, .L83
 1255 0044 0CE0     		b	.L80
 1256              	.LVL127:
 1257              	.L82:
 1258              	.LBB135:
 1259              		.loc 3 329 0
 1260 0046 9968     		ldr	r1, [r3, #8]
 1261 0048 55F82400 		ldr	r0, [r5, r4, lsl #2]
 1262 004c FFF7FEFF 		bl	EE_oo_SetEvent
 1263              	.LVL128:
 1264              	.LBE135:
 326:.\source\rte/sc_input.h **** 		  
 1265              		.loc 3 326 0
 1266 0050 0134     		adds	r4, r4, #1
 1267              	.LVL129:
 1268 0052 00E0     		b	.L81
 1269              	.LVL130:
 1270              	.L83:
 325:.\source\rte/sc_input.h ****       for( taskNum=0 ; taskNum < signal->pSigCfg->onUpdateTaskCount ;taskNum++){
 1271              		.loc 3 325 0
 1272 0054 0024     		movs	r4, #0
 1273              	.LVL131:
 1274              	.L81:
 326:.\source\rte/sc_input.h **** 		  
 1275              		.loc 3 326 0
 1276 0056 054B     		ldr	r3, .L85
 1277 0058 DB6C     		ldr	r3, [r3, #76]
 1278 005a 1A69     		ldr	r2, [r3, #16]
ARM GAS  C:\Users\saman\AppData\Local\Temp\ccOAgYwr.s 			page 45


 1279 005c 9442     		cmp	r4, r2
 1280 005e F2D3     		bcc	.L82
 1281              	.LVL132:
 1282              	.L80:
 1283              	.LBE134:
 1284              	.LBE133:
 288:source\asw/clock.c **** }
 1285              		.loc 1 288 0
 1286 0060 0021     		movs	r1, #0
 1287 0062 0120     		movs	r0, #1
 1288 0064 FFF7FEFF 		bl	CLOCK__dispatch_Wrapper
 1289              	.LVL133:
 289:source\asw/clock.c **** 
 1290              		.loc 1 289 0
 1291 0068 22B0     		add	sp, sp, #136
 1292              		.cfi_def_cfa_offset 16
 1293              		@ sp needed
 1294 006a 70BD     		pop	{r4, r5, r6, pc}
 1295              	.L86:
 1296              		.align	2
 1297              	.L85:
 1298 006c 00000000 		.word	SO_INPUT_signal
 1299              		.cfi_endproc
 1300              	.LFE147:
 1301              		.size	CLOCK__dispatch_KL_Hours, .-CLOCK__dispatch_KL_Hours
 1302              		.section	.text.CLOCK__dispatch_250MS_Hours,"ax",%progbits
 1303              		.align	2
 1304              		.thumb
 1305              		.thumb_func
 1306              		.type	CLOCK__dispatch_250MS_Hours, %function
 1307              	CLOCK__dispatch_250MS_Hours:
 1308              	.LFB152:
 324:source\asw/clock.c ****     //UART_LOG_PutString("CLOCK__dispatch_250MS_Hours\n");
 1309              		.loc 1 324 0
 1310              		.cfi_startproc
 1311              		@ args = 0, pretend = 0, frame = 0
 1312              		@ frame_needed = 0, uses_anonymous_args = 0
 1313 0000 08B5     		push	{r3, lr}
 1314              		.cfi_def_cfa_offset 8
 1315              		.cfi_offset 3, -8
 1316              		.cfi_offset 14, -4
 326:source\asw/clock.c **** }
 1317              		.loc 1 326 0
 1318 0002 0021     		movs	r1, #0
 1319 0004 0420     		movs	r0, #4
 1320 0006 FFF7FEFF 		bl	CLOCK__dispatch_Wrapper
 1321              	.LVL134:
 1322 000a 08BD     		pop	{r3, pc}
 1323              		.cfi_endproc
 1324              	.LFE152:
 1325              		.size	CLOCK__dispatch_250MS_Hours, .-CLOCK__dispatch_250MS_Hours
 1326              		.section	.text.CLOCK__dispatch_KRLP_Hours,"ax",%progbits
 1327              		.align	2
 1328              		.thumb
 1329              		.thumb_func
 1330              		.type	CLOCK__dispatch_KRLP_Hours, %function
 1331              	CLOCK__dispatch_KRLP_Hours:
ARM GAS  C:\Users\saman\AppData\Local\Temp\ccOAgYwr.s 			page 46


 1332              	.LFB151:
 315:source\asw/clock.c ****     //UART_LOG_PutString("CLOCK__dispatch_KRLP_Hours\n");
 1333              		.loc 1 315 0
 1334              		.cfi_startproc
 1335              		@ args = 0, pretend = 0, frame = 136
 1336              		@ frame_needed = 0, uses_anonymous_args = 0
 1337 0000 70B5     		push	{r4, r5, r6, lr}
 1338              		.cfi_def_cfa_offset 16
 1339              		.cfi_offset 4, -16
 1340              		.cfi_offset 5, -12
 1341              		.cfi_offset 6, -8
 1342              		.cfi_offset 14, -4
 1343 0002 A2B0     		sub	sp, sp, #136
 1344              		.cfi_def_cfa_offset 152
 1345              	.LVL135:
 1346              	.LBB136:
 1347              	.LBB137:
 277:.\source\rte/sc_input.h **** }                                                                                                  
 1348              		.loc 3 277 0
 1349 0004 194C     		ldr	r4, .L95
 1350 0006 4425     		movs	r5, #68
 1351 0008 2A46     		mov	r2, r5
 1352 000a 2146     		mov	r1, r4
 1353 000c 0DEB0500 		add	r0, sp, r5
 1354 0010 FFF7FEFF 		bl	memcpy
 1355              	.LVL136:
 1356              	.LBE137:
 1357              	.LBE136:
 318:source\asw/clock.c ****     RTE_SC_INPUT_set(&SO_INPUT_signal, input);
 1358              		.loc 1 318 0
 1359 0014 0423     		movs	r3, #4
 1360 0016 8DF85830 		strb	r3, [sp, #88]
 1361              	.LVL137:
 1362 001a 2A46     		mov	r2, r5
 1363 001c 0DEB0501 		add	r1, sp, r5
 1364 0020 6846     		mov	r0, sp
 1365 0022 FFF7FEFF 		bl	memcpy
 1366              	.LVL138:
 1367              	.LBB138:
 1368              	.LBB139:
 316:.\source\rte/sc_input.h ****    signal->value  = value;
 1369              		.loc 3 316 0
 1370 0026 E66C     		ldr	r6, [r4, #76]
 317:.\source\rte/sc_input.h ****    signal->age    = 0;
 1371              		.loc 3 317 0
 1372 0028 2A46     		mov	r2, r5
 1373 002a 6946     		mov	r1, sp
 1374 002c 2046     		mov	r0, r4
 1375 002e FFF7FEFF 		bl	memcpy
 1376              	.LVL139:
 318:.\source\rte/sc_input.h ****    signal->status = RTE_SIGNALSTATUS_VALID;
 1377              		.loc 3 318 0
 1378 0032 0023     		movs	r3, #0
 1379 0034 A364     		str	r3, [r4, #72]
 319:.\source\rte/sc_input.h ****    if (TRUE == signal->pSigCfg->resourceActive) ReleaseResource(signal->pSigCfg->resource);
 1380              		.loc 3 319 0
 1381 0036 0223     		movs	r3, #2
ARM GAS  C:\Users\saman\AppData\Local\Temp\ccOAgYwr.s 			page 47


 1382 0038 84F84430 		strb	r3, [r4, #68]
 323:.\source\rte/sc_input.h **** 
 1383              		.loc 3 323 0
 1384 003c 7569     		ldr	r5, [r6, #20]
 1385              	.LVL140:
 325:.\source\rte/sc_input.h ****       for( taskNum=0 ; taskNum < signal->pSigCfg->onUpdateTaskCount ;taskNum++){
 1386              		.loc 3 325 0
 1387 003e B368     		ldr	r3, [r6, #8]
 1388 0040 73B1     		cbz	r3, .L90
 1389 0042 3DB9     		cbnz	r5, .L93
 1390 0044 0CE0     		b	.L90
 1391              	.LVL141:
 1392              	.L92:
 1393              	.LBB140:
 1394              		.loc 3 329 0
 1395 0046 9968     		ldr	r1, [r3, #8]
 1396 0048 55F82400 		ldr	r0, [r5, r4, lsl #2]
 1397 004c FFF7FEFF 		bl	EE_oo_SetEvent
 1398              	.LVL142:
 1399              	.LBE140:
 326:.\source\rte/sc_input.h **** 		  
 1400              		.loc 3 326 0
 1401 0050 0134     		adds	r4, r4, #1
 1402              	.LVL143:
 1403 0052 00E0     		b	.L91
 1404              	.LVL144:
 1405              	.L93:
 325:.\source\rte/sc_input.h ****       for( taskNum=0 ; taskNum < signal->pSigCfg->onUpdateTaskCount ;taskNum++){
 1406              		.loc 3 325 0
 1407 0054 0024     		movs	r4, #0
 1408              	.LVL145:
 1409              	.L91:
 326:.\source\rte/sc_input.h **** 		  
 1410              		.loc 3 326 0
 1411 0056 054B     		ldr	r3, .L95
 1412 0058 DB6C     		ldr	r3, [r3, #76]
 1413 005a 1A69     		ldr	r2, [r3, #16]
 1414 005c 9442     		cmp	r4, r2
 1415 005e F2D3     		bcc	.L92
 1416              	.LVL146:
 1417              	.L90:
 1418              	.LBE139:
 1419              	.LBE138:
 320:source\asw/clock.c **** }
 1420              		.loc 1 320 0
 1421 0060 0021     		movs	r1, #0
 1422 0062 0320     		movs	r0, #3
 1423 0064 FFF7FEFF 		bl	CLOCK__dispatch_Wrapper
 1424              	.LVL147:
 321:source\asw/clock.c **** 
 1425              		.loc 1 321 0
 1426 0068 22B0     		add	sp, sp, #136
 1427              		.cfi_def_cfa_offset 16
 1428              		@ sp needed
 1429 006a 70BD     		pop	{r4, r5, r6, pc}
 1430              	.L96:
 1431              		.align	2
ARM GAS  C:\Users\saman\AppData\Local\Temp\ccOAgYwr.s 			page 48


 1432              	.L95:
 1433 006c 00000000 		.word	SO_INPUT_signal
 1434              		.cfi_endproc
 1435              	.LFE151:
 1436              		.size	CLOCK__dispatch_KRLP_Hours, .-CLOCK__dispatch_KRLP_Hours
 1437              		.section	.text.CLOCK__dispatch_KR_Hours,"ax",%progbits
 1438              		.align	2
 1439              		.thumb
 1440              		.thumb_func
 1441              		.type	CLOCK__dispatch_KR_Hours, %function
 1442              	CLOCK__dispatch_KR_Hours:
 1443              	.LFB150:
 309:source\asw/clock.c ****     //UART_LOG_PutString("CLOCK__dispatch_KR_Hours\n");
 1444              		.loc 1 309 0
 1445              		.cfi_startproc
 1446              		@ args = 0, pretend = 0, frame = 0
 1447              		@ frame_needed = 0, uses_anonymous_args = 0
 1448 0000 08B5     		push	{r3, lr}
 1449              		.cfi_def_cfa_offset 8
 1450              		.cfi_offset 3, -8
 1451              		.cfi_offset 14, -4
 311:source\asw/clock.c **** }
 1452              		.loc 1 311 0
 1453 0002 0021     		movs	r1, #0
 1454 0004 0220     		movs	r0, #2
 1455 0006 FFF7FEFF 		bl	CLOCK__dispatch_Wrapper
 1456              	.LVL148:
 1457 000a 08BD     		pop	{r3, pc}
 1458              		.cfi_endproc
 1459              	.LFE150:
 1460              		.size	CLOCK__dispatch_KR_Hours, .-CLOCK__dispatch_KR_Hours
 1461              		.section	.text.CLOCK__dispatch_KL_HoursMin,"ax",%progbits
 1462              		.align	2
 1463              		.thumb
 1464              		.thumb_func
 1465              		.type	CLOCK__dispatch_KL_HoursMin, %function
 1466              	CLOCK__dispatch_KL_HoursMin:
 1467              	.LFB149:
 297:source\asw/clock.c ****     //UART_LOG_PutString("CLOCK__dispatch_KL_HoursMin\n");
 1468              		.loc 1 297 0
 1469              		.cfi_startproc
 1470              		@ args = 0, pretend = 0, frame = 136
 1471              		@ frame_needed = 0, uses_anonymous_args = 0
 1472 0000 70B5     		push	{r4, r5, r6, lr}
 1473              		.cfi_def_cfa_offset 16
 1474              		.cfi_offset 4, -16
 1475              		.cfi_offset 5, -12
 1476              		.cfi_offset 6, -8
 1477              		.cfi_offset 14, -4
 1478 0002 A2B0     		sub	sp, sp, #136
 1479              		.cfi_def_cfa_offset 152
 1480              	.LVL149:
 1481              	.LBB141:
 1482              	.LBB142:
 277:.\source\rte/sc_input.h **** }                                                                                                  
 1483              		.loc 3 277 0
 1484 0004 1D4C     		ldr	r4, .L105
ARM GAS  C:\Users\saman\AppData\Local\Temp\ccOAgYwr.s 			page 49


 1485 0006 4425     		movs	r5, #68
 1486 0008 2A46     		mov	r2, r5
 1487 000a 2146     		mov	r1, r4
 1488 000c 0DEB0500 		add	r0, sp, r5
 1489 0010 FFF7FEFF 		bl	memcpy
 1490              	.LVL150:
 1491              	.LBE142:
 1492              	.LBE141:
 300:source\asw/clock.c ****     input.m_clock_data.m_minutes.m_widgetState = CLOCK_W_ISDISPLAYING;
 1493              		.loc 1 300 0
 1494 0014 0423     		movs	r3, #4
 1495 0016 8DF85830 		strb	r3, [sp, #88]
 301:source\asw/clock.c ****     RTE_SC_INPUT_set(&SO_INPUT_signal, input);
 1496              		.loc 1 301 0
 1497 001a 0323     		movs	r3, #3
 1498 001c 8DF87030 		strb	r3, [sp, #112]
 1499              	.LVL151:
 1500 0020 2A46     		mov	r2, r5
 1501 0022 0DEB0501 		add	r1, sp, r5
 1502 0026 6846     		mov	r0, sp
 1503 0028 FFF7FEFF 		bl	memcpy
 1504              	.LVL152:
 1505              	.LBB143:
 1506              	.LBB144:
 316:.\source\rte/sc_input.h ****    signal->value  = value;
 1507              		.loc 3 316 0
 1508 002c E66C     		ldr	r6, [r4, #76]
 317:.\source\rte/sc_input.h ****    signal->age    = 0;
 1509              		.loc 3 317 0
 1510 002e 2A46     		mov	r2, r5
 1511 0030 6946     		mov	r1, sp
 1512 0032 2046     		mov	r0, r4
 1513 0034 FFF7FEFF 		bl	memcpy
 1514              	.LVL153:
 318:.\source\rte/sc_input.h ****    signal->status = RTE_SIGNALSTATUS_VALID;
 1515              		.loc 3 318 0
 1516 0038 0023     		movs	r3, #0
 1517 003a A364     		str	r3, [r4, #72]
 319:.\source\rte/sc_input.h ****    if (TRUE == signal->pSigCfg->resourceActive) ReleaseResource(signal->pSigCfg->resource);
 1518              		.loc 3 319 0
 1519 003c 0223     		movs	r3, #2
 1520 003e 84F84430 		strb	r3, [r4, #68]
 323:.\source\rte/sc_input.h **** 
 1521              		.loc 3 323 0
 1522 0042 7569     		ldr	r5, [r6, #20]
 1523              	.LVL154:
 325:.\source\rte/sc_input.h ****       for( taskNum=0 ; taskNum < signal->pSigCfg->onUpdateTaskCount ;taskNum++){
 1524              		.loc 3 325 0
 1525 0044 B368     		ldr	r3, [r6, #8]
 1526 0046 73B1     		cbz	r3, .L100
 1527 0048 3DB9     		cbnz	r5, .L103
 1528 004a 0CE0     		b	.L100
 1529              	.LVL155:
 1530              	.L102:
 1531              	.LBB145:
 1532              		.loc 3 329 0
 1533 004c 9968     		ldr	r1, [r3, #8]
ARM GAS  C:\Users\saman\AppData\Local\Temp\ccOAgYwr.s 			page 50


 1534 004e 55F82400 		ldr	r0, [r5, r4, lsl #2]
 1535 0052 FFF7FEFF 		bl	EE_oo_SetEvent
 1536              	.LVL156:
 1537              	.LBE145:
 326:.\source\rte/sc_input.h **** 		  
 1538              		.loc 3 326 0
 1539 0056 0134     		adds	r4, r4, #1
 1540              	.LVL157:
 1541 0058 00E0     		b	.L101
 1542              	.LVL158:
 1543              	.L103:
 325:.\source\rte/sc_input.h ****       for( taskNum=0 ; taskNum < signal->pSigCfg->onUpdateTaskCount ;taskNum++){
 1544              		.loc 3 325 0
 1545 005a 0024     		movs	r4, #0
 1546              	.LVL159:
 1547              	.L101:
 326:.\source\rte/sc_input.h **** 		  
 1548              		.loc 3 326 0
 1549 005c 074B     		ldr	r3, .L105
 1550 005e DB6C     		ldr	r3, [r3, #76]
 1551 0060 1A69     		ldr	r2, [r3, #16]
 1552 0062 9442     		cmp	r4, r2
 1553 0064 F2D3     		bcc	.L102
 1554              	.LVL160:
 1555              	.L100:
 1556              	.LBE144:
 1557              	.LBE143:
 304:source\asw/clock.c ****     CLOCK__dispatch_Wrapper(EV_KEYLEFT, CLOCK_MINWIDGET);
 1558              		.loc 1 304 0
 1559 0066 0021     		movs	r1, #0
 1560 0068 0120     		movs	r0, #1
 1561 006a FFF7FEFF 		bl	CLOCK__dispatch_Wrapper
 1562              	.LVL161:
 305:source\asw/clock.c **** }
 1563              		.loc 1 305 0
 1564 006e 0121     		movs	r1, #1
 1565 0070 0846     		mov	r0, r1
 1566 0072 FFF7FEFF 		bl	CLOCK__dispatch_Wrapper
 1567              	.LVL162:
 306:source\asw/clock.c **** 
 1568              		.loc 1 306 0
 1569 0076 22B0     		add	sp, sp, #136
 1570              		.cfi_def_cfa_offset 16
 1571              		@ sp needed
 1572 0078 70BD     		pop	{r4, r5, r6, pc}
 1573              	.L106:
 1574 007a 00BF     		.align	2
 1575              	.L105:
 1576 007c 00000000 		.word	SO_INPUT_signal
 1577              		.cfi_endproc
 1578              	.LFE149:
 1579              		.size	CLOCK__dispatch_KL_HoursMin, .-CLOCK__dispatch_KL_HoursMin
 1580              		.section	.text.CLOCK__dispatch_250MS_Min,"ax",%progbits
 1581              		.align	2
 1582              		.thumb
 1583              		.thumb_func
 1584              		.type	CLOCK__dispatch_250MS_Min, %function
ARM GAS  C:\Users\saman\AppData\Local\Temp\ccOAgYwr.s 			page 51


 1585              	CLOCK__dispatch_250MS_Min:
 1586              	.LFB156:
 351:source\asw/clock.c ****     //UART_LOG_PutString("CLOCK__dispatch_250MS_Min\n");
 1587              		.loc 1 351 0
 1588              		.cfi_startproc
 1589              		@ args = 0, pretend = 0, frame = 0
 1590              		@ frame_needed = 0, uses_anonymous_args = 0
 1591 0000 08B5     		push	{r3, lr}
 1592              		.cfi_def_cfa_offset 8
 1593              		.cfi_offset 3, -8
 1594              		.cfi_offset 14, -4
 353:source\asw/clock.c **** }
 1595              		.loc 1 353 0
 1596 0002 0121     		movs	r1, #1
 1597 0004 0420     		movs	r0, #4
 1598 0006 FFF7FEFF 		bl	CLOCK__dispatch_Wrapper
 1599              	.LVL163:
 1600 000a 08BD     		pop	{r3, pc}
 1601              		.cfi_endproc
 1602              	.LFE156:
 1603              		.size	CLOCK__dispatch_250MS_Min, .-CLOCK__dispatch_250MS_Min
 1604              		.section	.text.CLOCK__dispatch_KRLP_Min,"ax",%progbits
 1605              		.align	2
 1606              		.thumb
 1607              		.thumb_func
 1608              		.type	CLOCK__dispatch_KRLP_Min, %function
 1609              	CLOCK__dispatch_KRLP_Min:
 1610              	.LFB155:
 342:source\asw/clock.c ****     //UART_LOG_PutString("CLOCK__dispatch_KRLP_Min\n");
 1611              		.loc 1 342 0
 1612              		.cfi_startproc
 1613              		@ args = 0, pretend = 0, frame = 136
 1614              		@ frame_needed = 0, uses_anonymous_args = 0
 1615 0000 70B5     		push	{r4, r5, r6, lr}
 1616              		.cfi_def_cfa_offset 16
 1617              		.cfi_offset 4, -16
 1618              		.cfi_offset 5, -12
 1619              		.cfi_offset 6, -8
 1620              		.cfi_offset 14, -4
 1621 0002 A2B0     		sub	sp, sp, #136
 1622              		.cfi_def_cfa_offset 152
 1623              	.LVL164:
 1624              	.LBB146:
 1625              	.LBB147:
 277:.\source\rte/sc_input.h **** }                                                                                                  
 1626              		.loc 3 277 0
 1627 0004 194C     		ldr	r4, .L115
 1628 0006 4425     		movs	r5, #68
 1629 0008 2A46     		mov	r2, r5
 1630 000a 2146     		mov	r1, r4
 1631 000c 0DEB0500 		add	r0, sp, r5
 1632 0010 FFF7FEFF 		bl	memcpy
 1633              	.LVL165:
 1634              	.LBE147:
 1635              	.LBE146:
 345:source\asw/clock.c ****     RTE_SC_INPUT_set(&SO_INPUT_signal, input);
 1636              		.loc 1 345 0
ARM GAS  C:\Users\saman\AppData\Local\Temp\ccOAgYwr.s 			page 52


 1637 0014 0423     		movs	r3, #4
 1638 0016 8DF87030 		strb	r3, [sp, #112]
 1639              	.LVL166:
 1640 001a 2A46     		mov	r2, r5
 1641 001c 0DEB0501 		add	r1, sp, r5
 1642 0020 6846     		mov	r0, sp
 1643 0022 FFF7FEFF 		bl	memcpy
 1644              	.LVL167:
 1645              	.LBB148:
 1646              	.LBB149:
 316:.\source\rte/sc_input.h ****    signal->value  = value;
 1647              		.loc 3 316 0
 1648 0026 E66C     		ldr	r6, [r4, #76]
 317:.\source\rte/sc_input.h ****    signal->age    = 0;
 1649              		.loc 3 317 0
 1650 0028 2A46     		mov	r2, r5
 1651 002a 6946     		mov	r1, sp
 1652 002c 2046     		mov	r0, r4
 1653 002e FFF7FEFF 		bl	memcpy
 1654              	.LVL168:
 318:.\source\rte/sc_input.h ****    signal->status = RTE_SIGNALSTATUS_VALID;
 1655              		.loc 3 318 0
 1656 0032 0023     		movs	r3, #0
 1657 0034 A364     		str	r3, [r4, #72]
 319:.\source\rte/sc_input.h ****    if (TRUE == signal->pSigCfg->resourceActive) ReleaseResource(signal->pSigCfg->resource);
 1658              		.loc 3 319 0
 1659 0036 0223     		movs	r3, #2
 1660 0038 84F84430 		strb	r3, [r4, #68]
 323:.\source\rte/sc_input.h **** 
 1661              		.loc 3 323 0
 1662 003c 7569     		ldr	r5, [r6, #20]
 1663              	.LVL169:
 325:.\source\rte/sc_input.h ****       for( taskNum=0 ; taskNum < signal->pSigCfg->onUpdateTaskCount ;taskNum++){
 1664              		.loc 3 325 0
 1665 003e B368     		ldr	r3, [r6, #8]
 1666 0040 73B1     		cbz	r3, .L110
 1667 0042 3DB9     		cbnz	r5, .L113
 1668 0044 0CE0     		b	.L110
 1669              	.LVL170:
 1670              	.L112:
 1671              	.LBB150:
 1672              		.loc 3 329 0
 1673 0046 9968     		ldr	r1, [r3, #8]
 1674 0048 55F82400 		ldr	r0, [r5, r4, lsl #2]
 1675 004c FFF7FEFF 		bl	EE_oo_SetEvent
 1676              	.LVL171:
 1677              	.LBE150:
 326:.\source\rte/sc_input.h **** 		  
 1678              		.loc 3 326 0
 1679 0050 0134     		adds	r4, r4, #1
 1680              	.LVL172:
 1681 0052 00E0     		b	.L111
 1682              	.LVL173:
 1683              	.L113:
 325:.\source\rte/sc_input.h ****       for( taskNum=0 ; taskNum < signal->pSigCfg->onUpdateTaskCount ;taskNum++){
 1684              		.loc 3 325 0
 1685 0054 0024     		movs	r4, #0
ARM GAS  C:\Users\saman\AppData\Local\Temp\ccOAgYwr.s 			page 53


 1686              	.LVL174:
 1687              	.L111:
 326:.\source\rte/sc_input.h **** 		  
 1688              		.loc 3 326 0
 1689 0056 054B     		ldr	r3, .L115
 1690 0058 DB6C     		ldr	r3, [r3, #76]
 1691 005a 1A69     		ldr	r2, [r3, #16]
 1692 005c 9442     		cmp	r4, r2
 1693 005e F2D3     		bcc	.L112
 1694              	.LVL175:
 1695              	.L110:
 1696              	.LBE149:
 1697              	.LBE148:
 347:source\asw/clock.c **** }
 1698              		.loc 1 347 0
 1699 0060 0121     		movs	r1, #1
 1700 0062 0320     		movs	r0, #3
 1701 0064 FFF7FEFF 		bl	CLOCK__dispatch_Wrapper
 1702              	.LVL176:
 348:source\asw/clock.c **** 
 1703              		.loc 1 348 0
 1704 0068 22B0     		add	sp, sp, #136
 1705              		.cfi_def_cfa_offset 16
 1706              		@ sp needed
 1707 006a 70BD     		pop	{r4, r5, r6, pc}
 1708              	.L116:
 1709              		.align	2
 1710              	.L115:
 1711 006c 00000000 		.word	SO_INPUT_signal
 1712              		.cfi_endproc
 1713              	.LFE155:
 1714              		.size	CLOCK__dispatch_KRLP_Min, .-CLOCK__dispatch_KRLP_Min
 1715              		.section	.text.CLOCK__dispatch_KR_Min,"ax",%progbits
 1716              		.align	2
 1717              		.thumb
 1718              		.thumb_func
 1719              		.type	CLOCK__dispatch_KR_Min, %function
 1720              	CLOCK__dispatch_KR_Min:
 1721              	.LFB154:
 336:source\asw/clock.c ****     //UART_LOG_PutString("CLOCK__dispatch_KR_Min\n");
 1722              		.loc 1 336 0
 1723              		.cfi_startproc
 1724              		@ args = 0, pretend = 0, frame = 0
 1725              		@ frame_needed = 0, uses_anonymous_args = 0
 1726 0000 08B5     		push	{r3, lr}
 1727              		.cfi_def_cfa_offset 8
 1728              		.cfi_offset 3, -8
 1729              		.cfi_offset 14, -4
 338:source\asw/clock.c **** }
 1730              		.loc 1 338 0
 1731 0002 0121     		movs	r1, #1
 1732 0004 0220     		movs	r0, #2
 1733 0006 FFF7FEFF 		bl	CLOCK__dispatch_Wrapper
 1734              	.LVL177:
 1735 000a 08BD     		pop	{r3, pc}
 1736              		.cfi_endproc
 1737              	.LFE154:
ARM GAS  C:\Users\saman\AppData\Local\Temp\ccOAgYwr.s 			page 54


 1738              		.size	CLOCK__dispatch_KR_Min, .-CLOCK__dispatch_KR_Min
 1739              		.section	.text.CLOCK__dispatch_KL_Min,"ax",%progbits
 1740              		.align	2
 1741              		.thumb
 1742              		.thumb_func
 1743              		.type	CLOCK__dispatch_KL_Min, %function
 1744              	CLOCK__dispatch_KL_Min:
 1745              	.LFB153:
 330:source\asw/clock.c ****     //UART_LOG_PutString("CLOCK__dispatch_KL_Min\n");
 1746              		.loc 1 330 0
 1747              		.cfi_startproc
 1748              		@ args = 0, pretend = 0, frame = 0
 1749              		@ frame_needed = 0, uses_anonymous_args = 0
 1750 0000 08B5     		push	{r3, lr}
 1751              		.cfi_def_cfa_offset 8
 1752              		.cfi_offset 3, -8
 1753              		.cfi_offset 14, -4
 332:source\asw/clock.c **** }
 1754              		.loc 1 332 0
 1755 0002 0121     		movs	r1, #1
 1756 0004 0846     		mov	r0, r1
 1757 0006 FFF7FEFF 		bl	CLOCK__dispatch_Wrapper
 1758              	.LVL178:
 1759 000a 08BD     		pop	{r3, pc}
 1760              		.cfi_endproc
 1761              	.LFE153:
 1762              		.size	CLOCK__dispatch_KL_Min, .-CLOCK__dispatch_KL_Min
 1763              		.section	.text.statemachine_init,"ax",%progbits
 1764              		.align	2
 1765              		.global	statemachine_init
 1766              		.thumb
 1767              		.thumb_func
 1768              		.type	statemachine_init, %function
 1769              	statemachine_init:
 1770              	.LFB144:
 155:source\asw/clock.c ****     //UART_LOG_PutString("statemachine_init");
 1771              		.loc 1 155 0
 1772              		.cfi_startproc
 1773              		@ args = 0, pretend = 0, frame = 48
 1774              		@ frame_needed = 0, uses_anonymous_args = 0
 1775 0000 2DE9F041 		push	{r4, r5, r6, r7, r8, lr}
 1776              		.cfi_def_cfa_offset 24
 1777              		.cfi_offset 4, -24
 1778              		.cfi_offset 5, -20
 1779              		.cfi_offset 6, -16
 1780              		.cfi_offset 7, -12
 1781              		.cfi_offset 8, -8
 1782              		.cfi_offset 14, -4
 1783 0004 8CB0     		sub	sp, sp, #48
 1784              		.cfi_def_cfa_offset 72
 158:source\asw/clock.c ****     
 1785              		.loc 1 158 0
 1786 0006 2E4E     		ldr	r6, .L127
 1787 0008 4FF00008 		mov	r8, #0
 1788 000c A6F81E80 		strh	r8, [r6, #30]	@ movhi
 1789              	.LVL179:
 1790              	.LBB151:
ARM GAS  C:\Users\saman\AppData\Local\Temp\ccOAgYwr.s 			page 55


 1791              	.LBB152:
 277:.\source\rte/sc_control.h **** }                                                                                                  
 1792              		.loc 2 277 0
 1793 0010 2C4F     		ldr	r7, .L127+4
 1794 0012 06AD     		add	r5, sp, #24
 1795 0014 3C46     		mov	r4, r7
 1796 0016 0FCC     		ldmia	r4!, {r0, r1, r2, r3}
 1797 0018 0FC5     		stmia	r5!, {r0, r1, r2, r3}
 1798 001a 94E80300 		ldmia	r4, {r0, r1}
 1799 001e 85E80300 		stmia	r5, {r0, r1}
 1800              	.LVL180:
 1801              	.LBE152:
 1802              	.LBE151:
 162:source\asw/clock.c ****     control.minute.font_type.size = 4;
 1803              		.loc 1 162 0
 1804 0022 0423     		movs	r3, #4
 1805 0024 8DF81A30 		strb	r3, [sp, #26]
 163:source\asw/clock.c ****     
 1806              		.loc 1 163 0
 1807 0028 8DF82630 		strb	r3, [sp, #38]
 165:source\asw/clock.c ****     control.hour.font_type.y_pos = 60;
 1808              		.loc 1 165 0
 1809 002c 0A23     		movs	r3, #10
 1810 002e 8DF82030 		strb	r3, [sp, #32]
 166:source\asw/clock.c ****     
 1811              		.loc 1 166 0
 1812 0032 3C23     		movs	r3, #60
 1813 0034 8DF82130 		strb	r3, [sp, #33]
 168:source\asw/clock.c ****     control.minute.font_type.y_pos = 60;
 1814              		.loc 1 168 0
 1815 0038 4B22     		movs	r2, #75
 1816 003a 8DF82C20 		strb	r2, [sp, #44]
 169:source\asw/clock.c ****     
 1817              		.loc 1 169 0
 1818 003e 8DF82D30 		strb	r3, [sp, #45]
 171:source\asw/clock.c ****     control.minute.font_type.bg_colour = BLACK;
 1819              		.loc 1 171 0
 1820 0042 ADF81C80 		strh	r8, [sp, #28]	@ movhi
 172:source\asw/clock.c ****     
 1821              		.loc 1 172 0
 1822 0046 ADF82880 		strh	r8, [sp, #40]	@ movhi
 174:source\asw/clock.c ****     control.minute.font_type.widget = WHITE;
 1823              		.loc 1 174 0
 1824 004a 4FF6FF73 		movw	r3, #65535
 1825 004e ADF81E30 		strh	r3, [sp, #30]	@ movhi
 175:source\asw/clock.c ****     
 1826              		.loc 1 175 0
 1827 0052 ADF82A30 		strh	r3, [sp, #42]	@ movhi
 178:source\asw/clock.c ****     
 1828              		.loc 1 178 0
 1829 0056 06F11005 		add	r5, r6, #16
 1830 005a 2846     		mov	r0, r5
 1831 005c FFF7FEFF 		bl	STATE_initState
 1832              	.LVL181:
 180:source\asw/clock.c ****     RTE_SC_CONTROL_set(&SO_CONTROL_signal, control);
 1833              		.loc 1 180 0
 1834 0060 2846     		mov	r0, r5
ARM GAS  C:\Users\saman\AppData\Local\Temp\ccOAgYwr.s 			page 56


 1835 0062 FFF7FEFF 		bl	STATE_initState
 1836              	.LVL182:
 1837 0066 6D46     		mov	r5, sp
 1838 0068 06AE     		add	r6, sp, #24
 1839 006a 0FCE     		ldmia	r6!, {r0, r1, r2, r3}
 1840 006c 0FC5     		stmia	r5!, {r0, r1, r2, r3}
 1841 006e 96E80300 		ldmia	r6, {r0, r1}
 1842 0072 85E80300 		stmia	r5, {r0, r1}
 1843              	.LVL183:
 1844              	.LBB153:
 1845              	.LBB154:
 316:.\source\rte/sc_control.h ****    signal->value  = value;
 1846              		.loc 2 316 0
 1847 0076 D7F820E0 		ldr	lr, [r7, #32]
 317:.\source\rte/sc_control.h ****    signal->age    = 0;
 1848              		.loc 2 317 0
 1849 007a 3E46     		mov	r6, r7
 1850 007c 6D46     		mov	r5, sp
 1851 007e 0FCD     		ldmia	r5!, {r0, r1, r2, r3}
 1852 0080 0FC6     		stmia	r6!, {r0, r1, r2, r3}
 1853 0082 95E80300 		ldmia	r5, {r0, r1}
 1854 0086 84E80300 		stmia	r4, {r0, r1}
 318:.\source\rte/sc_control.h ****    signal->status = RTE_SIGNALSTATUS_VALID;
 1855              		.loc 2 318 0
 1856 008a C7F81C80 		str	r8, [r7, #28]
 319:.\source\rte/sc_control.h ****    if (TRUE == signal->pSigCfg->resourceActive) ReleaseResource(signal->pSigCfg->resource);
 1857              		.loc 2 319 0
 1858 008e 0223     		movs	r3, #2
 1859 0090 3B76     		strb	r3, [r7, #24]
 323:.\source\rte/sc_control.h **** 
 1860              		.loc 2 323 0
 1861 0092 DEF81450 		ldr	r5, [lr, #20]
 1862              	.LVL184:
 325:.\source\rte/sc_control.h ****       for( taskNum=0 ; taskNum < signal->pSigCfg->onUpdateTaskCount ;taskNum++){
 1863              		.loc 2 325 0
 1864 0096 DEF80830 		ldr	r3, [lr, #8]
 1865 009a 73B1     		cbz	r3, .L121
 1866 009c 3DB9     		cbnz	r5, .L125
 1867 009e 0CE0     		b	.L121
 1868              	.LVL185:
 1869              	.L124:
 1870              	.LBB155:
 1871              		.loc 2 329 0
 1872 00a0 9968     		ldr	r1, [r3, #8]
 1873 00a2 55F82400 		ldr	r0, [r5, r4, lsl #2]
 1874 00a6 FFF7FEFF 		bl	EE_oo_SetEvent
 1875              	.LVL186:
 1876              	.LBE155:
 326:.\source\rte/sc_control.h **** 		  
 1877              		.loc 2 326 0
 1878 00aa 0134     		adds	r4, r4, #1
 1879              	.LVL187:
 1880 00ac 00E0     		b	.L123
 1881              	.LVL188:
 1882              	.L125:
 325:.\source\rte/sc_control.h ****       for( taskNum=0 ; taskNum < signal->pSigCfg->onUpdateTaskCount ;taskNum++){
 1883              		.loc 2 325 0
ARM GAS  C:\Users\saman\AppData\Local\Temp\ccOAgYwr.s 			page 57


 1884 00ae 0024     		movs	r4, #0
 1885              	.LVL189:
 1886              	.L123:
 326:.\source\rte/sc_control.h **** 		  
 1887              		.loc 2 326 0
 1888 00b0 044B     		ldr	r3, .L127+4
 1889 00b2 1B6A     		ldr	r3, [r3, #32]
 1890 00b4 1A69     		ldr	r2, [r3, #16]
 1891 00b6 9442     		cmp	r4, r2
 1892 00b8 F2D3     		bcc	.L124
 1893              	.LVL190:
 1894              	.L121:
 1895              	.LBE154:
 1896              	.LBE153:
 182:source\asw/clock.c **** void ProcessEvent(STATE_event_t event)
 1897              		.loc 1 182 0
 1898 00ba 0CB0     		add	sp, sp, #48
 1899              		.cfi_def_cfa_offset 24
 1900              		@ sp needed
 1901 00bc BDE8F081 		pop	{r4, r5, r6, r7, r8, pc}
 1902              	.LVL191:
 1903              	.L128:
 1904              		.align	2
 1905              	.L127:
 1906 00c0 00000000 		.word	.LANCHOR0
 1907 00c4 00000000 		.word	SO_CONTROL_signal
 1908              		.cfi_endproc
 1909              	.LFE144:
 1910              		.size	statemachine_init, .-statemachine_init
 1911              		.section	.text.ProcessEvent,"ax",%progbits
 1912              		.align	2
 1913              		.global	ProcessEvent
 1914              		.thumb
 1915              		.thumb_func
 1916              		.type	ProcessEvent, %function
 1917              	ProcessEvent:
 1918              	.LFB145:
 184:source\asw/clock.c ****     SC_INPUT_data_t input;
 1919              		.loc 1 184 0
 1920              		.cfi_startproc
 1921              		@ args = 0, pretend = 0, frame = 0
 1922              		@ frame_needed = 0, uses_anonymous_args = 0
 1923              	.LVL192:
 1924 0000 08B5     		push	{r3, lr}
 1925              		.cfi_def_cfa_offset 8
 1926              		.cfi_offset 3, -8
 1927              		.cfi_offset 14, -4
 1928              	.LVL193:
 188:source\asw/clock.c ****     
 1929              		.loc 1 188 0
 1930 0002 0146     		mov	r1, r0
 1931 0004 0148     		ldr	r0, .L131
 1932              	.LVL194:
 1933 0006 FFF7FEFF 		bl	STATE_processEvent
 1934              	.LVL195:
 1935 000a 08BD     		pop	{r3, pc}
 1936              	.L132:
ARM GAS  C:\Users\saman\AppData\Local\Temp\ccOAgYwr.s 			page 58


 1937              		.align	2
 1938              	.L131:
 1939 000c 10000000 		.word	.LANCHOR0+16
 1940              		.cfi_endproc
 1941              	.LFE145:
 1942              		.size	ProcessEvent, .-ProcessEvent
 1943              		.global	widgetFSM
 1944              		.global	containerFSM
 1945              		.global	STATE_CLOCK_W_ISAUTOINCREMENT_Transitions
 1946              		.global	STATE_CLOCK_W_ISEDITING_Transitions
 1947              		.global	STATE_CLOCK_W_ISDISPLAYING_Transitions
 1948              		.global	STATE_CLOCK_C_ISEDITINGMINUTES_Transitions
 1949              		.global	STATE_CLOCK_C_ISEDITINGHOURS_Transitions
 1950              		.global	STATE_CLOCK_C_ISDISPLAYING_Transitions
 1951              		.comm	buffer,100,4
 1952              		.section	.rodata
 1953              		.align	2
 1954              		.type	CLOCK_Widget_Actions, %object
 1955              		.size	CLOCK_Widget_Actions, 36
 1956              	CLOCK_Widget_Actions:
 1957 0000 0300     		.short	3
 1958 0002 0000     		.space	2
 1959 0004 00000000 		.word	CLOCK__updateDisplay
 1960 0008 00000000 		.word	0
 1961 000c 0400     		.short	4
 1962 000e 0000     		.space	2
 1963 0010 00000000 		.word	CLOCK__updateDisplay
 1964 0014 00000000 		.word	0
 1965 0018 0500     		.short	5
 1966 001a 0000     		.space	2
 1967 001c 00000000 		.word	CLOCK__updateDisplay
 1968 0020 00000000 		.word	0
 1969              		.type	CLOCK_Widget_Transitions, %object
 1970              		.size	CLOCK_Widget_Transitions, 36
 1971              	CLOCK_Widget_Transitions:
 1972 0024 0300     		.short	3
 1973 0026 0000     		.space	2
 1974 0028 00000000 		.word	STATE_CLOCK_W_ISDISPLAYING_Transitions
 1975 002c 0100     		.short	1
 1976 002e 0000     		.space	2
 1977 0030 0400     		.short	4
 1978 0032 0000     		.space	2
 1979 0034 00000000 		.word	STATE_CLOCK_W_ISEDITING_Transitions
 1980 0038 0300     		.short	3
 1981 003a 0000     		.space	2
 1982 003c 0500     		.short	5
 1983 003e 0000     		.space	2
 1984 0040 00000000 		.word	STATE_CLOCK_W_ISAUTOINCREMENT_Transitions
 1985 0044 0300     		.short	3
 1986 0046 0000     		.space	2
 1987              		.type	STATE_CLOCK_W_ISAUTOINCREMENT_Transitions, %object
 1988              		.size	STATE_CLOCK_W_ISAUTOINCREMENT_Transitions, 36
 1989              	STATE_CLOCK_W_ISAUTOINCREMENT_Transitions:
 1990 0048 0200     		.short	2
 1991 004a 0400     		.short	4
 1992 004c 00000000 		.word	0
 1993 0050 00000000 		.word	CLOCK__incrementWidget
ARM GAS  C:\Users\saman\AppData\Local\Temp\ccOAgYwr.s 			page 59


 1994 0054 0400     		.short	4
 1995 0056 0500     		.short	5
 1996 0058 00000000 		.word	0
 1997 005c 00000000 		.word	CLOCK__incrementWidget
 1998 0060 0100     		.short	1
 1999 0062 0400     		.short	4
 2000 0064 00000000 		.word	0
 2001 0068 00000000 		.word	CLOCK__setDisplayFonts
 2002              		.type	STATE_CLOCK_W_ISEDITING_Transitions, %object
 2003              		.size	STATE_CLOCK_W_ISEDITING_Transitions, 36
 2004              	STATE_CLOCK_W_ISEDITING_Transitions:
 2005 006c 0200     		.short	2
 2006 006e 0400     		.short	4
 2007 0070 00000000 		.word	0
 2008 0074 00000000 		.word	CLOCK__incrementWidget
 2009 0078 0300     		.short	3
 2010 007a 0500     		.short	5
 2011 007c 00000000 		.word	0
 2012 0080 00000000 		.word	0
 2013 0084 0100     		.short	1
 2014 0086 0300     		.short	3
 2015 0088 00000000 		.word	0
 2016 008c 00000000 		.word	CLOCK__setDisplayFonts
 2017              		.type	STATE_CLOCK_W_ISDISPLAYING_Transitions, %object
 2018              		.size	STATE_CLOCK_W_ISDISPLAYING_Transitions, 12
 2019              	STATE_CLOCK_W_ISDISPLAYING_Transitions:
 2020 0090 0100     		.short	1
 2021 0092 0400     		.short	4
 2022 0094 00000000 		.word	0
 2023 0098 00000000 		.word	CLOCK__setEditFonts
 2024              		.type	CLOCK_Container_Actions, %object
 2025              		.size	CLOCK_Container_Actions, 12
 2026              	CLOCK_Container_Actions:
 2027 009c 0000     		.short	0
 2028 009e 0000     		.space	2
 2029 00a0 00000000 		.word	CLOCK__updateDisplay
 2030 00a4 00000000 		.word	0
 2031              		.type	CLOCK_Container_Transitions, %object
 2032              		.size	CLOCK_Container_Transitions, 36
 2033              	CLOCK_Container_Transitions:
 2034 00a8 0000     		.short	0
 2035 00aa 0000     		.space	2
 2036 00ac 00000000 		.word	STATE_CLOCK_C_ISDISPLAYING_Transitions
 2037 00b0 0200     		.short	2
 2038 00b2 0000     		.space	2
 2039 00b4 0100     		.short	1
 2040 00b6 0000     		.space	2
 2041 00b8 00000000 		.word	STATE_CLOCK_C_ISEDITINGHOURS_Transitions
 2042 00bc 0400     		.short	4
 2043 00be 0000     		.space	2
 2044 00c0 0200     		.short	2
 2045 00c2 0000     		.space	2
 2046 00c4 00000000 		.word	STATE_CLOCK_C_ISEDITINGMINUTES_Transitions
 2047 00c8 0400     		.short	4
 2048 00ca 0000     		.space	2
 2049              		.type	STATE_CLOCK_C_ISEDITINGMINUTES_Transitions, %object
 2050              		.size	STATE_CLOCK_C_ISEDITINGMINUTES_Transitions, 48
ARM GAS  C:\Users\saman\AppData\Local\Temp\ccOAgYwr.s 			page 60


 2051              	STATE_CLOCK_C_ISEDITINGMINUTES_Transitions:
 2052 00cc 0100     		.short	1
 2053 00ce 0000     		.short	0
 2054 00d0 00000000 		.word	0
 2055 00d4 00000000 		.word	CLOCK__dispatch_KL_Min
 2056 00d8 0200     		.short	2
 2057 00da 0200     		.short	2
 2058 00dc 00000000 		.word	0
 2059 00e0 00000000 		.word	CLOCK__dispatch_KR_Min
 2060 00e4 0300     		.short	3
 2061 00e6 0200     		.short	2
 2062 00e8 00000000 		.word	0
 2063 00ec 00000000 		.word	CLOCK__dispatch_KRLP_Min
 2064 00f0 0400     		.short	4
 2065 00f2 0200     		.short	2
 2066 00f4 00000000 		.word	0
 2067 00f8 00000000 		.word	CLOCK__dispatch_250MS_Min
 2068              		.type	STATE_CLOCK_C_ISEDITINGHOURS_Transitions, %object
 2069              		.size	STATE_CLOCK_C_ISEDITINGHOURS_Transitions, 48
 2070              	STATE_CLOCK_C_ISEDITINGHOURS_Transitions:
 2071 00fc 0100     		.short	1
 2072 00fe 0200     		.short	2
 2073 0100 00000000 		.word	0
 2074 0104 00000000 		.word	CLOCK__dispatch_KL_HoursMin
 2075 0108 0200     		.short	2
 2076 010a 0100     		.short	1
 2077 010c 00000000 		.word	0
 2078 0110 00000000 		.word	CLOCK__dispatch_KR_Hours
 2079 0114 0300     		.short	3
 2080 0116 0100     		.short	1
 2081 0118 00000000 		.word	0
 2082 011c 00000000 		.word	CLOCK__dispatch_KRLP_Hours
 2083 0120 0400     		.short	4
 2084 0122 0100     		.short	1
 2085 0124 00000000 		.word	0
 2086 0128 00000000 		.word	CLOCK__dispatch_250MS_Hours
 2087              		.type	STATE_CLOCK_C_ISDISPLAYING_Transitions, %object
 2088              		.size	STATE_CLOCK_C_ISDISPLAYING_Transitions, 24
 2089              	STATE_CLOCK_C_ISDISPLAYING_Transitions:
 2090 012c 0100     		.short	1
 2091 012e 0100     		.short	1
 2092 0130 00000000 		.word	0
 2093 0134 00000000 		.word	CLOCK__dispatch_KL_Hours
 2094 0138 0500     		.short	5
 2095 013a 0000     		.short	0
 2096 013c 00000000 		.word	0
 2097 0140 00000000 		.word	CLOCK__increment1Minute
 2098              		.data
 2099              		.align	2
 2100              		.set	.LANCHOR0,. + 0
 2101              		.type	widgetFSM, %object
 2102              		.size	widgetFSM, 16
 2103              	widgetFSM:
 2104 0000 24000000 		.word	CLOCK_Widget_Transitions
 2105 0004 0300     		.short	3
 2106 0006 0000     		.space	2
 2107 0008 00000000 		.word	CLOCK_Widget_Actions
ARM GAS  C:\Users\saman\AppData\Local\Temp\ccOAgYwr.s 			page 61


 2108 000c 0300     		.short	3
 2109 000e 0300     		.short	3
 2110              		.type	containerFSM, %object
 2111              		.size	containerFSM, 16
 2112              	containerFSM:
 2113 0010 A8000000 		.word	CLOCK_Container_Transitions
 2114 0014 0300     		.short	3
 2115 0016 0000     		.space	2
 2116 0018 9C000000 		.word	CLOCK_Container_Actions
 2117 001c 0100     		.short	1
 2118 001e 0000     		.short	0
 2119              		.text
 2120              	.Letext0:
 2121              		.file 4 ".\\source\\bsw/global.h"
 2122              		.file 5 "c:\\program files (x86)\\cypress\\psoc creator\\4.4\\psoc creator\\import\\gnu\\arm\\5.4.
 2123              		.file 6 "c:\\program files (x86)\\cypress\\psoc creator\\4.4\\psoc creator\\import\\gnu\\arm\\5.4.
 2124              		.file 7 "c:\\program files (x86)\\cypress\\psoc creator\\4.4\\psoc creator\\import\\gnu\\arm\\5.4.
 2125              		.file 8 ".\\source\\bsw\\tft/tft.h"
 2126              		.file 9 "source\\asw\\clock_type.h"
 2127              		.file 10 "source\\asw\\statemachine.h"
 2128              		.file 11 "source\\asw\\clock.h"
 2129              		.file 12 "Generated_Source\\PSoC5/ErikaOS_common_ee_types.inc"
 2130              		.file 13 "Generated_Source\\PSoC5/ErikaOS_cortex_mx_ee_cpu.inc"
 2131              		.file 14 "Generated_Source\\PSoC5/ErikaOS_ee_oo_common.inc"
 2132              		.file 15 ".\\source\\rte/rte_types.h"
 2133              		.file 16 ".\\source\\rte/rte.h"
 2134              		.file 17 ".\\source\\rte/sc_input_type.h"
 2135              		.file 18 ".\\source\\rte/sc_control_type.h"
 2136              		.file 19 "Generated_Source\\PSoC5/ErikaOS_ee_oo_intfunc.inc"
 2137              		.file 20 "Generated_Source\\PSoC5/ErikaOS_cortex_mx_ee_context.inc"
 2138              		.file 21 "Generated_Source\\PSoC5/ErikaOS_common_ee_primitives.inc"
 2139              		.file 22 "Generated_Source\\PSoC5/core_cm3.h"
 2140              		.file 23 ".\\source\\rte/sp_common.h"
 2141              		.file 24 "Generated_Source\\PSoC5/ErikaOS_ee_oo_kernel.inc"