ARM GAS  C:\Users\saman\AppData\Local\Temp\ccEQQ3FD.s 			page 1


   1              		.syntax unified
   2              		.cpu cortex-m3
   3              		.fpu softvfp
   4              		.eabi_attribute 20, 1
   5              		.eabi_attribute 21, 1
   6              		.eabi_attribute 23, 3
   7              		.eabi_attribute 24, 1
   8              		.eabi_attribute 25, 1
   9              		.eabi_attribute 26, 1
  10              		.eabi_attribute 30, 1
  11              		.eabi_attribute 34, 1
  12              		.eabi_attribute 18, 4
  13              		.thumb
  14              		.syntax unified
  15              		.file	"sc_input_type.c"
  16              		.text
  17              	.Ltext0:
  18              		.cfi_sections	.debug_frame
  19              		.section	.text.SC_INPUT_driverIn,"ax",%progbits
  20              		.align	2
  21              		.global	SC_INPUT_driverIn
  22              		.thumb
  23              		.thumb_func
  24              		.type	SC_INPUT_driverIn, %function
  25              	SC_INPUT_driverIn:
  26              	.LFB111:
  27              		.file 1 "source\\rte\\sc_input_type.c"
   1:source\rte/sc_input_type.c **** /*
   2:source\rte/sc_input_type.c ****  * Filename: sc_input_type.c
   3:source\rte/sc_input_type.c ****  *
   4:source\rte/sc_input_type.c ****  * Author: Autogenerated by H-DA RTE Generator, (c) Prof. Fromm
   5:source\rte/sc_input_type.c ****  *
   6:source\rte/sc_input_type.c ****  * description: Signalclass
   7:source\rte/sc_input_type.c ****  * name: sc_input
   8:source\rte/sc_input_type.c ****  * shortname: input
   9:source\rte/sc_input_type.c ****  *
  10:source\rte/sc_input_type.c ****  */
  11:source\rte/sc_input_type.c **** 
  12:source\rte/sc_input_type.c **** #include "project.h"
  13:source\rte/sc_input_type.c **** #include "global.h"
  14:source\rte/sc_input_type.c **** #include "rte.h"
  15:source\rte/sc_input_type.c **** #include "rte_types.h"
  16:source\rte/sc_input_type.c **** #include "sc_input_type.h"
  17:source\rte/sc_input_type.c **** 
  18:source\rte/sc_input_type.c **** 
  19:source\rte/sc_input_type.c **** 
  20:source\rte/sc_input_type.c **** /* USER CODE START SC_INPUT_INCLUDE */
  21:source\rte/sc_input_type.c **** #include "stdlib.h"
  22:source\rte/sc_input_type.c **** /* USER CODE END SC_INPUT_INCLUDE */
  23:source\rte/sc_input_type.c **** 
  24:source\rte/sc_input_type.c **** 
  25:source\rte/sc_input_type.c **** 
  26:source\rte/sc_input_type.c **** 
  27:source\rte/sc_input_type.c **** /* USER CODE START SC_INPUT_USERDEFINITIONS */
  28:source\rte/sc_input_type.c **** 
  29:source\rte/sc_input_type.c **** /* USER CODE END SC_INPUT_USERDEFINITIONS */
  30:source\rte/sc_input_type.c **** 
ARM GAS  C:\Users\saman\AppData\Local\Temp\ccEQQ3FD.s 			page 2


  31:source\rte/sc_input_type.c **** 
  32:source\rte/sc_input_type.c **** /*****************************************************************************************
  33:source\rte/sc_input_type.c ****  *************** Port Wrapper Implementation for SC_INPUT signal  ****************
  34:source\rte/sc_input_type.c ****  *****************************************************************************************/
  35:source\rte/sc_input_type.c ****  
  36:source\rte/sc_input_type.c ****  
  37:source\rte/sc_input_type.c **** 
  38:source\rte/sc_input_type.c **** /**
  39:source\rte/sc_input_type.c ****  * Default IN driver API
  40:source\rte/sc_input_type.c ****  */
  41:source\rte/sc_input_type.c **** inline RC_t SC_INPUT_driverIn(SC_INPUT_data_t *const data)
  42:source\rte/sc_input_type.c **** {
  28              		.loc 1 42 0
  29              		.cfi_startproc
  30              		@ args = 0, pretend = 0, frame = 0
  31              		@ frame_needed = 0, uses_anonymous_args = 0
  32              	.LVL0:
  33 0000 38B5     		push	{r3, r4, r5, lr}
  34              		.cfi_def_cfa_offset 16
  35              		.cfi_offset 3, -16
  36              		.cfi_offset 4, -12
  37              		.cfi_offset 5, -8
  38              		.cfi_offset 14, -4
  39 0002 0446     		mov	r4, r0
  43:source\rte/sc_input_type.c **** 	/* USER CODE START driverInSC_INPUT */
  44:source\rte/sc_input_type.c **** data->m_ev = EV_NONE;
  40              		.loc 1 44 0
  41 0004 0025     		movs	r5, #0
  42 0006 8570     		strb	r5, [r0, #2]
  45:source\rte/sc_input_type.c ****     data->Button_L_Status = Button_1_Read();
  43              		.loc 1 45 0
  44 0008 FFF7FEFF 		bl	Button_1_Read
  45              	.LVL1:
  46 000c 2070     		strb	r0, [r4]
  46:source\rte/sc_input_type.c ****     data->Button_R_Status = Button_2_Read();
  47              		.loc 1 46 0
  48 000e FFF7FEFF 		bl	Button_2_Read
  49              	.LVL2:
  50 0012 6070     		strb	r0, [r4, #1]
  47:source\rte/sc_input_type.c **** 	//Read data from the MCAL driver
  48:source\rte/sc_input_type.c **** 
  49:source\rte/sc_input_type.c **** 	//Scale it to the application type
  50:source\rte/sc_input_type.c **** 
  51:source\rte/sc_input_type.c **** 	return RC_SUCCESS;
  52:source\rte/sc_input_type.c **** 	/* USER CODE END driverInSC_INPUT */
  53:source\rte/sc_input_type.c **** }
  51              		.loc 1 53 0
  52 0014 2846     		mov	r0, r5
  53 0016 38BD     		pop	{r3, r4, r5, pc}
  54              		.cfi_endproc
  55              	.LFE111:
  56              		.size	SC_INPUT_driverIn, .-SC_INPUT_driverIn
  57              		.text
  58              	.Letext0:
  59              		.file 2 "c:\\program files (x86)\\cypress\\psoc creator\\4.4\\psoc creator\\import\\gnu\\arm\\5.4.
  60              		.file 3 "c:\\program files (x86)\\cypress\\psoc creator\\4.4\\psoc creator\\import\\gnu\\arm\\5.4.
  61              		.file 4 "Generated_Source\\PSoC5/ErikaOS_common_ee_types.inc"
ARM GAS  C:\Users\saman\AppData\Local\Temp\ccEQQ3FD.s 			page 3


  62              		.file 5 "Generated_Source\\PSoC5/ErikaOS_cortex_mx_ee_cpu.inc"
  63              		.file 6 ".\\source\\bsw/global.h"
  64              		.file 7 ".\\source\\bsw\\tft/tft.h"
  65              		.file 8 ".\\source\\asw/clock_type.h"
  66              		.file 9 ".\\source\\asw/statemachine.h"
  67              		.file 10 ".\\source\\asw/clock.h"
  68              		.file 11 "source\\rte\\sc_input_type.h"
  69              		.file 12 "Generated_Source\\PSoC5/ErikaOS_ee_oo_intfunc.inc"
  70              		.file 13 "Generated_Source\\PSoC5/ErikaOS_cortex_mx_ee_context.inc"
  71              		.file 14 "Generated_Source\\PSoC5/ErikaOS_common_ee_primitives.inc"
  72              		.file 15 "Generated_Source\\PSoC5/core_cm3.h"
  73              		.file 16 "Generated_Source\\PSoC5/Button_1.h"
  74              		.file 17 "Generated_Source\\PSoC5/Button_2.h"