ARM GAS  C:\Users\saman\AppData\Local\Temp\ccC7edaO.s 			page 1


   1              		.syntax unified
   2              		.cpu cortex-m3
   3              		.fpu softvfp
   4              		.eabi_attribute 20, 1
   5              		.eabi_attribute 21, 1
   6              		.eabi_attribute 23, 3
   7              		.eabi_attribute 24, 1
   8              		.eabi_attribute 25, 1
   9              		.eabi_attribute 26, 1
  10              		.eabi_attribute 30, 1
  11              		.eabi_attribute 34, 1
  12              		.eabi_attribute 18, 4
  13              		.thumb
  14              		.syntax unified
  15              		.file	"sp_common.c"
  16              		.text
  17              	.Ltext0:
  18              		.cfi_sections	.debug_frame
  19              		.section	.text.RTE_timertick_sp_common_tick,"ax",%progbits
  20              		.align	2
  21              		.global	RTE_timertick_sp_common_tick
  22              		.thumb
  23              		.thumb_func
  24              		.type	RTE_timertick_sp_common_tick, %function
  25              	RTE_timertick_sp_common_tick:
  26              	.LFB144:
  27              		.file 1 "source\\rte\\sp_common.c"
   1:source\rte/sp_common.c **** /*
   2:source\rte/sp_common.c ****  * Filename: sp_common.c
   3:source\rte/sp_common.c ****  *
   4:source\rte/sp_common.c ****  * Author: Autogenerated by H-DA RTE Generator, (c) Prof. Fromm
   5:source\rte/sp_common.c ****  *
   6:source\rte/sp_common.c ****  * description: 
   7:source\rte/sp_common.c ****  * endaddr: ADR_SP_COMMON_END
   8:source\rte/sp_common.c ****  * name: sp_common
   9:source\rte/sp_common.c ****  * shortname: common
  10:source\rte/sp_common.c ****  * startaddr: ADR_SP_COMMON_START
  11:source\rte/sp_common.c ****  *
  12:source\rte/sp_common.c ****  */
  13:source\rte/sp_common.c **** 
  14:source\rte/sp_common.c **** #include "project.h"
  15:source\rte/sp_common.c **** #include "global.h"
  16:source\rte/sp_common.c **** #include "rte.h"
  17:source\rte/sp_common.c **** #include "rte_types.h"
  18:source\rte/sp_common.c **** #include "sp_common.h"
  19:source\rte/sp_common.c **** 
  20:source\rte/sp_common.c **** 
  21:source\rte/sp_common.c **** 
  22:source\rte/sp_common.c **** /* USER CODE START SP_COMMON_INCLUDE */
  23:source\rte/sp_common.c **** 
  24:source\rte/sp_common.c **** /* USER CODE END SP_COMMON_INCLUDE */
  25:source\rte/sp_common.c **** 
  26:source\rte/sp_common.c **** #include "sc_input.h"
  27:source\rte/sp_common.c **** #include "sc_input_type.h"
  28:source\rte/sp_common.c **** #include "sc_control.h"
  29:source\rte/sp_common.c **** #include "sc_control_type.h"
  30:source\rte/sp_common.c **** #include "sc_display.h"
ARM GAS  C:\Users\saman\AppData\Local\Temp\ccC7edaO.s 			page 2


  31:source\rte/sp_common.c **** #include "sc_display_type.h"
  32:source\rte/sp_common.c **** 
  33:source\rte/sp_common.c **** 
  34:source\rte/sp_common.c **** 
  35:source\rte/sp_common.c **** /* signal configuration */
  36:source\rte/sp_common.c **** /*
  37:source\rte/sp_common.c ****  * description: A Signal for input event
  38:source\rte/sp_common.c ****  * indriver: default
  39:source\rte/sp_common.c ****  * name: so_input
  40:source\rte/sp_common.c ****  * onDataError: 0
  41:source\rte/sp_common.c ****  * onDataUpdate: ev_onData
  42:source\rte/sp_common.c ****  * outdriver: 0
  43:source\rte/sp_common.c ****  * resource: None
  44:source\rte/sp_common.c ****  * shortname: input
  45:source\rte/sp_common.c ****  * signalclass: sc_input
  46:source\rte/sp_common.c ****  * signalpool: sp_common
  47:source\rte/sp_common.c ****  */
  48:source\rte/sp_common.c **** 
  49:source\rte/sp_common.c **** 
  50:source\rte/sp_common.c **** /* The following array contains the receiving tasks for onUpdate signal events */
  51:source\rte/sp_common.c **** const TaskTypeArray so_input_updTasks = { tsk_control };
  52:source\rte/sp_common.c ****  
  53:source\rte/sp_common.c **** 
  54:source\rte/sp_common.c **** static const SC_INPUT_cfg_t SO_INPUT_cfg = 
  55:source\rte/sp_common.c **** {
  56:source\rte/sp_common.c ****    /* indriver           */  SC_INPUT_driverIn,
  57:source\rte/sp_common.c ****    /* outdriver          */  0,
  58:source\rte/sp_common.c **** 
  59:source\rte/sp_common.c ****    /* onUpdate           */  ev_onData,
  60:source\rte/sp_common.c ****    /* onError            */  0,
  61:source\rte/sp_common.c ****    /* taskCount onUpdate */  1,
  62:source\rte/sp_common.c ****    /* task list onUpdate */  &so_input_updTasks,
  63:source\rte/sp_common.c ****    /* taskCount onError  */  0,
  64:source\rte/sp_common.c ****    /* task list onError  */  NULL,
  65:source\rte/sp_common.c **** 
  66:source\rte/sp_common.c ****    /* resource active    */  FALSE,
  67:source\rte/sp_common.c ****    /* resource           */  0,
  68:source\rte/sp_common.c ****    
  69:source\rte/sp_common.c **** }; /* configuration so_input */
  70:source\rte/sp_common.c **** 
  71:source\rte/sp_common.c **** 
  72:source\rte/sp_common.c **** /* signal data */
  73:source\rte/sp_common.c **** 
  74:source\rte/sp_common.c **** SC_INPUT_t SO_INPUT_signal= 
  75:source\rte/sp_common.c **** {
  76:source\rte/sp_common.c ****    /* init value    */  SC_INPUT_INIT_DATA,
  77:source\rte/sp_common.c ****    /* status        */  RTE_SIGNALSTATUS_STARTUP,
  78:source\rte/sp_common.c ****    /* age           */  0,
  79:source\rte/sp_common.c ****    /* cfg           */  &SO_INPUT_cfg,
  80:source\rte/sp_common.c **** }; /* data so_input */
  81:source\rte/sp_common.c **** 
  82:source\rte/sp_common.c **** /* signal configuration */
  83:source\rte/sp_common.c **** /*
  84:source\rte/sp_common.c ****  * description: A Signal
  85:source\rte/sp_common.c ****  * indriver: 0
  86:source\rte/sp_common.c ****  * name: so_control
  87:source\rte/sp_common.c ****  * onDataError: 0
ARM GAS  C:\Users\saman\AppData\Local\Temp\ccC7edaO.s 			page 3


  88:source\rte/sp_common.c ****  * onDataUpdate: 0
  89:source\rte/sp_common.c ****  * outdriver: 0
  90:source\rte/sp_common.c ****  * resource: None
  91:source\rte/sp_common.c ****  * shortname: control
  92:source\rte/sp_common.c ****  * signalclass: sc_control
  93:source\rte/sp_common.c ****  * signalpool: sp_common
  94:source\rte/sp_common.c ****  */
  95:source\rte/sp_common.c **** 
  96:source\rte/sp_common.c ****  
  97:source\rte/sp_common.c **** 
  98:source\rte/sp_common.c **** static const SC_CONTROL_cfg_t SO_CONTROL_cfg = 
  99:source\rte/sp_common.c **** {
 100:source\rte/sp_common.c ****    /* indriver           */  0,
 101:source\rte/sp_common.c ****    /* outdriver          */  0,
 102:source\rte/sp_common.c **** 
 103:source\rte/sp_common.c ****    /* onUpdate           */  0,
 104:source\rte/sp_common.c ****    /* onError            */  0,
 105:source\rte/sp_common.c ****    /* taskCount onUpdate */  0,
 106:source\rte/sp_common.c ****    /* task list onUpdate */  NULL,
 107:source\rte/sp_common.c ****    /* taskCount onError  */  0,
 108:source\rte/sp_common.c ****    /* task list onError  */  NULL,
 109:source\rte/sp_common.c **** 
 110:source\rte/sp_common.c ****    /* resource active    */  FALSE,
 111:source\rte/sp_common.c ****    /* resource           */  0,
 112:source\rte/sp_common.c ****    
 113:source\rte/sp_common.c **** }; /* configuration so_control */
 114:source\rte/sp_common.c **** 
 115:source\rte/sp_common.c **** 
 116:source\rte/sp_common.c **** /* signal data */
 117:source\rte/sp_common.c **** 
 118:source\rte/sp_common.c **** SC_CONTROL_t SO_CONTROL_signal= 
 119:source\rte/sp_common.c **** {
 120:source\rte/sp_common.c ****    /* init value    */  SC_CONTROL_INIT_DATA,
 121:source\rte/sp_common.c ****    /* status        */  RTE_SIGNALSTATUS_STARTUP,
 122:source\rte/sp_common.c ****    /* age           */  0,
 123:source\rte/sp_common.c ****    /* cfg           */  &SO_CONTROL_cfg,
 124:source\rte/sp_common.c **** }; /* data so_control */
 125:source\rte/sp_common.c **** 
 126:source\rte/sp_common.c **** /* signal configuration */
 127:source\rte/sp_common.c **** /*
 128:source\rte/sp_common.c ****  * description: A Signal
 129:source\rte/sp_common.c ****  * indriver: 0
 130:source\rte/sp_common.c ****  * name: so_display
 131:source\rte/sp_common.c ****  * onDataError: 0
 132:source\rte/sp_common.c ****  * onDataUpdate: 0
 133:source\rte/sp_common.c ****  * outdriver: default
 134:source\rte/sp_common.c ****  * resource: None
 135:source\rte/sp_common.c ****  * shortname: display
 136:source\rte/sp_common.c ****  * signalclass: sc_display
 137:source\rte/sp_common.c ****  * signalpool: sp_common
 138:source\rte/sp_common.c ****  */
 139:source\rte/sp_common.c **** 
 140:source\rte/sp_common.c ****  
 141:source\rte/sp_common.c **** 
 142:source\rte/sp_common.c **** static const SC_DISPLAY_cfg_t SO_DISPLAY_cfg = 
 143:source\rte/sp_common.c **** {
 144:source\rte/sp_common.c ****    /* indriver           */  0,
ARM GAS  C:\Users\saman\AppData\Local\Temp\ccC7edaO.s 			page 4


 145:source\rte/sp_common.c ****    /* outdriver          */  SC_DISPLAY_driverOut,
 146:source\rte/sp_common.c **** 
 147:source\rte/sp_common.c ****    /* onUpdate           */  0,
 148:source\rte/sp_common.c ****    /* onError            */  0,
 149:source\rte/sp_common.c ****    /* taskCount onUpdate */  0,
 150:source\rte/sp_common.c ****    /* task list onUpdate */  NULL,
 151:source\rte/sp_common.c ****    /* taskCount onError  */  0,
 152:source\rte/sp_common.c ****    /* task list onError  */  NULL,
 153:source\rte/sp_common.c **** 
 154:source\rte/sp_common.c ****    /* resource active    */  FALSE,
 155:source\rte/sp_common.c ****    /* resource           */  0,
 156:source\rte/sp_common.c ****    
 157:source\rte/sp_common.c **** }; /* configuration so_display */
 158:source\rte/sp_common.c **** 
 159:source\rte/sp_common.c **** 
 160:source\rte/sp_common.c **** /* signal data */
 161:source\rte/sp_common.c **** 
 162:source\rte/sp_common.c **** SC_DISPLAY_t SO_DISPLAY_signal= 
 163:source\rte/sp_common.c **** {
 164:source\rte/sp_common.c ****    /* init value    */  SC_DISPLAY_INIT_DATA,
 165:source\rte/sp_common.c ****    /* status        */  RTE_SIGNALSTATUS_STARTUP,
 166:source\rte/sp_common.c ****    /* age           */  0,
 167:source\rte/sp_common.c ****    /* cfg           */  &SO_DISPLAY_cfg,
 168:source\rte/sp_common.c **** }; /* data so_display */
 169:source\rte/sp_common.c **** 
 170:source\rte/sp_common.c **** 
 171:source\rte/sp_common.c **** 
 172:source\rte/sp_common.c **** /*
 173:source\rte/sp_common.c ****  * Increments the age of the signals in this pool 
 174:source\rte/sp_common.c ****  */
 175:source\rte/sp_common.c **** void RTE_timertick_sp_common_tick(uint32_t tick){
  28              		.loc 1 175 0
  29              		.cfi_startproc
  30              		@ args = 0, pretend = 0, frame = 0
  31              		@ frame_needed = 0, uses_anonymous_args = 0
  32              		@ link register save eliminated.
  33              	.LVL0:
  34              	.LBB14:
  35              	.LBB15:
  36              		.file 2 "source\\rte\\sc_input.h"
   1:source\rte/sc_input.h **** 
   2:source\rte/sc_input.h **** 
   3:source\rte/sc_input.h **** /**
   4:source\rte/sc_input.h ****  *  file    SC_INPUT_signal.h
   5:source\rte/sc_input.h ****  *
   6:source\rte/sc_input.h ****  *  brief   signal base class for signal sc_input
   7:source\rte/sc_input.h ****  *
   8:source\rte/sc_input.h ****  *  author  Autogenerated, Peter Fromm       <peter.fromm@h-da.de>
   9:source\rte/sc_input.h ****  *
  10:source\rte/sc_input.h ****  * description: Signalclass
  11:source\rte/sc_input.h ****  * name: sc_input
  12:source\rte/sc_input.h ****  * shortname: input
  13:source\rte/sc_input.h ****  *
  14:source\rte/sc_input.h ****  */
  15:source\rte/sc_input.h **** 
  16:source\rte/sc_input.h **** 
  17:source\rte/sc_input.h **** 
ARM GAS  C:\Users\saman\AppData\Local\Temp\ccC7edaO.s 			page 5


  18:source\rte/sc_input.h **** #ifndef SC_INPUT_SIGNAL_H_INCLUDED
  19:source\rte/sc_input.h **** #define SC_INPUT_SIGNAL_H_INCLUDED
  20:source\rte/sc_input.h **** 
  21:source\rte/sc_input.h **** /*================================================[ public includes  ]=============================
  22:source\rte/sc_input.h **** #include "global.h"
  23:source\rte/sc_input.h **** #include "project.h"
  24:source\rte/sc_input.h **** #include "rte.h"
  25:source\rte/sc_input.h **** #include "rte_types.h"
  26:source\rte/sc_input.h **** 
  27:source\rte/sc_input.h **** #include "sc_input_type.h"
  28:source\rte/sc_input.h **** 
  29:source\rte/sc_input.h **** 
  30:source\rte/sc_input.h **** /**************************************************************************************************
  31:source\rte/sc_input.h **** /* The driver API block																						*/
  32:source\rte/sc_input.h **** /**************************************************************************************************
  33:source\rte/sc_input.h ****                                                                                                    
  34:source\rte/sc_input.h **** /**
  35:source\rte/sc_input.h ****  *  Definition of function types for driver interfaces.
  36:source\rte/sc_input.h ****  *  I-Port
  37:source\rte/sc_input.h ****  */
  38:source\rte/sc_input.h **** typedef RC_t (*SC_INPUT_driverIn_t)(SC_INPUT_data_t * const);
  39:source\rte/sc_input.h **** 
  40:source\rte/sc_input.h **** /**
  41:source\rte/sc_input.h ****  *  Definition of function types for driver interfaces.
  42:source\rte/sc_input.h ****  *  O-Port
  43:source\rte/sc_input.h ****  */
  44:source\rte/sc_input.h **** typedef RC_t (*SC_INPUT_driverOut_t)( const SC_INPUT_data_t * const);
  45:source\rte/sc_input.h **** 
  46:source\rte/sc_input.h **** 
  47:source\rte/sc_input.h **** /**************************************************************************************************
  48:source\rte/sc_input.h **** /* The signal configuration API block																				*/
  49:source\rte/sc_input.h **** /**************************************************************************************************
  50:source\rte/sc_input.h **** 
  51:source\rte/sc_input.h **** /**
  52:source\rte/sc_input.h ****  * Instances of the struct SC_INPUT_cfg_t represent the signal object configuration.
  53:source\rte/sc_input.h ****  */
  54:source\rte/sc_input.h **** struct SC_INPUT_cfg_s
  55:source\rte/sc_input.h **** {
  56:source\rte/sc_input.h ****     /**
  57:source\rte/sc_input.h ****      * Function pointer to the input driver
  58:source\rte/sc_input.h ****      */
  59:source\rte/sc_input.h ****     SC_INPUT_driverIn_t const inDriver;
  60:source\rte/sc_input.h **** 
  61:source\rte/sc_input.h ****     /**
  62:source\rte/sc_input.h ****      * Function pointer to the output driver table
  63:source\rte/sc_input.h ****      */
  64:source\rte/sc_input.h ****    SC_INPUT_driverOut_t const outDriver;
  65:source\rte/sc_input.h ****    
  66:source\rte/sc_input.h ****     /**
  67:source\rte/sc_input.h ****      * Event onUpdate
  68:source\rte/sc_input.h ****      */
  69:source\rte/sc_input.h ****     EventMaskType const evOnUpdate;
  70:source\rte/sc_input.h ****     
  71:source\rte/sc_input.h ****     
  72:source\rte/sc_input.h ****     /**
  73:source\rte/sc_input.h ****      * Event onError
  74:source\rte/sc_input.h ****      */
ARM GAS  C:\Users\saman\AppData\Local\Temp\ccC7edaO.s 			page 6


  75:source\rte/sc_input.h ****     EventMaskType const evOnError;
  76:source\rte/sc_input.h ****     
  77:source\rte/sc_input.h ****     /**
  78:source\rte/sc_input.h ****      * Task Count onUpdate
  79:source\rte/sc_input.h ****      */
  80:source\rte/sc_input.h ****     size_t const onUpdateTaskCount;
  81:source\rte/sc_input.h **** 
  82:source\rte/sc_input.h ****     /**
  83:source\rte/sc_input.h ****      * Task List onUpdate
  84:source\rte/sc_input.h ****      */
  85:source\rte/sc_input.h ****     TaskTypeArray* const onUpdateTasks;
  86:source\rte/sc_input.h ****     
  87:source\rte/sc_input.h ****     /**
  88:source\rte/sc_input.h ****      * Task Count onError
  89:source\rte/sc_input.h ****      */
  90:source\rte/sc_input.h ****     size_t const onErrorTaskCount;
  91:source\rte/sc_input.h **** 
  92:source\rte/sc_input.h ****     /**
  93:source\rte/sc_input.h ****      * Task List onError
  94:source\rte/sc_input.h ****      */
  95:source\rte/sc_input.h ****     TaskTypeArray* const onErrorTasks;
  96:source\rte/sc_input.h **** 	
  97:source\rte/sc_input.h **** 	
  98:source\rte/sc_input.h **** 	/**
  99:source\rte/sc_input.h **** 	 * Ressourse is active? We need an additional boolean as a ressource value 0 is valid.
 100:source\rte/sc_input.h **** 	 */
 101:source\rte/sc_input.h **** 	 boolean_t const resourceActive;
 102:source\rte/sc_input.h **** 	 
 103:source\rte/sc_input.h **** 	/**
 104:source\rte/sc_input.h **** 	 * Ressourse 
 105:source\rte/sc_input.h **** 	 */
 106:source\rte/sc_input.h **** 	 ResourceType const resource;
 107:source\rte/sc_input.h **** 
 108:source\rte/sc_input.h **** };                                                                                                 
 109:source\rte/sc_input.h **** typedef const struct SC_INPUT_cfg_s SC_INPUT_cfg_t;
 110:source\rte/sc_input.h ****                               
 111:source\rte/sc_input.h **** /**************************************************************************************************
 112:source\rte/sc_input.h **** /* The data interface block																							*/
 113:source\rte/sc_input.h **** /**************************************************************************************************
 114:source\rte/sc_input.h **** 
 115:source\rte/sc_input.h ****                                                                                                    
 116:source\rte/sc_input.h **** 							  
 117:source\rte/sc_input.h **** /**
 118:source\rte/sc_input.h ****  * Instances of the struct SC_INPUT_t represent the signal objects.
 119:source\rte/sc_input.h ****  * A signal object contains the current application value 'value' as well as relevant meta data.
 120:source\rte/sc_input.h ****  */
 121:source\rte/sc_input.h **** struct SC_INPUT_s
 122:source\rte/sc_input.h **** {                                                                                                  
 123:source\rte/sc_input.h **** 
 124:source\rte/sc_input.h **** 	/**
 125:source\rte/sc_input.h **** 	 * Data buffer for the application value
 126:source\rte/sc_input.h **** 	 */
 127:source\rte/sc_input.h ****     SC_INPUT_data_t value;
 128:source\rte/sc_input.h **** 
 129:source\rte/sc_input.h ****     /**
 130:source\rte/sc_input.h ****      * Current signal status
 131:source\rte/sc_input.h ****      */
ARM GAS  C:\Users\saman\AppData\Local\Temp\ccC7edaO.s 			page 7


 132:source\rte/sc_input.h ****     RTE_signalStatus_t status;
 133:source\rte/sc_input.h **** 
 134:source\rte/sc_input.h ****     /**
 135:source\rte/sc_input.h ****      * Current age of the signal (in calling cycles)
 136:source\rte/sc_input.h ****      */
 137:source\rte/sc_input.h ****     uint32_t age;
 138:source\rte/sc_input.h **** 
 139:source\rte/sc_input.h ****     /**
 140:source\rte/sc_input.h ****      * Pointer to the signal configuration
 141:source\rte/sc_input.h ****      */
 142:source\rte/sc_input.h **** 	const SC_INPUT_cfg_t * const    pSigCfg;
 143:source\rte/sc_input.h **** 
 144:source\rte/sc_input.h **** };                                                                                                 
 145:source\rte/sc_input.h **** typedef struct SC_INPUT_s SC_INPUT_t;
 146:source\rte/sc_input.h **** 
 147:source\rte/sc_input.h **** /**************************************************************************************************
 148:source\rte/sc_input.h **** /* Signal initialisation   																							*/
 149:source\rte/sc_input.h **** /**************************************************************************************************
 150:source\rte/sc_input.h **** 
 151:source\rte/sc_input.h **** /**
 152:source\rte/sc_input.h ****  * Initializes a signal instance with a passed init value.
 153:source\rte/sc_input.h ****  * Depending on the configured conversion or scaling function the raw_value will be calculated.
 154:source\rte/sc_input.h ****  * Signal status will change from RTE_SIGNALSTATUS_STARTUP to RTE_SIGNALSTATUS_INITIALIZED.
 155:source\rte/sc_input.h ****  *
 156:source\rte/sc_input.h ****  * @param  SC_INPUT_t * const signal: Pointer to the signal object which will be initialised
 157:source\rte/sc_input.h ****  * @return RC_t: standard return code, currently only RC_SUCCESS
 158:source\rte/sc_input.h ****  *
 159:source\rte/sc_input.h ****  **/
 160:source\rte/sc_input.h **** inline RC_t RTE_SC_INPUT_init( SC_INPUT_t * const signal )
 161:source\rte/sc_input.h **** {                                                                                                  
 162:source\rte/sc_input.h **** 
 163:source\rte/sc_input.h ****    RC_t ret = RC_SUCCESS;
 164:source\rte/sc_input.h **** 
 165:source\rte/sc_input.h ****    //Set value and raw value
 166:source\rte/sc_input.h ****    signal->value  = SC_INPUT_INIT_DATA;
 167:source\rte/sc_input.h ****    signal->age    = 0;
 168:source\rte/sc_input.h ****    signal->status = RTE_SIGNALSTATUS_INITIALIZED;
 169:source\rte/sc_input.h **** 
 170:source\rte/sc_input.h ****    return ret;
 171:source\rte/sc_input.h **** }
 172:source\rte/sc_input.h **** 
 173:source\rte/sc_input.h **** /**************************************************************************************************
 174:source\rte/sc_input.h **** /* Status and timeout control																						*/
 175:source\rte/sc_input.h **** /**************************************************************************************************
 176:source\rte/sc_input.h **** 
 177:source\rte/sc_input.h **** /**
 178:source\rte/sc_input.h ****  *  Returns the current signal status of the passed signal instance.
 179:source\rte/sc_input.h ****  *
 180:source\rte/sc_input.h ****  * @param  SC_INPUT_t * const signal: Pointer to the signal object
 181:source\rte/sc_input.h ****  * @return  sig_status_t: The current signal status
 182:source\rte/sc_input.h ****  *
 183:source\rte/sc_input.h ****  **/
 184:source\rte/sc_input.h **** inline RTE_signalStatus_t RTE_SC_INPUT_getStatus( const SC_INPUT_t * const signal )
 185:source\rte/sc_input.h **** {
 186:source\rte/sc_input.h ****    return signal->status;
 187:source\rte/sc_input.h **** }
 188:source\rte/sc_input.h **** 
ARM GAS  C:\Users\saman\AppData\Local\Temp\ccC7edaO.s 			page 8


 189:source\rte/sc_input.h **** 
 190:source\rte/sc_input.h **** /**
 191:source\rte/sc_input.h ****  *  Sets a new signal status of the passed signal instance by passing the new status.
 192:source\rte/sc_input.h ****  *
 193:source\rte/sc_input.h ****  * @param  SC_INPUT_t * const signal: Pointer to the signal object
 194:source\rte/sc_input.h ****  * @param  const sig_status_t status: New signal status
 195:source\rte/sc_input.h ****  * @return RC_t: standard return code, currently only RC_SUCCESS
 196:source\rte/sc_input.h ****  *
 197:source\rte/sc_input.h ****  */
 198:source\rte/sc_input.h **** inline RC_t RTE_SC_INPUT_setStatus( SC_INPUT_t * const signal, const RTE_signalStatus_t status )
 199:source\rte/sc_input.h **** {
 200:source\rte/sc_input.h ****    signal->status = status;
 201:source\rte/sc_input.h ****    size_t taskNum=0;
 202:source\rte/sc_input.h ****    
 203:source\rte/sc_input.h ****    //Fire error events in case of invalid state
 204:source\rte/sc_input.h ****    if (signal->status == RTE_SIGNALSTATUS_INVALID)
 205:source\rte/sc_input.h ****    {
 206:source\rte/sc_input.h **** 	    //Pointer to the Taskarray, containing the tasks receiving the onUpdate events
 207:source\rte/sc_input.h **** 		TaskTypeArray* pTaskArray = signal->pSigCfg->onErrorTasks;
 208:source\rte/sc_input.h **** 
 209:source\rte/sc_input.h **** 		if (0 != signal->pSigCfg->evOnError && NULL != pTaskArray){
 210:source\rte/sc_input.h **** 			for( taskNum=0 ; taskNum < signal->pSigCfg->onErrorTaskCount ;taskNum++){
 211:source\rte/sc_input.h **** 				TaskType task = (*pTaskArray)[taskNum];
 212:source\rte/sc_input.h **** 				SetEvent( task, signal->pSigCfg->evOnError);
 213:source\rte/sc_input.h **** 			}
 214:source\rte/sc_input.h **** 		}
 215:source\rte/sc_input.h ****    }
 216:source\rte/sc_input.h ****    
 217:source\rte/sc_input.h ****    return RC_SUCCESS;
 218:source\rte/sc_input.h **** }
 219:source\rte/sc_input.h **** 
 220:source\rte/sc_input.h **** 
 221:source\rte/sc_input.h **** /**
 222:source\rte/sc_input.h ****  * Returns the count of refreshing trials (refresh, set or set_raw) that failed.
 223:source\rte/sc_input.h ****  * Prerquisite: The signal is refreshed cyclically
 224:source\rte/sc_input.h ****  *
 225:source\rte/sc_input.h ****  * @param  SC_INPUT_t * const signal: Pointer to the signal object
 226:source\rte/sc_input.h ****  * @return uint32_t: Number of cycles since the signal has been updated for the last time
 227:source\rte/sc_input.h ****  */
 228:source\rte/sc_input.h **** inline uint32_t RTE_SC_INPUT_getAge( const SC_INPUT_t * const signal )
 229:source\rte/sc_input.h **** {
 230:source\rte/sc_input.h ****    return signal->age;
 231:source\rte/sc_input.h **** }
 232:source\rte/sc_input.h **** 
 233:source\rte/sc_input.h **** /**
 234:source\rte/sc_input.h ****  * Should be called by application or driver if no new value can be provided.
 235:source\rte/sc_input.h ****  * @param  SC_INPUT_t * const signal: Pointer to the signal object
 236:source\rte/sc_input.h ****  * @param uint32_t increment: incrementvalue, typically in [ms]
 237:source\rte/sc_input.h ****  * @return void
 238:source\rte/sc_input.h ****  */
 239:source\rte/sc_input.h **** inline void RTE_SC_INPUT_incAge(  SC_INPUT_t * const signal , uint32_t increment)
 240:source\rte/sc_input.h **** {
 241:source\rte/sc_input.h **** 	   //Hack....
 242:source\rte/sc_input.h **** 	   if ( 0xFFFF0000 > (signal->age + increment) )
  37              		.loc 2 242 0
  38 0000 0D4B     		ldr	r3, .L5
  39 0002 9B6C     		ldr	r3, [r3, #72]
ARM GAS  C:\Users\saman\AppData\Local\Temp\ccC7edaO.s 			page 9


  40 0004 0344     		add	r3, r3, r0
  41 0006 13F1011F 		cmn	r3, #65537
  42 000a 01D8     		bhi	.L2
 243:source\rte/sc_input.h **** 	   {
 244:source\rte/sc_input.h **** 	      signal->age += increment;
  43              		.loc 2 244 0
  44 000c 0A4A     		ldr	r2, .L5
  45 000e 9364     		str	r3, [r2, #72]
  46              	.L2:
  47              	.LVL1:
  48              	.LBE15:
  49              	.LBE14:
  50              	.LBB16:
  51              	.LBB17:
  52              		.file 3 "source\\rte\\sc_control.h"
   1:source\rte/sc_control.h **** 
   2:source\rte/sc_control.h **** 
   3:source\rte/sc_control.h **** /**
   4:source\rte/sc_control.h ****  *  file    SC_CONTROL_signal.h
   5:source\rte/sc_control.h ****  *
   6:source\rte/sc_control.h ****  *  brief   signal base class for signal sc_control
   7:source\rte/sc_control.h ****  *
   8:source\rte/sc_control.h ****  *  author  Autogenerated, Peter Fromm       <peter.fromm@h-da.de>
   9:source\rte/sc_control.h ****  *
  10:source\rte/sc_control.h ****  * description: Signalclass
  11:source\rte/sc_control.h ****  * name: sc_control
  12:source\rte/sc_control.h ****  * shortname: control
  13:source\rte/sc_control.h ****  *
  14:source\rte/sc_control.h ****  */
  15:source\rte/sc_control.h **** 
  16:source\rte/sc_control.h **** 
  17:source\rte/sc_control.h **** 
  18:source\rte/sc_control.h **** #ifndef SC_CONTROL_SIGNAL_H_INCLUDED
  19:source\rte/sc_control.h **** #define SC_CONTROL_SIGNAL_H_INCLUDED
  20:source\rte/sc_control.h **** 
  21:source\rte/sc_control.h **** /*================================================[ public includes  ]=============================
  22:source\rte/sc_control.h **** #include "global.h"
  23:source\rte/sc_control.h **** #include "project.h"
  24:source\rte/sc_control.h **** #include "rte.h"
  25:source\rte/sc_control.h **** #include "rte_types.h"
  26:source\rte/sc_control.h **** 
  27:source\rte/sc_control.h **** #include "sc_control_type.h"
  28:source\rte/sc_control.h **** 
  29:source\rte/sc_control.h **** 
  30:source\rte/sc_control.h **** /**************************************************************************************************
  31:source\rte/sc_control.h **** /* The driver API block																						*/
  32:source\rte/sc_control.h **** /**************************************************************************************************
  33:source\rte/sc_control.h ****                                                                                                    
  34:source\rte/sc_control.h **** /**
  35:source\rte/sc_control.h ****  *  Definition of function types for driver interfaces.
  36:source\rte/sc_control.h ****  *  I-Port
  37:source\rte/sc_control.h ****  */
  38:source\rte/sc_control.h **** typedef RC_t (*SC_CONTROL_driverIn_t)(SC_CONTROL_data_t * const);
  39:source\rte/sc_control.h **** 
  40:source\rte/sc_control.h **** /**
  41:source\rte/sc_control.h ****  *  Definition of function types for driver interfaces.
  42:source\rte/sc_control.h ****  *  O-Port
ARM GAS  C:\Users\saman\AppData\Local\Temp\ccC7edaO.s 			page 10


  43:source\rte/sc_control.h ****  */
  44:source\rte/sc_control.h **** typedef RC_t (*SC_CONTROL_driverOut_t)( const SC_CONTROL_data_t * const);
  45:source\rte/sc_control.h **** 
  46:source\rte/sc_control.h **** 
  47:source\rte/sc_control.h **** /**************************************************************************************************
  48:source\rte/sc_control.h **** /* The signal configuration API block																				*/
  49:source\rte/sc_control.h **** /**************************************************************************************************
  50:source\rte/sc_control.h **** 
  51:source\rte/sc_control.h **** /**
  52:source\rte/sc_control.h ****  * Instances of the struct SC_CONTROL_cfg_t represent the signal object configuration.
  53:source\rte/sc_control.h ****  */
  54:source\rte/sc_control.h **** struct SC_CONTROL_cfg_s
  55:source\rte/sc_control.h **** {
  56:source\rte/sc_control.h ****     /**
  57:source\rte/sc_control.h ****      * Function pointer to the input driver
  58:source\rte/sc_control.h ****      */
  59:source\rte/sc_control.h ****     SC_CONTROL_driverIn_t const inDriver;
  60:source\rte/sc_control.h **** 
  61:source\rte/sc_control.h ****     /**
  62:source\rte/sc_control.h ****      * Function pointer to the output driver table
  63:source\rte/sc_control.h ****      */
  64:source\rte/sc_control.h ****    SC_CONTROL_driverOut_t const outDriver;
  65:source\rte/sc_control.h ****    
  66:source\rte/sc_control.h ****     /**
  67:source\rte/sc_control.h ****      * Event onUpdate
  68:source\rte/sc_control.h ****      */
  69:source\rte/sc_control.h ****     EventMaskType const evOnUpdate;
  70:source\rte/sc_control.h ****     
  71:source\rte/sc_control.h ****     
  72:source\rte/sc_control.h ****     /**
  73:source\rte/sc_control.h ****      * Event onError
  74:source\rte/sc_control.h ****      */
  75:source\rte/sc_control.h ****     EventMaskType const evOnError;
  76:source\rte/sc_control.h ****     
  77:source\rte/sc_control.h ****     /**
  78:source\rte/sc_control.h ****      * Task Count onUpdate
  79:source\rte/sc_control.h ****      */
  80:source\rte/sc_control.h ****     size_t const onUpdateTaskCount;
  81:source\rte/sc_control.h **** 
  82:source\rte/sc_control.h ****     /**
  83:source\rte/sc_control.h ****      * Task List onUpdate
  84:source\rte/sc_control.h ****      */
  85:source\rte/sc_control.h ****     TaskTypeArray* const onUpdateTasks;
  86:source\rte/sc_control.h ****     
  87:source\rte/sc_control.h ****     /**
  88:source\rte/sc_control.h ****      * Task Count onError
  89:source\rte/sc_control.h ****      */
  90:source\rte/sc_control.h ****     size_t const onErrorTaskCount;
  91:source\rte/sc_control.h **** 
  92:source\rte/sc_control.h ****     /**
  93:source\rte/sc_control.h ****      * Task List onError
  94:source\rte/sc_control.h ****      */
  95:source\rte/sc_control.h ****     TaskTypeArray* const onErrorTasks;
  96:source\rte/sc_control.h **** 	
  97:source\rte/sc_control.h **** 	
  98:source\rte/sc_control.h **** 	/**
  99:source\rte/sc_control.h **** 	 * Ressourse is active? We need an additional boolean as a ressource value 0 is valid.
ARM GAS  C:\Users\saman\AppData\Local\Temp\ccC7edaO.s 			page 11


 100:source\rte/sc_control.h **** 	 */
 101:source\rte/sc_control.h **** 	 boolean_t const resourceActive;
 102:source\rte/sc_control.h **** 	 
 103:source\rte/sc_control.h **** 	/**
 104:source\rte/sc_control.h **** 	 * Ressourse 
 105:source\rte/sc_control.h **** 	 */
 106:source\rte/sc_control.h **** 	 ResourceType const resource;
 107:source\rte/sc_control.h **** 
 108:source\rte/sc_control.h **** };                                                                                                 
 109:source\rte/sc_control.h **** typedef const struct SC_CONTROL_cfg_s SC_CONTROL_cfg_t;
 110:source\rte/sc_control.h ****                               
 111:source\rte/sc_control.h **** /**************************************************************************************************
 112:source\rte/sc_control.h **** /* The data interface block																							*/
 113:source\rte/sc_control.h **** /**************************************************************************************************
 114:source\rte/sc_control.h **** 
 115:source\rte/sc_control.h ****                                                                                                    
 116:source\rte/sc_control.h **** 							  
 117:source\rte/sc_control.h **** /**
 118:source\rte/sc_control.h ****  * Instances of the struct SC_CONTROL_t represent the signal objects.
 119:source\rte/sc_control.h ****  * A signal object contains the current application value 'value' as well as relevant meta data.
 120:source\rte/sc_control.h ****  */
 121:source\rte/sc_control.h **** struct SC_CONTROL_s
 122:source\rte/sc_control.h **** {                                                                                                  
 123:source\rte/sc_control.h **** 
 124:source\rte/sc_control.h **** 	/**
 125:source\rte/sc_control.h **** 	 * Data buffer for the application value
 126:source\rte/sc_control.h **** 	 */
 127:source\rte/sc_control.h ****     SC_CONTROL_data_t value;
 128:source\rte/sc_control.h **** 
 129:source\rte/sc_control.h ****     /**
 130:source\rte/sc_control.h ****      * Current signal status
 131:source\rte/sc_control.h ****      */
 132:source\rte/sc_control.h ****     RTE_signalStatus_t status;
 133:source\rte/sc_control.h **** 
 134:source\rte/sc_control.h ****     /**
 135:source\rte/sc_control.h ****      * Current age of the signal (in calling cycles)
 136:source\rte/sc_control.h ****      */
 137:source\rte/sc_control.h ****     uint32_t age;
 138:source\rte/sc_control.h **** 
 139:source\rte/sc_control.h ****     /**
 140:source\rte/sc_control.h ****      * Pointer to the signal configuration
 141:source\rte/sc_control.h ****      */
 142:source\rte/sc_control.h **** 	const SC_CONTROL_cfg_t * const    pSigCfg;
 143:source\rte/sc_control.h **** 
 144:source\rte/sc_control.h **** };                                                                                                 
 145:source\rte/sc_control.h **** typedef struct SC_CONTROL_s SC_CONTROL_t;
 146:source\rte/sc_control.h **** 
 147:source\rte/sc_control.h **** /**************************************************************************************************
 148:source\rte/sc_control.h **** /* Signal initialisation   																							*/
 149:source\rte/sc_control.h **** /**************************************************************************************************
 150:source\rte/sc_control.h **** 
 151:source\rte/sc_control.h **** /**
 152:source\rte/sc_control.h ****  * Initializes a signal instance with a passed init value.
 153:source\rte/sc_control.h ****  * Depending on the configured conversion or scaling function the raw_value will be calculated.
 154:source\rte/sc_control.h ****  * Signal status will change from RTE_SIGNALSTATUS_STARTUP to RTE_SIGNALSTATUS_INITIALIZED.
 155:source\rte/sc_control.h ****  *
 156:source\rte/sc_control.h ****  * @param  SC_CONTROL_t * const signal: Pointer to the signal object which will be initialised
ARM GAS  C:\Users\saman\AppData\Local\Temp\ccC7edaO.s 			page 12


 157:source\rte/sc_control.h ****  * @return RC_t: standard return code, currently only RC_SUCCESS
 158:source\rte/sc_control.h ****  *
 159:source\rte/sc_control.h ****  **/
 160:source\rte/sc_control.h **** inline RC_t RTE_SC_CONTROL_init( SC_CONTROL_t * const signal )
 161:source\rte/sc_control.h **** {                                                                                                  
 162:source\rte/sc_control.h **** 
 163:source\rte/sc_control.h ****    RC_t ret = RC_SUCCESS;
 164:source\rte/sc_control.h **** 
 165:source\rte/sc_control.h ****    //Set value and raw value
 166:source\rte/sc_control.h ****    signal->value  = SC_CONTROL_INIT_DATA;
 167:source\rte/sc_control.h ****    signal->age    = 0;
 168:source\rte/sc_control.h ****    signal->status = RTE_SIGNALSTATUS_INITIALIZED;
 169:source\rte/sc_control.h **** 
 170:source\rte/sc_control.h ****    return ret;
 171:source\rte/sc_control.h **** }
 172:source\rte/sc_control.h **** 
 173:source\rte/sc_control.h **** /**************************************************************************************************
 174:source\rte/sc_control.h **** /* Status and timeout control																						*/
 175:source\rte/sc_control.h **** /**************************************************************************************************
 176:source\rte/sc_control.h **** 
 177:source\rte/sc_control.h **** /**
 178:source\rte/sc_control.h ****  *  Returns the current signal status of the passed signal instance.
 179:source\rte/sc_control.h ****  *
 180:source\rte/sc_control.h ****  * @param  SC_CONTROL_t * const signal: Pointer to the signal object
 181:source\rte/sc_control.h ****  * @return  sig_status_t: The current signal status
 182:source\rte/sc_control.h ****  *
 183:source\rte/sc_control.h ****  **/
 184:source\rte/sc_control.h **** inline RTE_signalStatus_t RTE_SC_CONTROL_getStatus( const SC_CONTROL_t * const signal )
 185:source\rte/sc_control.h **** {
 186:source\rte/sc_control.h ****    return signal->status;
 187:source\rte/sc_control.h **** }
 188:source\rte/sc_control.h **** 
 189:source\rte/sc_control.h **** 
 190:source\rte/sc_control.h **** /**
 191:source\rte/sc_control.h ****  *  Sets a new signal status of the passed signal instance by passing the new status.
 192:source\rte/sc_control.h ****  *
 193:source\rte/sc_control.h ****  * @param  SC_CONTROL_t * const signal: Pointer to the signal object
 194:source\rte/sc_control.h ****  * @param  const sig_status_t status: New signal status
 195:source\rte/sc_control.h ****  * @return RC_t: standard return code, currently only RC_SUCCESS
 196:source\rte/sc_control.h ****  *
 197:source\rte/sc_control.h ****  */
 198:source\rte/sc_control.h **** inline RC_t RTE_SC_CONTROL_setStatus( SC_CONTROL_t * const signal, const RTE_signalStatus_t status 
 199:source\rte/sc_control.h **** {
 200:source\rte/sc_control.h ****    signal->status = status;
 201:source\rte/sc_control.h ****    size_t taskNum=0;
 202:source\rte/sc_control.h ****    
 203:source\rte/sc_control.h ****    //Fire error events in case of invalid state
 204:source\rte/sc_control.h ****    if (signal->status == RTE_SIGNALSTATUS_INVALID)
 205:source\rte/sc_control.h ****    {
 206:source\rte/sc_control.h **** 	    //Pointer to the Taskarray, containing the tasks receiving the onUpdate events
 207:source\rte/sc_control.h **** 		TaskTypeArray* pTaskArray = signal->pSigCfg->onErrorTasks;
 208:source\rte/sc_control.h **** 
 209:source\rte/sc_control.h **** 		if (0 != signal->pSigCfg->evOnError && NULL != pTaskArray){
 210:source\rte/sc_control.h **** 			for( taskNum=0 ; taskNum < signal->pSigCfg->onErrorTaskCount ;taskNum++){
 211:source\rte/sc_control.h **** 				TaskType task = (*pTaskArray)[taskNum];
 212:source\rte/sc_control.h **** 				SetEvent( task, signal->pSigCfg->evOnError);
 213:source\rte/sc_control.h **** 			}
ARM GAS  C:\Users\saman\AppData\Local\Temp\ccC7edaO.s 			page 13


 214:source\rte/sc_control.h **** 		}
 215:source\rte/sc_control.h ****    }
 216:source\rte/sc_control.h ****    
 217:source\rte/sc_control.h ****    return RC_SUCCESS;
 218:source\rte/sc_control.h **** }
 219:source\rte/sc_control.h **** 
 220:source\rte/sc_control.h **** 
 221:source\rte/sc_control.h **** /**
 222:source\rte/sc_control.h ****  * Returns the count of refreshing trials (refresh, set or set_raw) that failed.
 223:source\rte/sc_control.h ****  * Prerquisite: The signal is refreshed cyclically
 224:source\rte/sc_control.h ****  *
 225:source\rte/sc_control.h ****  * @param  SC_CONTROL_t * const signal: Pointer to the signal object
 226:source\rte/sc_control.h ****  * @return uint32_t: Number of cycles since the signal has been updated for the last time
 227:source\rte/sc_control.h ****  */
 228:source\rte/sc_control.h **** inline uint32_t RTE_SC_CONTROL_getAge( const SC_CONTROL_t * const signal )
 229:source\rte/sc_control.h **** {
 230:source\rte/sc_control.h ****    return signal->age;
 231:source\rte/sc_control.h **** }
 232:source\rte/sc_control.h **** 
 233:source\rte/sc_control.h **** /**
 234:source\rte/sc_control.h ****  * Should be called by application or driver if no new value can be provided.
 235:source\rte/sc_control.h ****  * @param  SC_CONTROL_t * const signal: Pointer to the signal object
 236:source\rte/sc_control.h ****  * @param uint32_t increment: incrementvalue, typically in [ms]
 237:source\rte/sc_control.h ****  * @return void
 238:source\rte/sc_control.h ****  */
 239:source\rte/sc_control.h **** inline void RTE_SC_CONTROL_incAge(  SC_CONTROL_t * const signal , uint32_t increment)
 240:source\rte/sc_control.h **** {
 241:source\rte/sc_control.h **** 	   //Hack....
 242:source\rte/sc_control.h **** 	   if ( 0xFFFF0000 > (signal->age + increment) )
  53              		.loc 3 242 0
  54 0010 094B     		ldr	r3, .L5
  55 0012 DB6E     		ldr	r3, [r3, #108]
  56 0014 0344     		add	r3, r3, r0
  57 0016 13F1011F 		cmn	r3, #65537
  58 001a 01D8     		bhi	.L3
 243:source\rte/sc_control.h **** 	   {
 244:source\rte/sc_control.h **** 	      signal->age += increment;
  59              		.loc 3 244 0
  60 001c 064A     		ldr	r2, .L5
  61 001e D366     		str	r3, [r2, #108]
  62              	.L3:
  63              	.LVL2:
  64              	.LBE17:
  65              	.LBE16:
  66              	.LBB18:
  67              	.LBB19:
  68              		.file 4 "source\\rte\\sc_display.h"
   1:source\rte/sc_display.h **** 
   2:source\rte/sc_display.h **** 
   3:source\rte/sc_display.h **** /**
   4:source\rte/sc_display.h ****  *  file    SC_DISPLAY_signal.h
   5:source\rte/sc_display.h ****  *
   6:source\rte/sc_display.h ****  *  brief   signal base class for signal sc_display
   7:source\rte/sc_display.h ****  *
   8:source\rte/sc_display.h ****  *  author  Autogenerated, Peter Fromm       <peter.fromm@h-da.de>
   9:source\rte/sc_display.h ****  *
  10:source\rte/sc_display.h ****  * description: Signalclass
ARM GAS  C:\Users\saman\AppData\Local\Temp\ccC7edaO.s 			page 14


  11:source\rte/sc_display.h ****  * name: sc_display
  12:source\rte/sc_display.h ****  * shortname: display
  13:source\rte/sc_display.h ****  *
  14:source\rte/sc_display.h ****  */
  15:source\rte/sc_display.h **** 
  16:source\rte/sc_display.h **** 
  17:source\rte/sc_display.h **** 
  18:source\rte/sc_display.h **** #ifndef SC_DISPLAY_SIGNAL_H_INCLUDED
  19:source\rte/sc_display.h **** #define SC_DISPLAY_SIGNAL_H_INCLUDED
  20:source\rte/sc_display.h **** 
  21:source\rte/sc_display.h **** /*================================================[ public includes  ]=============================
  22:source\rte/sc_display.h **** #include "global.h"
  23:source\rte/sc_display.h **** #include "project.h"
  24:source\rte/sc_display.h **** #include "rte.h"
  25:source\rte/sc_display.h **** #include "rte_types.h"
  26:source\rte/sc_display.h **** 
  27:source\rte/sc_display.h **** #include "sc_display_type.h"
  28:source\rte/sc_display.h **** 
  29:source\rte/sc_display.h **** 
  30:source\rte/sc_display.h **** /**************************************************************************************************
  31:source\rte/sc_display.h **** /* The driver API block																						*/
  32:source\rte/sc_display.h **** /**************************************************************************************************
  33:source\rte/sc_display.h ****                                                                                                    
  34:source\rte/sc_display.h **** /**
  35:source\rte/sc_display.h ****  *  Definition of function types for driver interfaces.
  36:source\rte/sc_display.h ****  *  I-Port
  37:source\rte/sc_display.h ****  */
  38:source\rte/sc_display.h **** typedef RC_t (*SC_DISPLAY_driverIn_t)(SC_DISPLAY_data_t * const);
  39:source\rte/sc_display.h **** 
  40:source\rte/sc_display.h **** /**
  41:source\rte/sc_display.h ****  *  Definition of function types for driver interfaces.
  42:source\rte/sc_display.h ****  *  O-Port
  43:source\rte/sc_display.h ****  */
  44:source\rte/sc_display.h **** typedef RC_t (*SC_DISPLAY_driverOut_t)( const SC_DISPLAY_data_t * const);
  45:source\rte/sc_display.h **** 
  46:source\rte/sc_display.h **** 
  47:source\rte/sc_display.h **** /**************************************************************************************************
  48:source\rte/sc_display.h **** /* The signal configuration API block																				*/
  49:source\rte/sc_display.h **** /**************************************************************************************************
  50:source\rte/sc_display.h **** 
  51:source\rte/sc_display.h **** /**
  52:source\rte/sc_display.h ****  * Instances of the struct SC_DISPLAY_cfg_t represent the signal object configuration.
  53:source\rte/sc_display.h ****  */
  54:source\rte/sc_display.h **** struct SC_DISPLAY_cfg_s
  55:source\rte/sc_display.h **** {
  56:source\rte/sc_display.h ****     /**
  57:source\rte/sc_display.h ****      * Function pointer to the input driver
  58:source\rte/sc_display.h ****      */
  59:source\rte/sc_display.h ****     SC_DISPLAY_driverIn_t const inDriver;
  60:source\rte/sc_display.h **** 
  61:source\rte/sc_display.h ****     /**
  62:source\rte/sc_display.h ****      * Function pointer to the output driver table
  63:source\rte/sc_display.h ****      */
  64:source\rte/sc_display.h ****    SC_DISPLAY_driverOut_t const outDriver;
  65:source\rte/sc_display.h ****    
  66:source\rte/sc_display.h ****     /**
  67:source\rte/sc_display.h ****      * Event onUpdate
ARM GAS  C:\Users\saman\AppData\Local\Temp\ccC7edaO.s 			page 15


  68:source\rte/sc_display.h ****      */
  69:source\rte/sc_display.h ****     EventMaskType const evOnUpdate;
  70:source\rte/sc_display.h ****     
  71:source\rte/sc_display.h ****     
  72:source\rte/sc_display.h ****     /**
  73:source\rte/sc_display.h ****      * Event onError
  74:source\rte/sc_display.h ****      */
  75:source\rte/sc_display.h ****     EventMaskType const evOnError;
  76:source\rte/sc_display.h ****     
  77:source\rte/sc_display.h ****     /**
  78:source\rte/sc_display.h ****      * Task Count onUpdate
  79:source\rte/sc_display.h ****      */
  80:source\rte/sc_display.h ****     size_t const onUpdateTaskCount;
  81:source\rte/sc_display.h **** 
  82:source\rte/sc_display.h ****     /**
  83:source\rte/sc_display.h ****      * Task List onUpdate
  84:source\rte/sc_display.h ****      */
  85:source\rte/sc_display.h ****     TaskTypeArray* const onUpdateTasks;
  86:source\rte/sc_display.h ****     
  87:source\rte/sc_display.h ****     /**
  88:source\rte/sc_display.h ****      * Task Count onError
  89:source\rte/sc_display.h ****      */
  90:source\rte/sc_display.h ****     size_t const onErrorTaskCount;
  91:source\rte/sc_display.h **** 
  92:source\rte/sc_display.h ****     /**
  93:source\rte/sc_display.h ****      * Task List onError
  94:source\rte/sc_display.h ****      */
  95:source\rte/sc_display.h ****     TaskTypeArray* const onErrorTasks;
  96:source\rte/sc_display.h **** 	
  97:source\rte/sc_display.h **** 	
  98:source\rte/sc_display.h **** 	/**
  99:source\rte/sc_display.h **** 	 * Ressourse is active? We need an additional boolean as a ressource value 0 is valid.
 100:source\rte/sc_display.h **** 	 */
 101:source\rte/sc_display.h **** 	 boolean_t const resourceActive;
 102:source\rte/sc_display.h **** 	 
 103:source\rte/sc_display.h **** 	/**
 104:source\rte/sc_display.h **** 	 * Ressourse 
 105:source\rte/sc_display.h **** 	 */
 106:source\rte/sc_display.h **** 	 ResourceType const resource;
 107:source\rte/sc_display.h **** 
 108:source\rte/sc_display.h **** };                                                                                                 
 109:source\rte/sc_display.h **** typedef const struct SC_DISPLAY_cfg_s SC_DISPLAY_cfg_t;
 110:source\rte/sc_display.h ****                               
 111:source\rte/sc_display.h **** /**************************************************************************************************
 112:source\rte/sc_display.h **** /* The data interface block																							*/
 113:source\rte/sc_display.h **** /**************************************************************************************************
 114:source\rte/sc_display.h **** 
 115:source\rte/sc_display.h ****                                                                                                    
 116:source\rte/sc_display.h **** 							  
 117:source\rte/sc_display.h **** /**
 118:source\rte/sc_display.h ****  * Instances of the struct SC_DISPLAY_t represent the signal objects.
 119:source\rte/sc_display.h ****  * A signal object contains the current application value 'value' as well as relevant meta data.
 120:source\rte/sc_display.h ****  */
 121:source\rte/sc_display.h **** struct SC_DISPLAY_s
 122:source\rte/sc_display.h **** {                                                                                                  
 123:source\rte/sc_display.h **** 
 124:source\rte/sc_display.h **** 	/**
ARM GAS  C:\Users\saman\AppData\Local\Temp\ccC7edaO.s 			page 16


 125:source\rte/sc_display.h **** 	 * Data buffer for the application value
 126:source\rte/sc_display.h **** 	 */
 127:source\rte/sc_display.h ****     SC_DISPLAY_data_t value;
 128:source\rte/sc_display.h **** 
 129:source\rte/sc_display.h ****     /**
 130:source\rte/sc_display.h ****      * Current signal status
 131:source\rte/sc_display.h ****      */
 132:source\rte/sc_display.h ****     RTE_signalStatus_t status;
 133:source\rte/sc_display.h **** 
 134:source\rte/sc_display.h ****     /**
 135:source\rte/sc_display.h ****      * Current age of the signal (in calling cycles)
 136:source\rte/sc_display.h ****      */
 137:source\rte/sc_display.h ****     uint32_t age;
 138:source\rte/sc_display.h **** 
 139:source\rte/sc_display.h ****     /**
 140:source\rte/sc_display.h ****      * Pointer to the signal configuration
 141:source\rte/sc_display.h ****      */
 142:source\rte/sc_display.h **** 	const SC_DISPLAY_cfg_t * const    pSigCfg;
 143:source\rte/sc_display.h **** 
 144:source\rte/sc_display.h **** };                                                                                                 
 145:source\rte/sc_display.h **** typedef struct SC_DISPLAY_s SC_DISPLAY_t;
 146:source\rte/sc_display.h **** 
 147:source\rte/sc_display.h **** /**************************************************************************************************
 148:source\rte/sc_display.h **** /* Signal initialisation   																							*/
 149:source\rte/sc_display.h **** /**************************************************************************************************
 150:source\rte/sc_display.h **** 
 151:source\rte/sc_display.h **** /**
 152:source\rte/sc_display.h ****  * Initializes a signal instance with a passed init value.
 153:source\rte/sc_display.h ****  * Depending on the configured conversion or scaling function the raw_value will be calculated.
 154:source\rte/sc_display.h ****  * Signal status will change from RTE_SIGNALSTATUS_STARTUP to RTE_SIGNALSTATUS_INITIALIZED.
 155:source\rte/sc_display.h ****  *
 156:source\rte/sc_display.h ****  * @param  SC_DISPLAY_t * const signal: Pointer to the signal object which will be initialised
 157:source\rte/sc_display.h ****  * @return RC_t: standard return code, currently only RC_SUCCESS
 158:source\rte/sc_display.h ****  *
 159:source\rte/sc_display.h ****  **/
 160:source\rte/sc_display.h **** inline RC_t RTE_SC_DISPLAY_init( SC_DISPLAY_t * const signal )
 161:source\rte/sc_display.h **** {                                                                                                  
 162:source\rte/sc_display.h **** 
 163:source\rte/sc_display.h ****    RC_t ret = RC_SUCCESS;
 164:source\rte/sc_display.h **** 
 165:source\rte/sc_display.h ****    //Set value and raw value
 166:source\rte/sc_display.h ****    signal->value  = SC_DISPLAY_INIT_DATA;
 167:source\rte/sc_display.h ****    signal->age    = 0;
 168:source\rte/sc_display.h ****    signal->status = RTE_SIGNALSTATUS_INITIALIZED;
 169:source\rte/sc_display.h **** 
 170:source\rte/sc_display.h ****    return ret;
 171:source\rte/sc_display.h **** }
 172:source\rte/sc_display.h **** 
 173:source\rte/sc_display.h **** /**************************************************************************************************
 174:source\rte/sc_display.h **** /* Status and timeout control																						*/
 175:source\rte/sc_display.h **** /**************************************************************************************************
 176:source\rte/sc_display.h **** 
 177:source\rte/sc_display.h **** /**
 178:source\rte/sc_display.h ****  *  Returns the current signal status of the passed signal instance.
 179:source\rte/sc_display.h ****  *
 180:source\rte/sc_display.h ****  * @param  SC_DISPLAY_t * const signal: Pointer to the signal object
 181:source\rte/sc_display.h ****  * @return  sig_status_t: The current signal status
ARM GAS  C:\Users\saman\AppData\Local\Temp\ccC7edaO.s 			page 17


 182:source\rte/sc_display.h ****  *
 183:source\rte/sc_display.h ****  **/
 184:source\rte/sc_display.h **** inline RTE_signalStatus_t RTE_SC_DISPLAY_getStatus( const SC_DISPLAY_t * const signal )
 185:source\rte/sc_display.h **** {
 186:source\rte/sc_display.h ****    return signal->status;
 187:source\rte/sc_display.h **** }
 188:source\rte/sc_display.h **** 
 189:source\rte/sc_display.h **** 
 190:source\rte/sc_display.h **** /**
 191:source\rte/sc_display.h ****  *  Sets a new signal status of the passed signal instance by passing the new status.
 192:source\rte/sc_display.h ****  *
 193:source\rte/sc_display.h ****  * @param  SC_DISPLAY_t * const signal: Pointer to the signal object
 194:source\rte/sc_display.h ****  * @param  const sig_status_t status: New signal status
 195:source\rte/sc_display.h ****  * @return RC_t: standard return code, currently only RC_SUCCESS
 196:source\rte/sc_display.h ****  *
 197:source\rte/sc_display.h ****  */
 198:source\rte/sc_display.h **** inline RC_t RTE_SC_DISPLAY_setStatus( SC_DISPLAY_t * const signal, const RTE_signalStatus_t status 
 199:source\rte/sc_display.h **** {
 200:source\rte/sc_display.h ****    signal->status = status;
 201:source\rte/sc_display.h ****    size_t taskNum=0;
 202:source\rte/sc_display.h ****    
 203:source\rte/sc_display.h ****    //Fire error events in case of invalid state
 204:source\rte/sc_display.h ****    if (signal->status == RTE_SIGNALSTATUS_INVALID)
 205:source\rte/sc_display.h ****    {
 206:source\rte/sc_display.h **** 	    //Pointer to the Taskarray, containing the tasks receiving the onUpdate events
 207:source\rte/sc_display.h **** 		TaskTypeArray* pTaskArray = signal->pSigCfg->onErrorTasks;
 208:source\rte/sc_display.h **** 
 209:source\rte/sc_display.h **** 		if (0 != signal->pSigCfg->evOnError && NULL != pTaskArray){
 210:source\rte/sc_display.h **** 			for( taskNum=0 ; taskNum < signal->pSigCfg->onErrorTaskCount ;taskNum++){
 211:source\rte/sc_display.h **** 				TaskType task = (*pTaskArray)[taskNum];
 212:source\rte/sc_display.h **** 				SetEvent( task, signal->pSigCfg->evOnError);
 213:source\rte/sc_display.h **** 			}
 214:source\rte/sc_display.h **** 		}
 215:source\rte/sc_display.h ****    }
 216:source\rte/sc_display.h ****    
 217:source\rte/sc_display.h ****    return RC_SUCCESS;
 218:source\rte/sc_display.h **** }
 219:source\rte/sc_display.h **** 
 220:source\rte/sc_display.h **** 
 221:source\rte/sc_display.h **** /**
 222:source\rte/sc_display.h ****  * Returns the count of refreshing trials (refresh, set or set_raw) that failed.
 223:source\rte/sc_display.h ****  * Prerquisite: The signal is refreshed cyclically
 224:source\rte/sc_display.h ****  *
 225:source\rte/sc_display.h ****  * @param  SC_DISPLAY_t * const signal: Pointer to the signal object
 226:source\rte/sc_display.h ****  * @return uint32_t: Number of cycles since the signal has been updated for the last time
 227:source\rte/sc_display.h ****  */
 228:source\rte/sc_display.h **** inline uint32_t RTE_SC_DISPLAY_getAge( const SC_DISPLAY_t * const signal )
 229:source\rte/sc_display.h **** {
 230:source\rte/sc_display.h ****    return signal->age;
 231:source\rte/sc_display.h **** }
 232:source\rte/sc_display.h **** 
 233:source\rte/sc_display.h **** /**
 234:source\rte/sc_display.h ****  * Should be called by application or driver if no new value can be provided.
 235:source\rte/sc_display.h ****  * @param  SC_DISPLAY_t * const signal: Pointer to the signal object
 236:source\rte/sc_display.h ****  * @param uint32_t increment: incrementvalue, typically in [ms]
 237:source\rte/sc_display.h ****  * @return void
 238:source\rte/sc_display.h ****  */
ARM GAS  C:\Users\saman\AppData\Local\Temp\ccC7edaO.s 			page 18


 239:source\rte/sc_display.h **** inline void RTE_SC_DISPLAY_incAge(  SC_DISPLAY_t * const signal , uint32_t increment)
 240:source\rte/sc_display.h **** {
 241:source\rte/sc_display.h **** 	   //Hack....
 242:source\rte/sc_display.h **** 	   if ( 0xFFFF0000 > (signal->age + increment) )
  69              		.loc 4 242 0
  70 0020 054B     		ldr	r3, .L5
  71 0022 D3F89030 		ldr	r3, [r3, #144]
  72 0026 1844     		add	r0, r0, r3
  73              	.LVL3:
  74 0028 10F1011F 		cmn	r0, #65537
  75 002c 02D8     		bhi	.L1
 243:source\rte/sc_display.h **** 	   {
 244:source\rte/sc_display.h **** 	      signal->age += increment;
  76              		.loc 4 244 0
  77 002e 024B     		ldr	r3, .L5
  78 0030 C3F89000 		str	r0, [r3, #144]
  79              	.LVL4:
  80              	.L1:
  81 0034 7047     		bx	lr
  82              	.L6:
  83 0036 00BF     		.align	2
  84              	.L5:
  85 0038 00000000 		.word	.LANCHOR0
  86              	.LBE19:
  87              	.LBE18:
  88              		.cfi_endproc
  89              	.LFE144:
  90              		.size	RTE_timertick_sp_common_tick, .-RTE_timertick_sp_common_tick
  91              		.section	.text.RTE_reset_sp_common,"ax",%progbits
  92              		.align	2
  93              		.global	RTE_reset_sp_common
  94              		.thumb
  95              		.thumb_func
  96              		.type	RTE_reset_sp_common, %function
  97              	RTE_reset_sp_common:
  98              	.LFB145:
 176:source\rte/sp_common.c ****    RTE_SC_INPUT_incAge( &SO_INPUT_signal, tick); 
 177:source\rte/sp_common.c ****    RTE_SC_CONTROL_incAge( &SO_CONTROL_signal, tick); 
 178:source\rte/sp_common.c ****    RTE_SC_DISPLAY_incAge( &SO_DISPLAY_signal, tick); 
 179:source\rte/sp_common.c ****    
 180:source\rte/sp_common.c **** }
 181:source\rte/sp_common.c **** 
 182:source\rte/sp_common.c **** /*
 183:source\rte/sp_common.c ****  * Reset all signals in this pool
 184:source\rte/sp_common.c ****  */
 185:source\rte/sp_common.c **** void RTE_reset_sp_common(){
  99              		.loc 1 185 0
 100              		.cfi_startproc
 101              		@ args = 0, pretend = 0, frame = 0
 102              		@ frame_needed = 0, uses_anonymous_args = 0
 103 0000 F8B5     		push	{r3, r4, r5, r6, r7, lr}
 104              		.cfi_def_cfa_offset 24
 105              		.cfi_offset 3, -24
 106              		.cfi_offset 4, -20
 107              		.cfi_offset 5, -16
 108              		.cfi_offset 6, -12
 109              		.cfi_offset 7, -8
ARM GAS  C:\Users\saman\AppData\Local\Temp\ccC7edaO.s 			page 19


 110              		.cfi_offset 14, -4
 111              	.LVL5:
 112              	.LBB20:
 113              	.LBB21:
 166:source\rte/sc_input.h ****    signal->age    = 0;
 114              		.loc 2 166 0
 115 0002 144C     		ldr	r4, .L9
 116 0004 4422     		movs	r2, #68
 117 0006 0021     		movs	r1, #0
 118 0008 2046     		mov	r0, r4
 119 000a FFF7FEFF 		bl	memset
 120              	.LVL6:
 167:source\rte/sc_input.h ****    signal->status = RTE_SIGNALSTATUS_INITIALIZED;
 121              		.loc 2 167 0
 122 000e 0026     		movs	r6, #0
 123 0010 A664     		str	r6, [r4, #72]
 168:source\rte/sc_input.h **** 
 124              		.loc 2 168 0
 125 0012 4FF0010E 		mov	lr, #1
 126 0016 84F844E0 		strb	lr, [r4, #68]
 127              	.LVL7:
 128              	.LBE21:
 129              	.LBE20:
 130              	.LBB22:
 131              	.LBB23:
 166:source\rte/sc_control.h ****    signal->age    = 0;
 132              		.loc 3 166 0
 133 001a 0F4F     		ldr	r7, .L9+4
 134 001c 04F15005 		add	r5, r4, #80
 135 0020 3868     		ldr	r0, [r7]	@ unaligned
 136 0022 7968     		ldr	r1, [r7, #4]	@ unaligned
 137 0024 BA68     		ldr	r2, [r7, #8]	@ unaligned
 138 0026 FB68     		ldr	r3, [r7, #12]	@ unaligned
 139 0028 0FC5     		stmia	r5!, {r0, r1, r2, r3}
 140 002a 3869     		ldr	r0, [r7, #16]	@ unaligned
 141 002c 7969     		ldr	r1, [r7, #20]	@ unaligned
 142 002e 03C5     		stmia	r5!, {r0, r1}
 167:source\rte/sc_control.h ****    signal->status = RTE_SIGNALSTATUS_INITIALIZED;
 143              		.loc 3 167 0
 144 0030 E666     		str	r6, [r4, #108]
 168:source\rte/sc_control.h **** 
 145              		.loc 3 168 0
 146 0032 84F868E0 		strb	lr, [r4, #104]
 147              	.LVL8:
 148              	.LBE23:
 149              	.LBE22:
 150              	.LBB24:
 151              	.LBB25:
 166:source\rte/sc_display.h ****    signal->age    = 0;
 152              		.loc 4 166 0
 153 0036 6667     		str	r6, [r4, #116]
 154 0038 A667     		str	r6, [r4, #120]
 155 003a E667     		str	r6, [r4, #124]
 156 003c C4F88060 		str	r6, [r4, #128]
 157 0040 C4F88460 		str	r6, [r4, #132]
 158 0044 C4F88860 		str	r6, [r4, #136]
 167:source\rte/sc_display.h ****    signal->status = RTE_SIGNALSTATUS_INITIALIZED;
ARM GAS  C:\Users\saman\AppData\Local\Temp\ccC7edaO.s 			page 20


 159              		.loc 4 167 0
 160 0048 C4F89060 		str	r6, [r4, #144]
 168:source\rte/sc_display.h **** 
 161              		.loc 4 168 0
 162 004c 84F88CE0 		strb	lr, [r4, #140]
 163              	.LVL9:
 164 0050 F8BD     		pop	{r3, r4, r5, r6, r7, pc}
 165              	.L10:
 166 0052 00BF     		.align	2
 167              	.L9:
 168 0054 00000000 		.word	.LANCHOR0
 169 0058 00000000 		.word	.LANCHOR1
 170              	.LBE25:
 171              	.LBE24:
 172              		.cfi_endproc
 173              	.LFE145:
 174              		.size	RTE_reset_sp_common, .-RTE_reset_sp_common
 175              		.global	SO_DISPLAY_signal
 176              		.global	SO_CONTROL_signal
 177              		.global	SO_INPUT_signal
 178              		.global	so_input_updTasks
 179              		.section	.rodata
 180              		.align	2
 181              		.set	.LANCHOR1,. + 0
 182              	.LC0:
 183 0000 00       		.byte	0
 184 0001 00       		.space	1
 185 0002 04       		.byte	4
 186 0003 00       		.space	1
 187 0004 0000     		.short	0
 188 0006 FFFF     		.short	-1
 189 0008 0A       		.byte	10
 190 0009 3C       		.byte	60
 191 000a 00       		.byte	0
 192 000b 00       		.space	1
 193 000c 00       		.byte	0
 194 000d 00       		.space	1
 195 000e 04       		.byte	4
 196 000f 00       		.space	1
 197 0010 0000     		.short	0
 198 0012 FFFF     		.short	-1
 199 0014 4B       		.byte	75
 200 0015 3C       		.byte	60
 201 0016 00       		.byte	0
 202 0017 00       		.space	1
 203              		.type	SO_DISPLAY_cfg, %object
 204              		.size	SO_DISPLAY_cfg, 40
 205              	SO_DISPLAY_cfg:
 206 0018 00000000 		.word	0
 207 001c 00000000 		.word	SC_DISPLAY_driverOut
 208 0020 00000000 		.word	0
 209 0024 00000000 		.word	0
 210 0028 00000000 		.word	0
 211 002c 00000000 		.word	0
 212 0030 00000000 		.word	0
 213 0034 00000000 		.word	0
 214 0038 00       		.byte	0
ARM GAS  C:\Users\saman\AppData\Local\Temp\ccC7edaO.s 			page 21


 215 0039 000000   		.space	3
 216 003c 00000000 		.word	0
 217              		.type	SO_CONTROL_cfg, %object
 218              		.size	SO_CONTROL_cfg, 40
 219              	SO_CONTROL_cfg:
 220 0040 00000000 		.space	40
 220      00000000 
 220      00000000 
 220      00000000 
 220      00000000 
 221              		.type	SO_INPUT_cfg, %object
 222              		.size	SO_INPUT_cfg, 40
 223              	SO_INPUT_cfg:
 224 0068 00000000 		.word	SC_INPUT_driverIn
 225 006c 00000000 		.word	0
 226 0070 01000000 		.word	1
 227 0074 00000000 		.word	0
 228 0078 01000000 		.word	1
 229 007c 00000000 		.word	so_input_updTasks
 230 0080 00000000 		.word	0
 231 0084 00000000 		.word	0
 232 0088 00       		.byte	0
 233 0089 000000   		.space	3
 234 008c 00000000 		.word	0
 235              		.type	so_input_updTasks, %object
 236              		.size	so_input_updTasks, 4
 237              	so_input_updTasks:
 238 0090 03000000 		.word	3
 239              		.data
 240              		.align	2
 241              		.set	.LANCHOR0,. + 0
 242              		.type	SO_INPUT_signal, %object
 243              		.size	SO_INPUT_signal, 80
 244              	SO_INPUT_signal:
 245 0000 00       		.byte	0
 246 0001 00       		.byte	0
 247 0002 00       		.byte	0
 248 0003 00000000 		.space	65
 248      00000000 
 248      00000000 
 248      00000000 
 248      00000000 
 249 0044 00       		.byte	0
 250 0045 000000   		.space	3
 251 0048 00000000 		.word	0
 252 004c 68000000 		.word	SO_INPUT_cfg
 253              		.type	SO_CONTROL_signal, %object
 254              		.size	SO_CONTROL_signal, 36
 255              	SO_CONTROL_signal:
 256 0050 00       		.byte	0
 257 0051 00       		.space	1
 258 0052 04       		.byte	4
 259 0053 00       		.space	1
 260 0054 0000     		.short	0
 261 0056 FFFF     		.short	-1
 262 0058 0A       		.byte	10
 263 0059 3C       		.byte	60
ARM GAS  C:\Users\saman\AppData\Local\Temp\ccC7edaO.s 			page 22


 264 005a 00       		.byte	0
 265 005b 00       		.space	1
 266 005c 00       		.byte	0
 267 005d 00       		.space	1
 268 005e 04       		.byte	4
 269 005f 00       		.space	1
 270 0060 0000     		.short	0
 271 0062 FFFF     		.short	-1
 272 0064 4B       		.byte	75
 273 0065 3C       		.byte	60
 274 0066 00       		.byte	0
 275 0067 00       		.space	1
 276 0068 00       		.byte	0
 277 0069 000000   		.space	3
 278 006c 00000000 		.word	0
 279 0070 40000000 		.word	SO_CONTROL_cfg
 280              		.type	SO_DISPLAY_signal, %object
 281              		.size	SO_DISPLAY_signal, 36
 282              	SO_DISPLAY_signal:
 283 0074 00       		.byte	0
 284 0075 00       		.space	1
 285 0076 00       		.byte	0
 286 0077 00       		.space	1
 287 0078 0000     		.short	0
 288 007a 0000     		.short	0
 289 007c 00       		.byte	0
 290 007d 00       		.byte	0
 291 007e 00       		.byte	0
 292 007f 00       		.space	1
 293 0080 00       		.byte	0
 294 0081 00       		.space	1
 295 0082 00       		.byte	0
 296 0083 00       		.space	1
 297 0084 0000     		.short	0
 298 0086 0000     		.short	0
 299 0088 00       		.byte	0
 300 0089 00       		.byte	0
 301 008a 00       		.byte	0
 302 008b 00       		.space	1
 303 008c 00       		.byte	0
 304 008d 000000   		.space	3
 305 0090 00000000 		.word	0
 306 0094 18000000 		.word	SO_DISPLAY_cfg
 307              		.text
 308              	.Letext0:
 309              		.file 5 "c:\\program files (x86)\\cypress\\psoc creator\\4.4\\psoc creator\\import\\gnu\\arm\\5.4.
 310              		.file 6 "c:\\program files (x86)\\cypress\\psoc creator\\4.4\\psoc creator\\import\\gnu\\arm\\5.4.
 311              		.file 7 "c:\\program files (x86)\\cypress\\psoc creator\\4.4\\psoc creator\\import\\gnu\\arm\\5.4.
 312              		.file 8 "Generated_Source\\PSoC5/ErikaOS_common_ee_types.inc"
 313              		.file 9 "Generated_Source\\PSoC5/ErikaOS_cortex_mx_ee_cpu.inc"
 314              		.file 10 "Generated_Source\\PSoC5/ErikaOS_ee_oo_common.inc"
 315              		.file 11 ".\\source\\bsw/global.h"
 316              		.file 12 "source\\rte\\rte_types.h"
 317              		.file 13 "source\\rte\\rte.h"
 318              		.file 14 ".\\source\\bsw\\tft/tft.h"
 319              		.file 15 ".\\source\\asw/clock_type.h"
 320              		.file 16 ".\\source\\asw/statemachine.h"
ARM GAS  C:\Users\saman\AppData\Local\Temp\ccC7edaO.s 			page 23


 321              		.file 17 ".\\source\\asw/clock.h"
 322              		.file 18 "source\\rte\\sc_input_type.h"
 323              		.file 19 "source\\rte\\sc_control_type.h"
 324              		.file 20 "source\\rte\\sc_display_type.h"
 325              		.file 21 "Generated_Source\\PSoC5/ErikaOS_ee_oo_intfunc.inc"
 326              		.file 22 "Generated_Source\\PSoC5/ErikaOS_cortex_mx_ee_context.inc"
 327              		.file 23 "Generated_Source\\PSoC5/ErikaOS_common_ee_primitives.inc"
 328              		.file 24 "Generated_Source\\PSoC5/core_cm3.h"